 advance.tech recode

 Timestamp is 69330cb8 (Fri Dec  5 19:47:52 2025)

 Preferred load address is 10000000

 Start         Length     Name                   Class
 0001:00000000 00003680H .text                   CODE
 0001:00003680 00002980H .text$di                CODE
 0001:00006000 001dada0H .text$mn                CODE
 0001:001e0da0 0000d6b0H .text$x                 CODE
 0001:001ee450 0000156fH .text$yd                CODE
 0002:00000000 00000578H .idata$5                DATA
 0002:00000578 00000008H .00cfg                  DATA
 0002:00000580 00000004H .CRT$XCA                DATA
 0002:00000584 00000004H .CRT$XCL                DATA
 0002:00000588 00000604H .CRT$XCU                DATA
 0002:00000b8c 00000004H .CRT$XCZ                DATA
 0002:00000b90 00000004H .CRT$XIA                DATA
 0002:00000b94 00000004H .CRT$XIZ                DATA
 0002:00000b98 00000004H .CRT$XLA                DATA
 0002:00000b9c 00000004H .CRT$XLZ                DATA
 0002:00000ba0 00000004H .CRT$XPA                DATA
 0002:00000ba4 00000004H .CRT$XPZ                DATA
 0002:00000ba8 00000004H .CRT$XTA                DATA
 0002:00000bac 00000014H .CRT$XTZ                DATA
 0002:00000bb0 00000000H .gfids$y                DATA
 0002:00000bb0 00000000H .giats$y                DATA
 0002:00000bc0 00060d40H .rdata                  DATA
 0002:00061900 00000000H .rdata$CastGuardVftablesA DATA
 0002:00061900 00000000H .rdata$CastGuardVftablesC DATA
 0002:00061900 00000018H .rdata$T                DATA
 0002:00061918 00000010H .rdata$Z                DATA
 0002:00061928 0000012cH .rdata$r                DATA
 0002:00061a54 0000072cH .rdata$sxdata           DATA
 0002:00062180 000000c4H .rdata$voltmd           DATA
 0002:00062244 00000404H .rdata$zzzdbg           DATA
 0002:00062648 00000004H .rtc$IAA                DATA
 0002:0006264c 00000004H .rtc$IZZ                DATA
 0002:00062650 00000004H .rtc$TAA                DATA
 0002:00062654 00000004H .rtc$TZZ                DATA
 0002:00062658 00000004H .tls                    DATA
 0002:0006265c 00000009H .tls$                   DATA
 0002:00062665 00000003H .tls$ZZZ                DATA
 0002:00062668 0000c528H .xdata$x                DATA
 0002:0006eb90 00000f30H .edata                  DATA
 0002:0006fac0 000001a4H .idata$2                DATA
 0002:0006fc64 00000014H .idata$3                DATA
 0002:0006fc78 00000578H .idata$4                DATA
 0002:000701f0 0000211aH .idata$6                DATA
 0003:00000000 00233990H .data                   DATA
 0003:00233990 000010dcH .data$r                 DATA
 0003:00234a6c 00000024H .data$rs                DATA
 0003:00234a90 00002600H .bss                    DATA
 0004:00000000 00000060H .rsrc$01                DATA
 0004:00000060 00000180H .rsrc$02                DATA

  Address         Publics by Value              Rva+Base       Lib:Object

 0000:00000000       ___AbsoluteZero            00000000     <absolute>
 0000:00000000       ___arm64x_extra_rfe_table  00000000     <absolute>
 0000:00000000       ___arm64x_extra_rfe_table_size 00000000     <absolute>
 0000:00000000       ___arm64x_native_entrypoint 00000000     <absolute>
 0000:00000000       ___arm64x_redirection_metadata 00000000     <absolute>
 0000:00000000       ___arm64x_redirection_metadata_count 00000000     <absolute>
 0000:00000000       ___dynamic_value_reloc_table 00000000     <absolute>
 0000:00000000       ___enclave_config          00000000     <absolute>
 0000:00000000       ___guard_check_icall_a64n_fptr 00000000     <absolute>
 0000:00000000       ___guard_eh_cont_count     00000000     <absolute>
 0000:00000000       ___guard_eh_cont_table     00000000     <absolute>
 0000:00000000       ___guard_fids_count        00000000     <absolute>
 0000:00000000       ___guard_fids_table        00000000     <absolute>
 0000:00000000       ___guard_iat_count         00000000     <absolute>
 0000:00000000       ___guard_iat_table         00000000     <absolute>
 0000:00000000       ___guard_longjmp_count     00000000     <absolute>
 0000:00000000       ___guard_longjmp_table     00000000     <absolute>
 0000:00000000       ___hybrid_auxiliary_delayload_iat 00000000     <absolute>
 0000:00000000       ___hybrid_auxiliary_delayload_iat_copy 00000000     <absolute>
 0000:00000000       ___hybrid_auxiliary_iat    00000000     <absolute>
 0000:00000000       ___hybrid_auxiliary_iat_copy 00000000     <absolute>
 0000:00000000       ___hybrid_code_map         00000000     <absolute>
 0000:00000000       ___hybrid_code_map_count   00000000     <absolute>
 0000:00000000       ___hybrid_image_info_bitfield 00000000     <absolute>
 0000:00000000       ___x64_code_ranges_to_entry_points 00000000     <absolute>
 0000:00000000       ___x64_code_ranges_to_entry_points_count 00000000     <absolute>
 0000:0000002c       __tls_array                0000002c     <absolute>
 0000:00000100       ___guard_flags             00000100     <absolute>
 0000:000001cb       ___safe_se_handler_count   000001cb     <absolute>
 0000:00000000       ___ImageBase               10000000     <linker-defined>
 0001:00000000       _lj_BC_ISLT                10001000 f   lua51:lj_vm.obj
 0001:00000000       _lj_vm_asm_begin           10001000     lua51:lj_vm.obj
 0001:00000041       _lj_BC_ISGE                10001041 f   lua51:lj_vm.obj
 0001:00000082       _lj_BC_ISLE                10001082 f   lua51:lj_vm.obj
 0001:000000c3       _lj_BC_ISGT                100010c3 f   lua51:lj_vm.obj
 0001:00000104       _lj_BC_ISEQV               10001104 f   lua51:lj_vm.obj
 0001:00000183       _lj_BC_ISNEV               10001183 f   lua51:lj_vm.obj
 0001:00000205       _lj_BC_ISEQS               10001205 f   lua51:lj_vm.obj
 0001:00000241       _lj_BC_ISNES               10001241 f   lua51:lj_vm.obj
 0001:0000027d       _lj_BC_ISEQN               1000127d f   lua51:lj_vm.obj
 0001:000002bd       _lj_BC_ISNEN               100012bd f   lua51:lj_vm.obj
 0001:000002fd       _lj_BC_ISEQP               100012fd f   lua51:lj_vm.obj
 0001:00000330       _lj_BC_ISNEP               10001330 f   lua51:lj_vm.obj
 0001:00000362       _lj_BC_ISTC                10001362 f   lua51:lj_vm.obj
 0001:00000394       _lj_BC_ISFC                10001394 f   lua51:lj_vm.obj
 0001:000003c6       _lj_BC_IST                 100013c6 f   lua51:lj_vm.obj
 0001:000003ee       _lj_BC_ISF                 100013ee f   lua51:lj_vm.obj
 0001:00000416       _lj_BC_MOV                 10001416 f   lua51:lj_vm.obj
 0001:00000435       _lj_BC_NOT                 10001435 f   lua51:lj_vm.obj
 0001:00000454       _lj_BC_UNM                 10001454 f   lua51:lj_vm.obj
 0001:00000478       _lj_BC_LEN                 10001478 f   lua51:lj_vm.obj
 0001:000004bc       _lj_BC_ADDVN               100014bc f   lua51:lj_vm.obj
 0001:000004e7       _lj_BC_SUBVN               100014e7 f   lua51:lj_vm.obj
 0001:00000512       _lj_BC_MULVN               10001512 f   lua51:lj_vm.obj
 0001:0000053d       _lj_BC_DIVVN               1000153d f   lua51:lj_vm.obj
 0001:00000568       _lj_BC_MODVN               10001568 f   lua51:lj_vm.obj
 0001:00000598       _lj_BC_ADDNV               10001598 f   lua51:lj_vm.obj
 0001:000005c3       _lj_BC_SUBNV               100015c3 f   lua51:lj_vm.obj
 0001:000005ee       _lj_BC_MULNV               100015ee f   lua51:lj_vm.obj
 0001:00000619       _lj_BC_DIVNV               10001619 f   lua51:lj_vm.obj
 0001:00000644       _lj_BC_MODNV               10001644 f   lua51:lj_vm.obj
 0001:00000660       _lj_BC_ADDVV               10001660 f   lua51:lj_vm.obj
 0001:00000696       _lj_BC_SUBVV               10001696 f   lua51:lj_vm.obj
 0001:000006cc       _lj_BC_MULVV               100016cc f   lua51:lj_vm.obj
 0001:00000702       _lj_BC_DIVVV               10001702 f   lua51:lj_vm.obj
 0001:00000738       _lj_BC_MODVV               10001738 f   lua51:lj_vm.obj
 0001:0000075f       _lj_BC_POW                 1000175f f   lua51:lj_vm.obj
 0001:0000079a       _lj_BC_CAT                 1000179a f   lua51:lj_vm.obj
 0001:000007f2       _lj_BC_KSTR                100017f2 f   lua51:lj_vm.obj
 0001:00000813       _lj_BC_KCDATA              10001813 f   lua51:lj_vm.obj
 0001:00000834       _lj_BC_KSHORT              10001834 f   lua51:lj_vm.obj
 0001:0000084b       _lj_BC_KNUM                1000184b f   lua51:lj_vm.obj
 0001:00000862       _lj_BC_KPRI                10001862 f   lua51:lj_vm.obj
 0001:00000879       _lj_BC_KNIL                10001879 f   lua51:lj_vm.obj
 0001:000008a3       _lj_BC_UGET                100018a3 f   lua51:lj_vm.obj
 0001:000008cb       _lj_BC_USETV               100018cb f   lua51:lj_vm.obj
 0001:0000091e       _lj_BC_USETS               1000191e f   lua51:lj_vm.obj
 0001:0000096c       _lj_BC_USETN               1000196c f   lua51:lj_vm.obj
 0001:0000098c       _lj_BC_USETP               1000198c f   lua51:lj_vm.obj
 0001:000009ac       _lj_BC_UCLO                100019ac f   lua51:lj_vm.obj
 0001:000009de       _lj_BC_FNEW                100019de f   lua51:lj_vm.obj
 0001:00000a24       _lj_BC_TNEW                10001a24 f   lua51:lj_vm.obj
 0001:00000a95       _lj_BC_TDUP                10001a95 f   lua51:lj_vm.obj
 0001:00000aec       _lj_BC_GGET                10001aec f   lua51:lj_vm.obj
 0001:00000afc       _lj_BC_GSET                10001afc f   lua51:lj_vm.obj
 0001:00000b0c       _lj_BC_TGETV               10001b0c f   lua51:lj_vm.obj
 0001:00000ba0       _lj_BC_TGETS               10001ba0 f   lua51:lj_vm.obj
 0001:00000c1e       _lj_BC_TGETB               10001c1e f   lua51:lj_vm.obj
 0001:00000c85       _lj_BC_TSETV               10001c85 f   lua51:lj_vm.obj
 0001:00000d30       _lj_BC_TSETS               10001d30 f   lua51:lj_vm.obj
 0001:00000e1f       _lj_BC_TSETB               10001e1f f   lua51:lj_vm.obj
 0001:00000e9d       _lj_BC_TSETM               10001e9d f   lua51:lj_vm.obj
 0001:00000f2b       _lj_BC_CALLM               10001f2b f   lua51:lj_vm.obj
 0001:00000f58       _lj_BC_CALL                10001f58 f   lua51:lj_vm.obj
 0001:00000f81       _lj_BC_CALLMT              10001f81 f   lua51:lj_vm.obj
 0001:00000f85       _lj_BC_CALLT               10001f85 f   lua51:lj_vm.obj
 0001:00001015       _lj_BC_ITERC               10002015 f   lua51:lj_vm.obj
 0001:00001060       _lj_BC_ITERN               10002060 f   lua51:lj_vm.obj
 0001:0000110a       _lj_BC_VARG                1000210a f   lua51:lj_vm.obj
 0001:000011c6       _lj_BC_ISNEXT              100021c6 f   lua51:lj_vm.obj
 0001:0000121d       _lj_BC_RETM                1000221d f   lua51:lj_vm.obj
 0001:00001221       _lj_BC_RET                 10002221 f   lua51:lj_vm.obj
 0001:000012a2       _lj_BC_RET0                100022a2 f   lua51:lj_vm.obj
 0001:000012f9       _lj_BC_RET1                100022f9 f   lua51:lj_vm.obj
 0001:00001362       _lj_BC_FORI                10002362 f   lua51:lj_vm.obj
 0001:000013af       _lj_BC_JFORI               100023af f   lua51:lj_vm.obj
 0001:00001404       _lj_BC_FORL                10002404 f   lua51:lj_vm.obj
 0001:00001417       _lj_BC_IFORL               10002417 f   lua51:lj_vm.obj
 0001:0000144e       _lj_BC_JFORL               1000244e f   lua51:lj_vm.obj
 0001:00001482       _lj_BC_ITERL               10002482 f   lua51:lj_vm.obj
 0001:00001495       _lj_BC_IITERL              10002495 f   lua51:lj_vm.obj
 0001:000014c0       _lj_BC_JITERL              100024c0 f   lua51:lj_vm.obj
 0001:000014e6       _lj_BC_LOOP                100024e6 f   lua51:lj_vm.obj
 0001:000014f9       _lj_BC_ILOOP               100024f9 f   lua51:lj_vm.obj
 0001:0000150a       _lj_BC_JLOOP               1000250a f   lua51:lj_vm.obj
 0001:00001528       _lj_BC_JMP                 10002528 f   lua51:lj_vm.obj
 0001:00001540       _lj_BC_FUNCF               10002540 f   lua51:lj_vm.obj
 0001:00001553       _lj_BC_IFUNCF              10002553 f   lua51:lj_vm.obj
 0001:00001590       _lj_BC_JFUNCF              10002590 f   lua51:lj_vm.obj
 0001:000015c5       _lj_BC_FUNCV               100025c5 f   lua51:lj_vm.obj
 0001:000015c5       _lj_BC_IFUNCV              100025c5 f   lua51:lj_vm.obj
 0001:0000163a       _lj_BC_JFUNCV              1000263a f   lua51:lj_vm.obj
 0001:0000163b       _lj_BC_FUNCC               1000263b f   lua51:lj_vm.obj
 0001:00001687       _lj_BC_FUNCCW              10002687 f   lua51:lj_vm.obj
 0001:000016db       _lj_vm_returnp             100026db f   lua51:lj_vm.obj
 0001:000016fb       _lj_vm_returnc             100026fb f   lua51:lj_vm.obj
 0001:00001714       _lj_vm_return              10002714 f   lua51:lj_vm.obj
 0001:00001763       _lj_vm_leave_cp            10002763 f   lua51:lj_vm.obj
 0001:0000176c       _lj_vm_leave_unw           1000276c f   lua51:lj_vm.obj
 0001:000017aa       _lj_vm_unwind_yield        100027aa f   lua51:lj_vm.obj
 0001:000017ae       @lj_vm_unwind_c@8          100027ae f   lua51:lj_vm.obj
 0001:000017b2       _lj_vm_unwind_c_eh         100027b2 f   lua51:lj_vm.obj
 0001:000017c5       @lj_vm_unwind_ff@4         100027c5 f   lua51:lj_vm.obj
 0001:000017c5       _lj_vm_unwind_rethrow      100027c5 f   lua51:lj_vm.obj
 0001:000017ca       _lj_vm_unwind_ff_eh        100027ca f   lua51:lj_vm.obj
 0001:000017fd       _lj_vm_growstack_c         100027fd f   lua51:lj_vm.obj
 0001:00001804       _lj_vm_growstack_v         10002804 f   lua51:lj_vm.obj
 0001:00001809       _lj_vm_growstack_f         10002809 f   lua51:lj_vm.obj
 0001:00001849       _lj_vm_resume              10002849 f   lua51:lj_vm.obj
 0001:000018b1       _lj_vm_pcall               100028b1 f   lua51:lj_vm.obj
 0001:000018bf       _lj_vm_call                100028bf f   lua51:lj_vm.obj
 0001:00001906       _lj_vm_call_dispatch       10002906 f   lua51:lj_vm.obj
 0001:00001913       _lj_vm_call_dispatch_f     10002913 f   lua51:lj_vm.obj
 0001:00001929       _lj_vm_cpcall              10002929 f   lua51:lj_vm.obj
 0001:00001981       _lj_cont_dispatch          10002981 f   lua51:lj_vm.obj
 0001:000019bd       _lj_cont_cat               100029bd f   lua51:lj_vm.obj
 0001:000019ec       _lj_vmeta_tgets            100029ec f   lua51:lj_vm.obj
 0001:00001a15       _lj_vmeta_tgetb            10002a15 f   lua51:lj_vm.obj
 0001:00001a2b       _lj_vmeta_tgetv            10002a2b f   lua51:lj_vm.obj
 0001:00001a5b       _lj_cont_ra                10002a5b f   lua51:lj_vm.obj
 0001:00001a94       _lj_vmeta_tsets            10002a94 f   lua51:lj_vm.obj
 0001:00001abd       _lj_vmeta_tsetb            10002abd f   lua51:lj_vm.obj
 0001:00001ad3       _lj_vmeta_tsetv            10002ad3 f   lua51:lj_vm.obj
 0001:00001b13       _lj_cont_nop               10002b13 f   lua51:lj_vm.obj
 0001:00001b4d       _lj_vmeta_comp             10002b4d f   lua51:lj_vm.obj
 0001:00001ba3       _lj_cont_condt             10002ba3 f   lua51:lj_vm.obj
 0001:00001bae       _lj_cont_condf             10002bae f   lua51:lj_vm.obj
 0001:00001bb4       _lj_vmeta_equal            10002bb4 f   lua51:lj_vm.obj
 0001:00001bd8       _lj_vmeta_equal_cd         10002bd8 f   lua51:lj_vm.obj
 0001:00001bf2       _lj_vmeta_arith_vn         10002bf2 f   lua51:lj_vm.obj
 0001:00001bf2       _lj_vmeta_arith_vno        10002bf2 f   lua51:lj_vm.obj
 0001:00001bf7       _lj_vmeta_arith_nv         10002bf7 f   lua51:lj_vm.obj
 0001:00001bf7       _lj_vmeta_arith_nvo        10002bf7 f   lua51:lj_vm.obj
 0001:00001c00       _lj_vmeta_unm              10002c00 f   lua51:lj_vm.obj
 0001:00001c07       _lj_vmeta_arith_vv         10002c07 f   lua51:lj_vm.obj
 0001:00001c07       _lj_vmeta_arith_vvo        10002c07 f   lua51:lj_vm.obj
 0001:00001c42       _lj_vmeta_binop            10002c42 f   lua51:lj_vm.obj
 0001:00001c56       _lj_vmeta_len              10002c56 f   lua51:lj_vm.obj
 0001:00001c70       _lj_vmeta_call_ra          10002c70 f   lua51:lj_vm.obj
 0001:00001c74       _lj_vmeta_call             10002c74 f   lua51:lj_vm.obj
 0001:00001ccc       _lj_vmeta_for              10002ccc f   lua51:lj_vm.obj
 0001:00001cf6       _lj_ff_assert              10002cf6 f   lua51:lj_vm.obj
 0001:00001d3d       _lj_ff_type                10002d3d f   lua51:lj_vm.obj
 0001:00001d6e       _lj_ff_getmetatable        10002d6e f   lua51:lj_vm.obj
 0001:00001dfc       _lj_ff_setmetatable        10002dfc f   lua51:lj_vm.obj
 0001:00001e56       _lj_ff_rawget              10002e56 f   lua51:lj_vm.obj
 0001:00001e99       _lj_ff_tonumber            10002e99 f   lua51:lj_vm.obj
 0001:00001eb3       _lj_ff_tostring            10002eb3 f   lua51:lj_vm.obj
 0001:00001f17       _lj_ff_next                10002f17 f   lua51:lj_vm.obj
 0001:00001f70       _lj_fff_res2               10002f70 f   lua51:lj_vm.obj
 0001:00001f8f       _lj_ff_pairs               10002f8f f   lua51:lj_vm.obj
 0001:00001fc8       _lj_ff_ipairs_aux          10002fc8 f   lua51:lj_vm.obj
 0001:00002031       _lj_fff_res0               10003031 f   lua51:lj_vm.obj
 0001:0000203b       _lj_ff_ipairs              1000303b f   lua51:lj_vm.obj
 0001:00002072       _lj_ff_pcall               10003072 f   lua51:lj_vm.obj
 0001:0000209a       _lj_ff_xpcall              1000309a f   lua51:lj_vm.obj
 0001:000020d1       _lj_ff_coroutine_resume    100030d1 f   lua51:lj_vm.obj
 0001:0000220d       _lj_ff_coroutine_wrap_aux  1000320d f   lua51:lj_vm.obj
 0001:00002312       _lj_ff_coroutine_yield     10003312 f   lua51:lj_vm.obj
 0001:0000233c       _lj_ff_math_abs            1000333c f   lua51:lj_vm.obj
 0001:0000233c       _lj_fff_resi               1000333c f   lua51:lj_vm.obj
 0001:00002353       _lj_fff_resn               10003353 f   lua51:lj_vm.obj
 0001:00002353       _lj_fff_resxmm0            10003353 f   lua51:lj_vm.obj
 0001:00002359       _lj_fff_res1               10003359 f   lua51:lj_vm.obj
 0001:0000235e       _lj_fff_res                1000335e f   lua51:lj_vm.obj
 0001:00002362       _lj_fff_res_               10003362 f   lua51:lj_vm.obj
 0001:000023a0       _lj_ff_math_floor          100033a0 f   lua51:lj_vm.obj
 0001:000023b3       _lj_ff_math_ceil           100033b3 f   lua51:lj_vm.obj
 0001:000023c6       _lj_ff_math_sqrt           100033c6 f   lua51:lj_vm.obj
 0001:000023e2       _lj_ff_math_log            100033e2 f   lua51:lj_vm.obj
 0001:00002400       _lj_ff_math_log10          10003400 f   lua51:lj_vm.obj
 0001:0000241e       _lj_ff_math_exp            1000341e f   lua51:lj_vm.obj
 0001:0000243d       _lj_ff_math_sin            1000343d f   lua51:lj_vm.obj
 0001:00002459       _lj_ff_math_cos            10003459 f   lua51:lj_vm.obj
 0001:00002475       _lj_ff_math_tan            10003475 f   lua51:lj_vm.obj
 0001:00002493       _lj_ff_math_asin           10003493 f   lua51:lj_vm.obj
 0001:000024b9       _lj_ff_math_acos           100034b9 f   lua51:lj_vm.obj
 0001:000024e1       _lj_ff_math_atan           100034e1 f   lua51:lj_vm.obj
 0001:000024ff       _lj_ff_math_sinh           100034ff f   lua51:lj_vm.obj
 0001:00002525       _lj_ff_math_cosh           10003525 f   lua51:lj_vm.obj
 0001:0000254b       _lj_ff_math_tanh           1000354b f   lua51:lj_vm.obj
 0001:00002571       _lj_ff_math_deg            10003571 f   lua51:lj_vm.obj
 0001:00002571       _lj_ff_math_rad            10003571 f   lua51:lj_vm.obj
 0001:00002591       _lj_ff_math_atan2          10003591 f   lua51:lj_vm.obj
 0001:000025ba       _lj_ff_math_ldexp          100035ba f   lua51:lj_vm.obj
 0001:000025e5       _lj_ff_math_frexp          100035e5 f   lua51:lj_vm.obj
 0001:0000266c       _lj_ff_math_modf           1000366c f   lua51:lj_vm.obj
 0001:000026c4       _lj_ff_math_fmod           100036c4 f   lua51:lj_vm.obj
 0001:000026f7       _lj_ff_math_pow            100036f7 f   lua51:lj_vm.obj
 0001:00002723       _lj_ff_math_min            10003723 f   lua51:lj_vm.obj
 0001:00002752       _lj_ff_math_max            10003752 f   lua51:lj_vm.obj
 0001:00002788       _lj_ff_string_len          10003788 f   lua51:lj_vm.obj
 0001:000027a5       _lj_ff_string_byte         100037a5 f   lua51:lj_vm.obj
 0001:000027d8       _lj_ff_string_char         100037d8 f   lua51:lj_vm.obj
 0001:0000281e       _lj_fff_newstr             1000381e f   lua51:lj_vm.obj
 0001:0000284a       _lj_ff_string_sub          1000384a f   lua51:lj_vm.obj
 0001:000028eb       _lj_fff_emptystr           100038eb f   lua51:lj_vm.obj
 0001:000028ef       _lj_ff_string_rep          100038ef f   lua51:lj_vm.obj
 0001:0000296c       _lj_ff_string_reverse      1000396c f   lua51:lj_vm.obj
 0001:000029d6       _lj_ff_string_lower        100039d6 f   lua51:lj_vm.obj
 0001:00002a45       _lj_ff_string_upper        10003a45 f   lua51:lj_vm.obj
 0001:00002ab4       _lj_ff_table_getn          10003ab4 f   lua51:lj_vm.obj
 0001:00002add       _lj_ff_bit_tobit           10003add f   lua51:lj_vm.obj
 0001:00002b09       _lj_ff_bit_band            10003b09 f   lua51:lj_vm.obj
 0001:00002b5b       _lj_ff_bit_bor             10003b5b f   lua51:lj_vm.obj
 0001:00002bad       _lj_ff_bit_bxor            10003bad f   lua51:lj_vm.obj
 0001:00002bf7       _lj_ff_bit_bswap           10003bf7 f   lua51:lj_vm.obj
 0001:00002c22       _lj_ff_bit_bnot            10003c22 f   lua51:lj_vm.obj
 0001:00002c4b       _lj_fff_resbit             10003c4b f   lua51:lj_vm.obj
 0001:00002c56       _lj_fff_fallback_bit_op    10003c56 f   lua51:lj_vm.obj
 0001:00002c5f       _lj_ff_bit_lshift          10003c5f f   lua51:lj_vm.obj
 0001:00002ca3       _lj_ff_bit_rshift          10003ca3 f   lua51:lj_vm.obj
 0001:00002cea       _lj_ff_bit_arshift         10003cea f   lua51:lj_vm.obj
 0001:00002d31       _lj_ff_bit_rol             10003d31 f   lua51:lj_vm.obj
 0001:00002d78       _lj_ff_bit_ror             10003d78 f   lua51:lj_vm.obj
 0001:00002db3       _lj_fff_fallback_2         10003db3 f   lua51:lj_vm.obj
 0001:00002dba       _lj_fff_fallback_1         10003dba f   lua51:lj_vm.obj
 0001:00002dbf       _lj_fff_fallback           10003dbf f   lua51:lj_vm.obj
 0001:00002e16       _lj_vm_call_tail           10003e16 f   lua51:lj_vm.obj
 0001:00002e4d       _lj_fff_gcstep             10003e4d f   lua51:lj_vm.obj
 0001:00002e7f       _lj_vm_record              10003e7f f   lua51:lj_vm.obj
 0001:00002e9a       _lj_vm_rethook             10003e9a f   lua51:lj_vm.obj
 0001:00002ea7       _lj_vm_inshook             10003ea7 f   lua51:lj_vm.obj
 0001:00002ee8       _lj_cont_hook              10003ee8 f   lua51:lj_vm.obj
 0001:00002ef4       _lj_vm_hotloop             10003ef4 f   lua51:lj_vm.obj
 0001:00002f24       _lj_vm_callhook            10003f24 f   lua51:lj_vm.obj
 0001:00002f2a       _lj_vm_hotcall             10003f2a f   lua51:lj_vm.obj
 0001:00002f6b       _lj_vm_exit_handler        10003f6b f   lua51:lj_vm.obj
 0001:0000300b       _lj_vm_exit_interp         1000400b f   lua51:lj_vm.obj
 0001:00003055       _lj_vm_floor               10004055 f   lua51:lj_vm.obj
 0001:0000307e       _lj_vm_floor_sse           1000407e f   lua51:lj_vm.obj
 0001:000030d5       _lj_vm_ceil                100040d5 f   lua51:lj_vm.obj
 0001:000030fe       _lj_vm_ceil_sse            100040fe f   lua51:lj_vm.obj
 0001:00003155       _lj_vm_trunc               10004155 f   lua51:lj_vm.obj
 0001:0000317a       _lj_vm_trunc_sse           1000417a f   lua51:lj_vm.obj
 0001:000031d4       _lj_vm_mod                 100041d4 f   lua51:lj_vm.obj
 0001:000031fd       _lj_vm_log2                100041fd f   lua51:lj_vm.obj
 0001:00003206       _lj_vm_exp_x87             10004206 f   lua51:lj_vm.obj
 0001:0000320a       _lj_vm_exp2_x87            1000420a f   lua51:lj_vm.obj
 0001:00003222       _lj_vm_exp2raw             10004222 f   lua51:lj_vm.obj
 0001:0000323a       _lj_vm_pow                 1000423a f   lua51:lj_vm.obj
 0001:0000330b       _lj_vm_pow_sse             1000430b f   lua51:lj_vm.obj
 0001:00003323       _lj_vm_powi_sse            10004323 f   lua51:lj_vm.obj
 0001:0000345c       _lj_vm_foldfpm             1000445c f   lua51:lj_vm.obj
 0001:000034c6       _lj_vm_foldarith           100044c6 f   lua51:lj_vm.obj
 0001:00003533       _lj_vm_cpuid               10004533 f   lua51:lj_vm.obj
 0001:00003561       _lj_assert_bad_for_arg_type 10004561 f   lua51:lj_vm.obj
 0001:00003562       _lj_vm_ffi_callback        10004562 f   lua51:lj_vm.obj
 0001:000035d9       _lj_cont_ffi_callback      100045d9 f   lua51:lj_vm.obj
 0001:0000362a       @lj_vm_ffi_call@4          1000462a f   lua51:lj_vm.obj
 0001:00006000       ??1?$basic_string@DU?$char_traits@D@std@@V?$allocator@D@2@@std@@QAE@XZ 10007000 f i worker.obj
 0001:00006000       ??1flags_data_t@c_player_esp@hacks@nem@@QAE@XZ 10007000 f i visuals.obj
 0001:00006010       ??0?$basic_string@DU?$char_traits@D@std@@V?$allocator@D@2@@std@@QAE@XZ 10007010 f i worker.obj
 0001:00006030       ?_Tidy_deallocate@?$basic_string@DU?$char_traits@D@std@@V?$allocator@D@2@@std@@AAEXXZ 10007030 f i worker.obj
 0001:00006090       ??0?$_String_val@U?$_Simple_types@D@std@@@std@@QAE@XZ 10007090 f i worker.obj
 0001:000060b0       ?_Deallocate_for_capacity@?$basic_string@DU?$char_traits@D@std@@V?$allocator@D@2@@std@@CAXAAV?$allocator@D@2@QADI@Z 100070b0 f i worker.obj
 0001:000060f0       ??$_Deallocate@$07@std@@YAXPAXI@Z 100070f0 f i worker.obj
 0001:00006130       ___local_stdio_printf_options 10007130 f i context.obj
 0001:00006140       __vfprintf_l               10007140 f i context.obj
 0001:00006170       _fprintf                   10007170 f i context.obj
 0001:000061a0       __vsprintf_s_l             100071a0 f i context.obj
 0001:000061e0       _vsprintf_s                100071e0 f i context.obj
 0001:00006200       ?what@exception@stdext@@UBEPBDXZ 10007200 f i context.obj
 0001:00006210       ?_Raise@exception@stdext@@QBEXXZ 10007210 f i context.obj
 0001:00006240       ??3@YAXPAXUImNewDummy@@0@Z 10007240 f i imgui.obj
 0001:00006240       ?_Destroy@?$_Ref_count_obj2@Ulag_record_t@hacks@nem@@@std@@EAEXXZ 10007240 f i aim_bot.obj
 0001:00006240       ?_Doraise@exception@stdext@@MBEXXZ 10007240 f i context.obj
 0001:00006240       ?__empty_global_delete@@YAXPAXI@Z 10007240 f i msvcprt:locale0_implib.obj
 0001:00006240       ?__global_delete@@YAXPAXI@Z 10007240 f i msvcprt:locale0_implib.obj
 0001:00006240       ?unk@base_event_listener_t@valve@nem@@UAEXXZ 10007240 f i context.obj
 0001:00006240       @_guard_check_icall_nop@4  10007240 f i MSVCRT:guard_support.obj
 0001:00006240       _lj_mcode_sync             10007240 f i lua51:lj_mcode.obj
 0001:00006250       ??_Ebad_array_new_length@stdext@@UAEPAXI@Z 10007250 f i * CIL library *:* CIL module *
 0001:00006250       ??_Ebad_optional_access@std@@UAEPAXI@Z 10007250 f i * CIL library *:* CIL module *
 0001:00006250       ??_Ebad_variant_access@std@@UAEPAXI@Z 10007250 f i * CIL library *:* CIL module *
 0001:00006250       ??_Eexception@stdext@@UAEPAXI@Z 10007250 f i * CIL library *:* CIL module *
 0001:00006250       ??_Eformat_error@std@@UAEPAXI@Z 10007250 f i * CIL library *:* CIL module *
 0001:00006250       ??_Eruntime_error@std@@UAEPAXI@Z 10007250 f i * CIL library *:* CIL module *
 0001:00006250       ??_Gbad_array_new_length@stdext@@UAEPAXI@Z 10007250 f i context.obj
 0001:00006250       ??_Gbad_optional_access@std@@UAEPAXI@Z 10007250 f i aim_bot.obj
 0001:00006250       ??_Gbad_variant_access@std@@UAEPAXI@Z 10007250 f i lua.obj
 0001:00006250       ??_Gexception@stdext@@UAEPAXI@Z 10007250 f i context.obj
 0001:00006250       ??_Gformat_error@std@@UAEPAXI@Z 10007250 f i shots.obj
 0001:00006250       ??_Gruntime_error@std@@UAEPAXI@Z 10007250 f i cfg.obj
 0001:00006280       ??R?$_Arg_formatter@V?$back_insert_iterator@V?$_Fmt_buffer@D@std@@@std@@D@std@@QAE?AV?$back_insert_iterator@V?$_Fmt_buffer@D@std@@@1@Vhandle@?$basic_format_arg@V?$basic_format_context@V?$back_insert_iterator@V?$_Fmt_buffer@D@std@@@std@@D@std@@@1@@Z 10007280 f i shots.obj
 0001:00006280       ?_Doraise@bad_alloc@stdext@@MBEXXZ 10007280 f i context.obj
 0001:00006280       ?_Doraise@bad_optional_access@std@@MBEXXZ 10007280 f i aim_bot.obj
 0001:00006280       ?_Doraise@bad_variant_access@std@@MBEXXZ 10007280 f i lua.obj
 0001:00006280       ?_Doraise@filesystem_error@filesystem@std@@MBEXXZ 10007280 f i cfg.obj
 0001:00006280       ?_Doraise@runtime_error@std@@MBEXXZ 10007280 f i cfg.obj
 0001:00006280       ?_Doraise@system_error@std@@MBEXXZ 10007280 f i cfg.obj
 0001:000062a0       ??0bad_array_new_length@stdext@@QAE@XZ 100072a0 f i context.obj
 0001:000062b0       ??1bad_array_new_length@stdext@@UAE@XZ 100072b0 f i context.obj
 0001:000062b0       ??1bad_optional_access@std@@UAE@XZ 100072b0 f i aim_bot.obj
 0001:000062b0       ??1bad_variant_access@std@@UAE@XZ 100072b0 f i lua.obj
 0001:000062b0       ??1format_error@std@@UAE@XZ 100072b0 f i shots.obj
 0001:000062b0       ??1system_error@std@@UAE@XZ 100072b0 f i cfg.obj
 0001:000062c0       ?get_one@?$unqualified_getter@V?$variant@UImVec3@@HM@std@@X@stack@sol@@SA?AV?$variant@UImVec3@@HM@std@@U?$integral_constant@I$02@5@PAUlua_State@@HAAUrecord@23@@Z 100072c0 f i lua.obj
 0001:000062c0       ?terminate@std@@YAXXZ      100072c0 f i context.obj
 0001:000062d0       ?_Throw_bad_array_new_length@std@@YAXXZ 100072d0 f i context.obj
 0001:00006310       ?now@steady_clock@chrono@std@@SA?AV?$time_point@Usteady_clock@chrono@std@@V?$duration@_JU?$ratio@$00$0DLJKMKAA@@std@@@23@@23@XZ 10007310 f i context.obj
 0001:00006410       ??1stop_token@std@@QAE@XZ  10007410 f i context.obj
 0001:00006430       ??1stop_source@std@@QAE@XZ 10007430 f i context.obj
 0001:00006470       ?request_stop@stop_source@std@@QAE_NXZ 10007470 f i context.obj
 0001:000065c0       ??1thread@std@@QAE@XZ      100075c0 f i context.obj
 0001:000065d0       ??1jthread@std@@QAE@XZ     100075d0 f i context.obj
 0001:000066b0       ?hardware_concurrency@jthread@std@@SAIXZ 100076b0 f i context.obj
 0001:000066c0       ?_Xlen_string@std@@YAXXZ   100076c0 f i context.obj
 0001:000066d0       ??1locale@std@@QAE@XZ      100076d0 f i context.obj
 0001:000066f0       ??1?$_Func_class@XPAVC_Animation@@@std@@QAE@XZ 100076f0 f i context.obj
 0001:000066f0       ??1?$_Func_class@_NHW4parse_event_t@detail@nlohmann@@AAV?$basic_json@Vmap@std@@Vvector@2@V?$basic_string@DU?$char_traits@D@std@@V?$allocator@D@2@@2@_N_J_KNVallocator@2@Uadl_serializer@nlohmann@@V?$vector@EV?$allocator@E@std@@@2@@3@@std@@QAE@XZ 100076f0 f i cfg.obj
 0001:000066f0       ??1?$function@$$A6AXPAVC_Animation@@@Z@std@@QAE@XZ 100076f0 f i context.obj
 0001:000066f0       ??1?$function@$$A6AXXZ@std@@QAE@XZ 100076f0 f i context.obj
 0001:000066f0       ??1?$function@$$A6A_NHW4parse_event_t@detail@nlohmann@@AAV?$basic_json@Vmap@std@@Vvector@2@V?$basic_string@DU?$char_traits@D@std@@V?$allocator@D@2@@2@_N_J_KNVallocator@2@Uadl_serializer@nlohmann@@V?$vector@EV?$allocator@E@std@@@2@@3@@Z@std@@QAE@XZ 100076f0 f i cfg.obj
 0001:00006720       ?_Throw_tree_length_error@std@@YAXXZ 10007720 f i context.obj
 0001:00006730       ??0ImVec2@@QAE@MM@Z        10007730 f i context.obj
 0001:00006740       ??1ImDrawListSplitter@@QAE@XZ 10007740 f i context.obj
 0001:000067a0       ??0ImDrawList@@QAE@PBUImDrawListSharedData@@@Z 100077a0 f i context.obj
 0001:00006890       ??1ImDrawList@@QAE@XZ      10007890 f i context.obj
 0001:000069a0       ??0col_t@@QAE@HHHH@Z       100079a0 f i context.obj
 0001:000069d0       ?r@col_t@@QBEHXZ           100079d0 f i context.obj
 0001:000069e0       ?g@col_t@@QBEHXZ           100079e0 f i context.obj
 0001:000069f0       ?b@col_t@@QBEHXZ           100079f0 f i context.obj
 0001:00006a00       ?a@col_t@@QBEHXZ           10007a00 f i context.obj
 0001:00006df0       ??0?$basic_string@DU?$char_traits@D@std@@V?$allocator@D@2@@std@@QAE@QBD@Z 10007df0 f i context.obj
 0001:00006e30       ??$_Construct@$00PBD@?$basic_string@DU?$char_traits@D@std@@V?$allocator@D@2@@std@@AAEXQBDI@Z 10007e30 f i context.obj
 0001:00006ec0       ??$_Allocate_for_capacity@$0A@@?$basic_string@DU?$char_traits@D@std@@V?$allocator@D@2@@std@@CAPADAAV?$allocator@D@1@AAI@Z 10007ec0 f i context.obj
 0001:00006f20       ?default_exception_handler@detail@sol@@YAHPAUlua_State@@V?$optional@ABVexception@stdext@@@2@V?$basic_string_view@DU?$char_traits@D@std@@@std@@@Z 10007f20 f i context.obj
 0001:00006f60       ?c_trampoline@detail@sol@@YAHPAUlua_State@@P6AH0@Z@Z 10007f60 f i context.obj
 0001:00006fa0       ?no_panic@sol@@YAHPAUlua_State@@HW4type@1@1PBD@Z 10007fa0 f i context.obj
 0001:00006fa0       ___scrt_stub_for_is_c_termination_complete 10007fa0 f i MSVCRT:ucrt_stubs.obj
 0001:00006fa0       __is_c_termination_complete 10007fa0 f i MSVCRT:ucrt_stubs.obj
 0001:00006fb0       ??1?$basic_function@V?$basic_reference@$0A@@sol@@$0A@@sol@@QAE@XZ 10007fb0 f i lua.obj
 0001:00006fb0       ??1?$basic_reference@$0A@@sol@@QAE@XZ 10007fb0 f i context.obj
 0001:00006fb0       ??1?$basic_table_core@$0A@V?$basic_reference@$0A@@sol@@@sol@@QAE@XZ 10007fb0 f i context.obj
 0001:00006fb0       ??1?$basic_usertype@UImVec3@@V?$basic_reference@$0A@@sol@@@sol@@QAE@XZ 10007fb0 f i lua.obj
 0001:00006fb0       ??1?$basic_usertype@Ucol_t@@V?$basic_reference@$0A@@sol@@@sol@@QAE@XZ 10007fb0 f i lua.obj
 0001:00006fb0       ??1?$basic_usertype@Ucvar_t@valve@nem@@V?$basic_reference@$0A@@sol@@@sol@@QAE@XZ 10007fb0 f i lua.obj
 0001:00006fb0       ??1?$basic_usertype@Ulua_user_cmd_t@nem@@V?$basic_reference@$0A@@sol@@@sol@@QAE@XZ 10007fb0 f i lua.obj
 0001:00006fd0       ?default_at_panic@sol@@YAHPAUlua_State@@@Z 10007fd0 f i context.obj
 0001:00006fe0       ?default_traceback_error_handler@sol@@YAHPAUlua_State@@@Z 10007fe0 f i context.obj
 0001:000071a0       ??0state@sol@@QAE@P6AHPAUlua_State@@@Z@Z 100081a0 f i context.obj
 0001:00007360       ??1state@sol@@QAE@XZ       10008360 f i context.obj
 0001:000073b0       ?debug_event_id@base_event_listener_t@valve@nem@@UAEHXZ 100083b0 f i context.obj
 0001:000073c0       ??Ivalve@nem@@YA?AW4e_ent_flags@01@W4201@0@Z 100083c0 f i context.obj
 0001:000073d0       ??1?$basic_protected_function@V?$basic_reference@$0A@@sol@@$0A@V12@@sol@@QAE@XZ 100083d0 f i context.obj
 0001:000073d0       ??1lua_reference_func@u_detail@sol@@QAE@XZ 100083d0 f i lua.obj
 0001:00007410       ??1?$_Optional_construct_base@V?$basic_string@DU?$char_traits@D@std@@V?$allocator@D@2@@std@@@std@@QAE@XZ 10008410 f i context.obj
 0001:00007410       ??1?$optional@V?$basic_string@DU?$char_traits@D@std@@V?$allocator@D@2@@std@@@std@@QAE@XZ 10008410 f i context.obj
 0001:00007420       ??1C_Var@@QAE@XZ           10008420 f i context.obj
 0001:00007430       ??0C_Nl@@QAE@XZ            10008430 f i context.obj
 0001:00007910       ??1?$map@IV?$function@$$A6AXPAVC_Element@@@Z@std@@U?$less@I@2@V?$allocator@U?$pair@$$CBIV?$function@$$A6AXPAVC_Element@@@Z@std@@@std@@@2@@std@@QAE@XZ 10008910 f i context.obj
 0001:00007930       ??0C_Keybinds@@QAE@XZ      10008930 f i context.obj
 0001:00007d10       ??0C_Element@@QAE@XZ       10008d10 f i context.obj
 0001:00007d60       ??1C_Element@@QAE@XZ       10008d60 f i context.obj
 0001:00007d90       ??1?$_Tree@V?$_Tmap_traits@IVC_Var@@U?$less@I@std@@V?$allocator@U?$pair@$$CBIVC_Var@@@std@@@3@$0A@@std@@@std@@QAE@XZ 10008d90 f i context.obj
 0001:00007d90       ??1?$map@IVC_Var@@U?$less@I@std@@V?$allocator@U?$pair@$$CBIVC_Var@@@std@@@3@@std@@QAE@XZ 10008d90 f i context.obj
 0001:00007db0       ??1?$map@IVC_KeybindInfo@@U?$less@I@std@@V?$allocator@U?$pair@$$CBIVC_KeybindInfo@@@std@@@3@@std@@QAE@XZ 10008db0 f i context.obj
 0001:00007dc0       ??_H@YGXPAXIIP6EPAX0@Z@Z   10008dc0 f i context.obj
 0001:00007df0       ??1aim_last_target_t@hacks@nem@@QAE@XZ 10008df0 f i context.obj
 0001:00007df0       ??1aim_record_t@hacks@nem@@QAE@XZ 10008df0 f i aim_bot.obj
 0001:00007e20       ??0s_shape@hacks@nem@@QAE@XZ 10008e20 f i context.obj
 0001:00007f00       ??0glove_data_t@c_skins@hacks@nem@@QAE@XZ 10008f00 f i context.obj
 0001:00007f40       _DllMain@12                10008f40 f   context.obj
 0001:000080a0       ?find_byte_seq@@YAIABUcode_section_t@nem@@ABV?$basic_string@DU?$char_traits@D@std@@V?$allocator@D@2@@std@@@Z 100090a0 f   context.obj
 0001:00008410       ??_D?$basic_stringstream@DU?$char_traits@D@std@@V?$allocator@D@2@@std@@QAEXXZ 10009410 f i context.obj
 0001:00008460       ?init@c_context@nem@@QAEXXZ 10009460 f   context.obj
 0001:0000c830       ??0type_description_t@valve@nem@@QAE@XZ 1000d830 f i context.obj
 0001:0000c870       ?will_shoot@c_context@nem@@QBE_NQAVc_weapon@valve@2@ABUuser_cmd_t@42@@Z 1000d870 f   context.obj
 0001:0000ccb0       ?can_shoot@c_context@nem@@QBE_NQAVc_weapon@valve@2@ABUuser_cmd_t@42@_NH_N@Z 1000dcb0 f   context.obj
 0001:0000db70       ?add_packet@c_context@nem@@QAEXH@Z 1000eb70 f   context.obj
 0001:0000dc00       ??$use_facet@V?$ctype@D@std@@@std@@YAABV?$ctype@D@0@ABVlocale@0@@Z 1000ec00 f i context.obj
 0001:0000dd10       ??$?8DU?$char_traits@D@std@@V?$allocator@D@1@@std@@YA_NABV?$basic_string@DU?$char_traits@D@std@@V?$allocator@D@2@@0@QBD@Z 1000ed10 f i context.obj
 0001:0000dd50       ??$?0A6AXVstop_token@std@@@Z$$V@jthread@std@@QAE@A6AXVstop_token@1@@Z@Z 1000ed50 f i context.obj
 0001:0000de30       ??$c_call@P6AHPAUlua_State@@@Z$1?default_traceback_error_handler@sol@@YAH0@Z@sol@@YAHPAUlua_State@@@Z 1000ee30 f i context.obj
 0001:0000de40       ??$__builtin_array_init_helper@Umat3x4_t@@@@YAXPAUmat3x4_t@@I@Z 1000ee40 f i context.obj
 0001:0000de60       ??$__builtin_array_init_helper@Uanim_layer_t@valve@nem@@@@YAXPAUanim_layer_t@valve@nem@@I@Z 1000ee60 f i context.obj
 0001:0000dee0       ??$__builtin_array_init_helper@UImVec3@@@@YAXPAUImVec3@@I@Z 1000eee0 f i context.obj
 0001:0000df10       ??$?0_N$0A@@?$atomic@_N@std@@QAE@XZ 1000ef10 f i context.obj
 0001:0000df20       ??$?5DU?$char_traits@D@std@@V?$allocator@D@1@@std@@YAAAV?$basic_istream@DU?$char_traits@D@std@@@0@AAV10@AAV?$basic_string@DU?$char_traits@D@std@@V?$allocator@D@2@@0@@Z 1000ef20 f i context.obj
 0001:0000e0c0       ??$?0H$0A@@?$duration@_JU?$ratio@$00$0DOI@@std@@@chrono@std@@QAE@ABH@Z 1000f0c0 f i context.obj
 0001:0000e0e0       ??$sleep_for@_JU?$ratio@$00$0DOI@@std@@@this_thread@std@@YAXABV?$duration@_JU?$ratio@$00$0DOI@@std@@@chrono@1@@Z 1000f0e0 f i context.obj
 0001:0000e280       ??$make_unique@UImDrawList@@PAUImDrawListSharedData@@$0A@@std@@YA?AV?$unique_ptr@UImDrawList@@U?$default_delete@UImDrawList@@@std@@@0@$$QAPAUImDrawListSharedData@@@Z 1000f280 f i context.obj
 0001:0000e2e0       ??$?4UImDrawList@@U?$default_delete@UImDrawList@@@std@@$0A@@?$shared_ptr@UImDrawList@@@std@@QAEAAV01@$$QAV?$unique_ptr@UImDrawList@@U?$default_delete@UImDrawList@@@std@@@1@@Z 1000f2e0 f i context.obj
 0001:0000e370       ??$get_interface@Uengine_sound_t@valve@nem@@@nem@@YAPAUengine_sound_t@valve@0@V?$basic_string@DU?$char_traits@D@std@@V?$allocator@D@2@@std@@0_N@Z 1000f370 f i context.obj
 0001:0000e370       ??$get_interface@Vc_effects@valve@nem@@@nem@@YAPAVc_effects@valve@0@V?$basic_string@DU?$char_traits@D@std@@V?$allocator@D@2@@std@@0_N@Z 1000f370 f i context.obj
 0001:0000e370       ??$get_interface@Vc_panel@valve@nem@@@nem@@YAPAVc_panel@valve@0@V?$basic_string@DU?$char_traits@D@std@@V?$allocator@D@2@@std@@0_N@Z 1000f370 f i context.obj
 0001:0000e370       ??$get_interface@Vrender_view_t@valve@nem@@@nem@@YAPAVrender_view_t@valve@0@V?$basic_string@DU?$char_traits@D@std@@V?$allocator@D@2@@std@@0_N@Z 1000f370 f i context.obj
 0001:0000e4a0       ??$emplace_back@ABQAUdata_map_t@valve@nem@@@?$vector@PAUdata_map_t@valve@nem@@V?$allocator@PAUdata_map_t@valve@nem@@@std@@@std@@QAEAAPAUdata_map_t@valve@nem@@ABQAU234@@Z 1000f4a0 f i context.obj
 0001:0000e4a0       ??$emplace_back@ABQAVc_weapon@valve@nem@@@?$vector@PAVc_weapon@valve@nem@@V?$allocator@PAVc_weapon@valve@nem@@@std@@@std@@QAEAAPAVc_weapon@valve@nem@@ABQAV234@@Z 1000f4a0 f i skins.obj
 0001:0000e4d0       ?save@?$cfg_var_t@Ucfg_t@c_aim_bot@hacks@nem@@@sdk@@UBEXAAV?$basic_json@Vmap@std@@Vvector@2@V?$basic_string@DU?$char_traits@D@std@@V?$allocator@D@2@@2@_N_J_KNVallocator@2@Uadl_serializer@nlohmann@@V?$vector@EV?$allocator@E@std@@@2@@nlohmann@@@Z 1000f4d0 f i context.obj
 0001:0000e580       ?load@?$cfg_var_t@Ucfg_t@c_aim_bot@hacks@nem@@@sdk@@UAEXABV?$basic_json@Vmap@std@@Vvector@2@V?$basic_string@DU?$char_traits@D@std@@V?$allocator@D@2@@2@_N_J_KNVallocator@2@Uadl_serializer@nlohmann@@V?$vector@EV?$allocator@E@std@@@2@@nlohmann@@@Z 1000f580 f i context.obj
 0001:0000e740       ??1?$unique_ptr@UImDrawList@@U?$default_delete@UImDrawList@@@std@@@std@@QAE@XZ 1000f740 f i context.obj
 0001:0000e760       ??1?$vector@U?$pair@E_N@std@@V?$allocator@U?$pair@E_N@std@@@2@@std@@QAE@XZ 1000f760 f i context.obj
 0001:0000e7c0       ??1?$unique_ptr@Vc_skins@hacks@nem@@U?$default_delete@Vc_skins@hacks@nem@@@std@@@std@@QAE@XZ 1000f7c0 f i context.obj
 0001:0000e870       ??C?$unique_ptr@Vc_visuals@hacks@nem@@U?$default_delete@Vc_visuals@hacks@nem@@@std@@@std@@QBEPAVc_visuals@hacks@nem@@XZ 1000f870 f i context.obj
 0001:0000e880       ??1?$unique_ptr@Vc_visuals@hacks@nem@@U?$default_delete@Vc_visuals@hacks@nem@@@std@@@std@@QAE@XZ 1000f880 f i context.obj
 0001:0000e940       ??1?$vector@UImVec3@@V?$allocator@UImVec3@@@std@@@std@@QAE@XZ 1000f940 f i context.obj
 0001:0000e950       ??1?$vector@PAVc_entity@valve@nem@@V?$allocator@PAVc_entity@valve@nem@@@std@@@std@@QAE@XZ 1000f950 f i context.obj
 0001:0000e950       ??1?$vector@_NV?$allocator@_N@std@@@std@@QAE@XZ 1000f950 f i cfg.obj
 0001:0000e960       ??1?$vector@U?$pair@UImVec3@@_N@std@@V?$allocator@U?$pair@UImVec3@@_N@std@@@2@@std@@QAE@XZ 1000f960 f i context.obj
 0001:0000e970       ??C?$unique_ptr@Vc_shots@hacks@nem@@U?$default_delete@Vc_shots@hacks@nem@@@std@@@std@@QBEPAVc_shots@hacks@nem@@XZ 1000f970 f i context.obj
 0001:0000e980       ??1?$unique_ptr@Vc_aim_bot@hacks@nem@@U?$default_delete@Vc_aim_bot@hacks@nem@@@std@@@std@@QAE@XZ 1000f980 f i context.obj
 0001:0000ea20       ??1?$vector@Uaim_point_t@hacks@nem@@V?$allocator@Uaim_point_t@hacks@nem@@@std@@@std@@QAE@XZ 1000fa20 f i context.obj
 0001:0000ea30       ??1?$output_adapter@DV?$basic_string@DU?$char_traits@D@std@@V?$allocator@D@2@@std@@@detail@nlohmann@@QAE@XZ 1000fa30 f i cfg.obj
 0001:0000ea30       ??1?$shared_ptr@U?$output_adapter_protocol@D@detail@nlohmann@@@std@@QAE@XZ 1000fa30 f i cfg.obj
 0001:0000ea30       ??1?$shared_ptr@U_Recursive_dir_enum_impl@filesystem@std@@@std@@QAE@XZ 1000fa30 f i LuaBlock.obj
 0001:0000ea30       ??1?$shared_ptr@Ulag_record_t@hacks@nem@@@std@@QAE@XZ 1000fa30 f i context.obj
 0001:0000ea30       ??1recursive_directory_iterator@filesystem@std@@QAE@XZ 1000fa30 f i LuaBlock.obj
 0001:0000ea60       ??C?$unique_ptr@Vc_menu@nem@@U?$default_delete@Vc_menu@nem@@@std@@@std@@QBEPAVc_menu@nem@@XZ 1000fa60 f i context.obj
 0001:0000ea70       ??1?$_Tree@V?$_Tmap_traits@IVC_KeybindInfo@@U?$less@I@std@@V?$allocator@U?$pair@$$CBIVC_KeybindInfo@@@std@@@3@$0A@@std@@@std@@QAE@XZ 1000fa70 f i context.obj
 0001:0000eac0       ??1?$vector@VC_KeybindKeyInfo@@V?$allocator@VC_KeybindKeyInfo@@@std@@@std@@QAE@XZ 1000fac0 f i context.obj
 0001:0000ead0       ??0?$map@IVC_Var@@U?$less@I@std@@V?$allocator@U?$pair@$$CBIVC_Var@@@std@@@3@@std@@QAE@XZ 1000fad0 f i context.obj
 0001:0000eb10       ??C?$unique_ptr@Vc_lua@nem@@U?$default_delete@Vc_lua@nem@@@std@@@std@@QBEPAVc_lua@nem@@XZ 1000fb10 f i context.obj
 0001:0000eb20       ??1?$unique_ptr@Vc_lua@nem@@U?$default_delete@Vc_lua@nem@@@std@@@std@@QAE@XZ 1000fb20 f i context.obj
 0001:0000ebb0       ??C?$unique_ptr@Vc_net_vars@valve@nem@@U?$default_delete@Vc_net_vars@valve@nem@@@std@@@std@@QBEPAVc_net_vars@valve@nem@@XZ 1000fbb0 f i context.obj
 0001:0000ebc0       ?empty@?$vector@PAUdata_map_t@valve@nem@@V?$allocator@PAUdata_map_t@valve@nem@@@std@@@std@@QBE_NXZ 1000fbc0 f i context.obj
 0001:0000ebd0       ?_Unchecked_end@?$vector@PAUdata_map_t@valve@nem@@V?$allocator@PAUdata_map_t@valve@nem@@@std@@@std@@QAEPAPAUdata_map_t@valve@nem@@XZ 1000fbd0 f i context.obj
 0001:0000ebe0       ??C?$unique_ptr@Vc_aim_bot@hacks@nem@@U?$default_delete@Vc_aim_bot@hacks@nem@@@std@@@std@@QBEPAVc_aim_bot@hacks@nem@@XZ 1000fbe0 f i aim_bot.obj
 0001:0000ebe0       ?_Unchecked_begin@?$vector@PAUdata_map_t@valve@nem@@V?$allocator@PAUdata_map_t@valve@nem@@@std@@@std@@QAEPAPAUdata_map_t@valve@nem@@XZ 1000fbe0 f i context.obj
 0001:0000ebf0       ??1?$vector@HV?$allocator@H@std@@@std@@QAE@XZ 1000fbf0 f i context.obj
 0001:0000ebf0       ??1?$vector@IV?$allocator@I@std@@@std@@QAE@XZ 1000fbf0 f i cfg.obj
 0001:0000ebf0       ??1?$vector@PAUbase_cfg_var_t@detail@sdk@@V?$allocator@PAUbase_cfg_var_t@detail@sdk@@@std@@@std@@QAE@XZ 1000fbf0 f i context.obj
 0001:0000ebf0       ??1?$vector@PAUdata_map_t@valve@nem@@V?$allocator@PAUdata_map_t@valve@nem@@@std@@@std@@QAE@XZ 1000fbf0 f i context.obj
 0001:0000ebf0       ??1?$vector@PAV?$basic_json@Vmap@std@@Vvector@2@V?$basic_string@DU?$char_traits@D@std@@V?$allocator@D@2@@2@_N_J_KNVallocator@2@Uadl_serializer@nlohmann@@V?$vector@EV?$allocator@E@std@@@2@@nlohmann@@V?$allocator@PAV?$basic_json@Vmap@std@@Vvector@2@V?$basic_string@DU?$char_traits@D@std@@V?$allocator@D@2@@2@_N_J_KNVallocator@2@Uadl_serializer@nlohmann@@V?$vector@EV?$allocator@E@std@@@2@@nlohmann@@@std@@@std@@QAE@XZ 1000fbf0 f i cfg.obj
 0001:0000ebf0       ??1?$vector@PAVc_weapon@valve@nem@@V?$allocator@PAVc_weapon@valve@nem@@@std@@@std@@QAE@XZ 1000fbf0 f i skins.obj
 0001:0000ebf0       ?_Tidy@?$vector@HV?$allocator@H@std@@@std@@AAEXXZ 1000fbf0 f i context.obj
 0001:0000ebf0       ?_Tidy@?$vector@PAUdata_map_t@valve@nem@@V?$allocator@PAUdata_map_t@valve@nem@@@std@@@std@@AAEXXZ 1000fbf0 f i context.obj
 0001:0000ebf0       ?_Tidy@?$vector@PAVc_entity@valve@nem@@V?$allocator@PAVc_entity@valve@nem@@@std@@@std@@AAEXXZ 1000fbf0 f i context.obj
 0001:0000ec50       ??0?$vector@PAUdata_map_t@valve@nem@@V?$allocator@PAUdata_map_t@valve@nem@@@std@@@std@@QAE@XZ 1000fc50 f i context.obj
 0001:0000ec70       ?at@?$unordered_map@V?$basic_string@DU?$char_traits@D@std@@V?$allocator@D@2@@std@@U?$pair@PAUrecv_prop_t@valve@nem@@I@2@U?$hash@V?$basic_string@DU?$char_traits@D@std@@V?$allocator@D@2@@std@@@2@U?$equal_to@V?$basic_string@DU?$char_traits@D@std@@V?$allocator@D@2@@std@@@2@V?$allocator@U?$pair@$$CBV?$basic_string@DU?$char_traits@D@std@@V?$allocator@D@2@@std@@U?$pair@PAUrecv_prop_t@valve@nem@@I@2@@std@@@2@@std@@QAEAAU?$pair@PAUrecv_prop_t@valve@nem@@I@2@ABV?$basic_string@DU?$char_traits@D@std@@V?$allocator@D@2@@2@@Z 1000fc70 f i context.obj
 0001:0000ece0       ??C?$unique_ptr@Vc_context@nem@@U?$default_delete@Vc_context@nem@@@std@@@std@@QBEPAVc_context@nem@@XZ 1000fce0 f i context.obj
 0001:0000ecf0       ??4?$vector@HV?$allocator@H@std@@@std@@QAEAAV01@V?$initializer_list@H@1@@Z 1000fcf0 f i context.obj
 0001:0000edb0       ??0?$vector@HV?$allocator@H@std@@@std@@QAE@V?$initializer_list@H@1@ABV?$allocator@H@1@@Z 1000fdb0 f i context.obj
 0001:0000ee30       ??1?$push_popper_n@$0A@@stack@sol@@QAE@XZ 1000fe30 f i context.obj
 0001:0000ee50       ??1?$ImVector@D@@QAE@XZ    1000fe50 f i imgui.obj
 0001:0000ee50       ??1?$ImVector@E@@QAE@XZ    1000fe50 f i imgui.obj
 0001:0000ee50       ??1?$ImVector@G@@QAE@XZ    1000fe50 f i context.obj
 0001:0000ee50       ??1?$ImVector@I@@QAE@XZ    1000fe50 f i imgui.obj
 0001:0000ee50       ??1?$ImVector@PAE@@QAE@XZ  1000fe50 f i imgui_freetype.obj
 0001:0000ee50       ??1?$ImVector@PAUImDrawList@@@@QAE@XZ 1000fe50 f i imgui.obj
 0001:0000ee50       ??1?$ImVector@PAUImFont@@@@QAE@XZ 1000fe50 f i imgui.obj
 0001:0000ee50       ??1?$ImVector@PAUImGuiWindow@@@@QAE@XZ 1000fe50 f i imgui.obj
 0001:0000ee50       ??1?$ImVector@PAX@@QAE@XZ  1000fe50 f i context.obj
 0001:0000ee50       ??1?$ImVector@UImDrawCmd@@@@QAE@XZ 1000fe50 f i context.obj
 0001:0000ee50       ??1?$ImVector@UImDrawVert@@@@QAE@XZ 1000fe50 f i context.obj
 0001:0000ee50       ??1?$ImVector@UImFontBuildDstData@@@@QAE@XZ 1000fe50 f i imgui_draw.obj
 0001:0000ee50       ??1?$ImVector@UImFontBuildDstDataFT@@@@QAE@XZ 1000fe50 f i imgui_freetype.obj
 0001:0000ee50       ??1?$ImVector@UImFontBuildSrcData@@@@QAE@XZ 1000fe50 f i imgui_draw.obj
 0001:0000ee50       ??1?$ImVector@UImFontBuildSrcDataFT@@@@QAE@XZ 1000fe50 f i imgui_freetype.obj
 0001:0000ee50       ??1?$ImVector@UImGuiColorMod@@@@QAE@XZ 1000fe50 f i imgui.obj
 0001:0000ee50       ??1?$ImVector@UImGuiColumns@@@@QAE@XZ 1000fe50 f i imgui.obj
 0001:0000ee50       ??1?$ImVector@UImGuiPopupData@@@@QAE@XZ 1000fe50 f i imgui.obj
 0001:0000ee50       ??1?$ImVector@UImGuiPtrOrIndex@@@@QAE@XZ 1000fe50 f i imgui.obj
 0001:0000ee50       ??1?$ImVector@UImGuiSettingsHandler@@@@QAE@XZ 1000fe50 f i imgui.obj
 0001:0000ee50       ??1?$ImVector@UImGuiShrinkWidthItem@@@@QAE@XZ 1000fe50 f i imgui.obj
 0001:0000ee50       ??1?$ImVector@UImGuiStyleMod@@@@QAE@XZ 1000fe50 f i imgui.obj
 0001:0000ee50       ??1?$ImVector@UImVec2@@@@QAE@XZ 1000fe50 f i context.obj
 0001:0000ee50       ??1?$ImVector@UImVec4@@@@QAE@XZ 1000fe50 f i context.obj
 0001:0000ee50       ??1?$ImVector@Ustbrp_node@@@@QAE@XZ 1000fe50 f i imgui_freetype.obj
 0001:0000ee50       ??1?$ImVector@Ustbrp_rect@@@@QAE@XZ 1000fe50 f i imgui_draw.obj
 0001:0000ee50       ??1?$ImVector@Ustbtt_packedchar@@@@QAE@XZ 1000fe50 f i imgui_draw.obj
 0001:0000eea0       ??0?$initializer_list@V?$basic_string@DU?$char_traits@D@std@@V?$allocator@D@2@@std@@@std@@QAE@PBV?$basic_string@DU?$char_traits@D@std@@V?$allocator@D@2@@1@0@Z 1000fea0 f i context.obj
 0001:0000eec0       ??1?$vector@V?$basic_string@DU?$char_traits@D@std@@V?$allocator@D@2@@std@@V?$allocator@V?$basic_string@DU?$char_traits@D@std@@V?$allocator@D@2@@std@@@2@@std@@QAE@XZ 1000fec0 f i context.obj
 0001:0000eed0       ??0?$vector@V?$basic_string@DU?$char_traits@D@std@@V?$allocator@D@2@@std@@V?$allocator@V?$basic_string@DU?$char_traits@D@std@@V?$allocator@D@2@@std@@@2@@std@@QAE@V?$initializer_list@V?$basic_string@DU?$char_traits@D@std@@V?$allocator@D@2@@std@@@1@ABV?$allocator@V?$basic_string@DU?$char_traits@D@std@@V?$allocator@D@2@@std@@@1@@Z 1000fed0 f i context.obj
 0001:0000efb0       ??0?$allocator@V?$basic_string@DU?$char_traits@D@std@@V?$allocator@D@2@@std@@@std@@QAE@XZ 1000ffb0 f i context.obj
 0001:0000efc0       ??1?$basic_json@Vmap@std@@Vvector@2@V?$basic_string@DU?$char_traits@D@std@@V?$allocator@D@2@@2@_N_J_KNVallocator@2@Uadl_serializer@nlohmann@@V?$vector@EV?$allocator@E@std@@@2@@nlohmann@@QAE@XZ 1000ffc0 f i context.obj
 0001:0000efe0       ??A?$basic_string@DU?$char_traits@D@std@@V?$allocator@D@2@@std@@QAEAADI@Z 1000ffe0 f i context.obj
 0001:0000f000       ?size@?$basic_string@DU?$char_traits@D@std@@V?$allocator@D@2@@std@@QBEIXZ 10010000 f i context.obj
 0001:0000f010       ?c_str@?$basic_string@DU?$char_traits@D@std@@V?$allocator@D@2@@std@@QBEPBDXZ 10010010 f i context.obj
 0001:0000f010       ?data@?$basic_string@DU?$char_traits@D@std@@V?$allocator@D@2@@std@@QAEPADXZ 10010010 f i context.obj
 0001:0000f020       ?assign@?$basic_string@DU?$char_traits@D@std@@V?$allocator@D@2@@std@@QAEAAV12@QBDI@Z 10010020 f i context.obj
 0001:0000f120       ??R<lambda_1>@?1??assign@?$basic_string@DU?$char_traits@D@std@@V?$allocator@D@2@@std@@QAEAAV23@QBDI@Z@QBE@QADI0@Z 10010120 f i context.obj
 0001:0000f150       ??4?$basic_string@DU?$char_traits@D@std@@V?$allocator@D@2@@std@@QAEAAV01@QBD@Z 10010150 f i context.obj
 0001:0000f180       ??0?$basic_string@DU?$char_traits@D@std@@V?$allocator@D@2@@std@@QAE@ABV01@@Z 10010180 f i context.obj
 0001:0000f220       ?seekpos@?$basic_stringbuf@DU?$char_traits@D@std@@V?$allocator@D@2@@std@@MAE?AV?$fpos@U_Mbstatet@@@2@V32@H@Z 10010220 f i context.obj
 0001:0000f360       ?seekoff@?$basic_stringbuf@DU?$char_traits@D@std@@V?$allocator@D@2@@std@@MAE?AV?$fpos@U_Mbstatet@@@2@_JHH@Z 10010360 f i context.obj
 0001:0000f530       ?underflow@?$basic_stringbuf@DU?$char_traits@D@std@@V?$allocator@D@2@@std@@MAEHXZ 10010530 f i context.obj
 0001:0000f5a0       ?pbackfail@?$basic_stringbuf@DU?$char_traits@D@std@@V?$allocator@D@2@@std@@MAEHH@Z 100105a0 f i context.obj
 0001:0000f600       ?overflow@?$basic_stringbuf@DU?$char_traits@D@std@@V?$allocator@D@2@@std@@MAEHH@Z 10010600 f i context.obj
 0001:0000f7f0       ??0c_thread_pool@sdk@@QAE@XZ 100107f0 f i context.obj
 0001:0000f990       ??_Ec_cfg@sdk@@UAEPAXI@Z   10010990 f i * CIL library *:* CIL module *
 0001:0000f990       ??_Gc_cfg@sdk@@UAEPAXI@Z   10010990 f i context.obj
 0001:0000f9c0       ??0c_context@nem@@QAE@XZ   100109c0 f i context.obj
 0001:000103f0       ??0c_eng_pred@hacks@nem@@QAE@XZ 100113f0 f i context.obj
 0001:00010940       ??0c_anim_sync@hacks@nem@@QAE@XZ 10011940 f i context.obj
 0001:00011510       ??0c_aim_bot@hacks@nem@@QAE@XZ 10012510 f i context.obj
 0001:00011de0       ??0c_visuals@hacks@nem@@QAE@XZ 10012de0 f i context.obj
 0001:000120d0       ??0c_skins@hacks@nem@@QAE@XZ 100130d0 f i context.obj
 0001:000130a0       ??1sentry@?$basic_istream@DU?$char_traits@D@std@@@std@@QAE@XZ 100140a0 f i context.obj
 0001:000130f0       ??_E?$basic_stringstream@DU?$char_traits@D@std@@V?$allocator@D@2@@std@@UAEPAXI@Z 100140f0 f i * CIL library *:* CIL module *
 0001:000130f0       ??_G?$basic_stringstream@DU?$char_traits@D@std@@V?$allocator@D@2@@std@@UAEPAXI@Z 100140f0 f i context.obj
 0001:00013160       ??_E?$basic_stringbuf@DU?$char_traits@D@std@@V?$allocator@D@2@@std@@UAEPAXI@Z 10014160 f i * CIL library *:* CIL module *
 0001:00013160       ??_G?$basic_stringbuf@DU?$char_traits@D@std@@V?$allocator@D@2@@std@@UAEPAXI@Z 10014160 f i context.obj
 0001:000131a0       ??_Ec_thread_pool@sdk@@UAEPAXI@Z 100141a0 f i * CIL library *:* CIL module *
 0001:000131a0       ??_Gc_thread_pool@sdk@@UAEPAXI@Z 100141a0 f i context.obj
 0001:000131d0       ??1queue_t@c_thread_pool@sdk@@QAE@XZ 100141d0 f i context.obj
 0001:000131e0       ??1player_entry_t@hacks@nem@@QAE@XZ 100141e0 f i context.obj
 0001:00013210       ??1?$unordered_map@W4e_ent_handle@valve@nem@@Ugrenade_simulation_t@c_visuals@hacks@3@U?$hash@W4e_ent_handle@valve@nem@@@std@@U?$equal_to@W4e_ent_handle@valve@nem@@@8@V?$allocator@U?$pair@$$CBW4e_ent_handle@valve@nem@@Ugrenade_simulation_t@c_visuals@hacks@3@@std@@@8@@std@@QAE@XZ 10014210 f i context.obj
 0001:00013240       ??1grenade_simulation_t@c_visuals@hacks@nem@@QAE@XZ 10014240 f i context.obj
 0001:00013260       ??1s_shape@hacks@nem@@QAE@XZ 10014260 f i context.obj
 0001:00013280       ??1weapon_t@c_skins@hacks@nem@@QAE@XZ 10014280 f i context.obj
 0001:00013290       ??1?$array@Uweapon_t@c_skins@hacks@nem@@$0CD@@std@@QAE@XZ 10014290 f i context.obj
 0001:000132d0       ??1?$array@Uweapon_t@c_skins@hacks@nem@@$0BE@@std@@QAE@XZ 100142d0 f i context.obj
 0001:00013310       ??1?$array@V?$basic_string@DU?$char_traits@D@std@@V?$allocator@D@2@@std@@$0BD@@std@@QAE@XZ 10014310 f i context.obj
 0001:00013350       ??1glove_data_t@c_skins@hacks@nem@@QAE@XZ 10014350 f i context.obj
 0001:00013370       ??$__builtin_array_init_helper_eh@Uplayer_entry_t@hacks@nem@@@@YAXPAUplayer_entry_t@hacks@nem@@IP6EXPAX@Z@Z 10014370 f i context.obj
 0001:00013420       ??$__builtin_array_init_helper@Ulocal_data_t@c_eng_pred@hacks@nem@@@@YAXPAUlocal_data_t@c_eng_pred@hacks@nem@@I@Z 10014420 f i context.obj
 0001:00013c20       ??$__builtin_array_init_helper_eh@Us_shape@hacks@nem@@@@YAXPAUs_shape@hacks@nem@@IP6EXPAX@Z@Z 10014c20 f i context.obj
 0001:00013cd0       ??$sprintf_s@$0BAA@@@YAHAAY0BAA@DPBDZZ 10014cd0 f i context.obj
 0001:00013cf0       ??$?0PAD$0A@@?$basic_string@DU?$char_traits@D@std@@V?$allocator@D@2@@std@@QAE@PAD0ABV?$allocator@D@1@@Z 10014cf0 f i context.obj
 0001:00013db0       ??$emplace_back@ABE@?$basic_json@Vmap@std@@Vvector@2@V?$basic_string@DU?$char_traits@D@std@@V?$allocator@D@2@@2@_N_J_KNVallocator@2@Uadl_serializer@nlohmann@@V?$vector@EV?$allocator@E@std@@@2@@nlohmann@@QAEAAV01@ABE@Z 10014db0 f i context.obj
 0001:00013e40       ??$get@EE$0A@@?$basic_json@Vmap@std@@Vvector@2@V?$basic_string@DU?$char_traits@D@std@@V?$allocator@D@2@@2@_N_J_KNVallocator@2@Uadl_serializer@nlohmann@@V?$vector@EV?$allocator@E@std@@@2@@nlohmann@@QBEEXZ 10014e40 f i context.obj
 0001:00013ec0       ??$_Assign_counted_range@PBUImVec3@@@?$vector@UImVec3@@V?$allocator@UImVec3@@@std@@@std@@AAEXPBUImVec3@@I@Z 10014ec0 f i context.obj
 0001:00014040       ??$?RV?$basic_string@DU?$char_traits@D@std@@V?$allocator@D@2@@std@@@?$_Uhash_compare@V?$basic_string@DU?$char_traits@D@std@@V?$allocator@D@2@@std@@U?$hash@V?$basic_string@DU?$char_traits@D@std@@V?$allocator@D@2@@std@@@2@U?$equal_to@V?$basic_string@DU?$char_traits@D@std@@V?$allocator@D@2@@std@@@2@@std@@QBEIABV?$basic_string@DU?$char_traits@D@std@@V?$allocator@D@2@@1@@Z 10015040 f i context.obj
 0001:00014080       ??$_Find_last@V?$basic_string@DU?$char_traits@D@std@@V?$allocator@D@2@@std@@@?$_Hash@V?$_Umap_traits@V?$basic_string@DU?$char_traits@D@std@@V?$allocator@D@2@@std@@U?$pair@PAUrecv_prop_t@valve@nem@@I@2@V?$_Uhash_compare@V?$basic_string@DU?$char_traits@D@std@@V?$allocator@D@2@@std@@U?$hash@V?$basic_string@DU?$char_traits@D@std@@V?$allocator@D@2@@std@@@2@U?$equal_to@V?$basic_string@DU?$char_traits@D@std@@V?$allocator@D@2@@std@@@2@@2@V?$allocator@U?$pair@$$CBV?$basic_string@DU?$char_traits@D@std@@V?$allocator@D@2@@std@@U?$pair@PAUrecv_prop_t@valve@nem@@I@2@@std@@@2@$0A@@std@@@std@@IBE?AU?$_Hash_find_last_result@PAU?$_List_node@U?$pair@$$CBV?$basic_string@DU?$char_traits@D@std@@V?$allocator@D@2@@std@@U?$pair@PAUrecv_prop_t@valve@nem@@I@2@@std@@PAX@std@@@1@ABV?$basic_string@DU?$char_traits@D@std@@V?$allocator@D@2@@1@I@Z 10015080 f i context.obj
 0001:00014080       ??$_Find_last@V?$basic_string@DU?$char_traits@D@std@@V?$allocator@D@2@@std@@@?$_Hash@V?$_Umap_traits@V?$basic_string@DU?$char_traits@D@std@@V?$allocator@D@2@@std@@V?$deque@Ucallback_t@c_lua@nem@@V?$allocator@Ucallback_t@c_lua@nem@@@std@@@2@V?$_Uhash_compare@V?$basic_string@DU?$char_traits@D@std@@V?$allocator@D@2@@std@@U?$hash@V?$basic_string@DU?$char_traits@D@std@@V?$allocator@D@2@@std@@@2@U?$equal_to@V?$basic_string@DU?$char_traits@D@std@@V?$allocator@D@2@@std@@@2@@2@V?$allocator@U?$pair@$$CBV?$basic_string@DU?$char_traits@D@std@@V?$allocator@D@2@@std@@V?$deque@Ucallback_t@c_lua@nem@@V?$allocator@Ucallback_t@c_lua@nem@@@std@@@2@@std@@@2@$0A@@std@@@std@@IBE?AU?$_Hash_find_last_result@PAU?$_List_node@U?$pair@$$CBV?$basic_string@DU?$char_traits@D@std@@V?$allocator@D@2@@std@@V?$deque@Ucallback_t@c_lua@nem@@V?$allocator@Ucallback_t@c_lua@nem@@@std@@@2@@std@@PAX@std@@@1@ABV?$basic_string@DU?$char_traits@D@std@@V?$allocator@D@2@@1@I@Z 10015080 f i visuals.obj
 0001:00014110       ??$_Hash_array_representation@D@std@@YAIQBDI@Z 10015110 f i context.obj
 0001:00014140       ??1?$vector@Upaint_kit_t@c_skins@hacks@nem@@V?$allocator@Upaint_kit_t@c_skins@hacks@nem@@@std@@@std@@QAE@XZ 10015140 f i context.obj
 0001:000141e0       ??1?$deque@Uhit_marker_data_t@c_hit_marker@hacks@nem@@V?$allocator@Uhit_marker_data_t@c_hit_marker@hacks@nem@@@std@@@std@@QAE@XZ 100151e0 f i context.obj
 0001:00014290       ??1?$deque@Ubullet_trace_t@c_visuals@hacks@nem@@V?$allocator@Ubullet_trace_t@c_visuals@hacks@nem@@@std@@@std@@QAE@XZ 10015290 f i context.obj
 0001:000142b0       ??1?$_Hash_vec@V?$allocator@V?$_List_unchecked_iterator@V?$_List_val@U?$_List_simple_types@U?$pair@$$CBV?$basic_reference@$0A@@sol@@V12@@std@@@std@@@std@@@std@@@std@@@std@@QAE@XZ 100152b0 f i lua.obj
 0001:000142b0       ??1?$_Hash_vec@V?$allocator@V?$_List_unchecked_iterator@V?$_List_val@U?$_List_simple_types@U?$pair@$$CBV?$basic_string@DU?$char_traits@D@std@@V?$allocator@D@2@@std@@U?$pair@PAUrecv_prop_t@valve@nem@@I@2@@std@@@std@@@std@@@std@@@std@@@std@@QAE@XZ 100152b0 f i context.obj
 0001:000142b0       ??1?$_Hash_vec@V?$allocator@V?$_List_unchecked_iterator@V?$_List_val@U?$_List_simple_types@U?$pair@$$CBV?$basic_string@DU?$char_traits@D@std@@V?$allocator@D@2@@std@@V?$deque@Ucallback_t@c_lua@nem@@V?$allocator@Ucallback_t@c_lua@nem@@@std@@@2@@std@@@std@@@std@@@std@@@std@@@std@@QAE@XZ 100152b0 f i context.obj
 0001:000142b0       ??1?$_Hash_vec@V?$allocator@V?$_List_unchecked_iterator@V?$_List_val@U?$_List_simple_types@U?$pair@$$CBV?$basic_string_view@DU?$char_traits@D@std@@@std@@P6AHPAUlua_State@@@Z@std@@@std@@@std@@@std@@@std@@@std@@QAE@XZ 100152b0 f i lua.obj
 0001:000142b0       ??1?$_Hash_vec@V?$allocator@V?$_List_unchecked_iterator@V?$_List_val@U?$_List_simple_types@U?$pair@$$CBV?$basic_string_view@DU?$char_traits@D@std@@@std@@Uindex_call_storage@u_detail@sol@@@std@@@std@@@std@@@std@@@std@@@std@@QAE@XZ 100152b0 f i lua.obj
 0001:000142b0       ??1?$_Hash_vec@V?$allocator@V?$_List_unchecked_iterator@V?$_List_val@U?$_List_simple_types@U?$pair@$$CBW4e_ent_handle@valve@nem@@Ugrenade_simulation_t@c_visuals@hacks@3@@std@@@std@@@std@@@std@@@std@@@std@@QAE@XZ 100152b0 f i context.obj
 0001:00014310       ??1?$list@U?$pair@$$CBW4e_ent_handle@valve@nem@@Ugrenade_simulation_t@c_visuals@hacks@3@@std@@V?$allocator@U?$pair@$$CBW4e_ent_handle@valve@nem@@Ugrenade_simulation_t@c_visuals@hacks@3@@std@@@2@@std@@QAE@XZ 10015310 f i context.obj
 0001:00014330       ??1?$vector@Ubullet_impact_t@c_visuals@hacks@nem@@V?$allocator@Ubullet_impact_t@c_visuals@hacks@nem@@@std@@@std@@QAE@XZ 10015330 f i context.obj
 0001:00014390       ??1?$vector@Ushot_mdl_t@c_visuals@hacks@nem@@V?$allocator@Ushot_mdl_t@c_visuals@hacks@nem@@@std@@@std@@QAE@XZ 10015390 f i context.obj
 0001:00014410       ?_Tidy@?$vector@UImVec3@@V?$allocator@UImVec3@@@std@@@std@@AAEXXZ 10015410 f i context.obj
 0001:00014490       ?_Tidy@?$vector@U?$pair@UImVec3@@_N@std@@V?$allocator@U?$pair@UImVec3@@_N@std@@@2@@std@@AAEXXZ 10015490 f i context.obj
 0001:000144f0       ??1?$deque@Ulog_data_t@hacks@nem@@V?$allocator@Ulog_data_t@hacks@nem@@@std@@@std@@QAE@XZ 100154f0 f i context.obj
 0001:000145c0       ??1?$vector@Uaim_target_t@hacks@nem@@V?$allocator@Uaim_target_t@hacks@nem@@@std@@@std@@QAE@XZ 100155c0 f i context.obj
 0001:00014630       ?_Tidy@?$vector@Uaim_point_t@hacks@nem@@V?$allocator@Uaim_point_t@hacks@nem@@@std@@@std@@AAEXXZ 10015630 f i context.obj
 0001:000146b0       ?_Tidy@?$deque@V?$shared_ptr@Ulag_record_t@hacks@nem@@@std@@V?$allocator@V?$shared_ptr@Ulag_record_t@hacks@nem@@@std@@@2@@std@@AAEXXZ 100156b0 f i context.obj
 0001:00014790       ?_Tidy@?$vector@VC_KeybindKeyInfo@@V?$allocator@VC_KeybindKeyInfo@@@std@@@std@@AAEXXZ 10015790 f i context.obj
 0001:00014810       ??1?$list@U?$pair@$$CBV?$basic_string@DU?$char_traits@D@std@@V?$allocator@D@2@@std@@V?$deque@Ucallback_t@c_lua@nem@@V?$allocator@Ucallback_t@c_lua@nem@@@std@@@2@@std@@V?$allocator@U?$pair@$$CBV?$basic_string@DU?$char_traits@D@std@@V?$allocator@D@2@@std@@V?$deque@Ucallback_t@c_lua@nem@@V?$allocator@Ucallback_t@c_lua@nem@@@std@@@2@@std@@@2@@std@@QAE@XZ 10015810 f i context.obj
 0001:00014830       ??1?$list@U?$pair@$$CBV?$basic_string@DU?$char_traits@D@std@@V?$allocator@D@2@@std@@U?$pair@PAUrecv_prop_t@valve@nem@@I@2@@std@@V?$allocator@U?$pair@$$CBV?$basic_string@DU?$char_traits@D@std@@V?$allocator@D@2@@std@@U?$pair@PAUrecv_prop_t@valve@nem@@I@2@@std@@@2@@std@@QAE@XZ 10015830 f i context.obj
 0001:00014880       ??1?$deque@Unetworked_data_t@c_context@nem@@V?$allocator@Unetworked_data_t@c_context@nem@@@std@@@std@@QAE@XZ 10015880 f i context.obj
 0001:00014930       ??1?$deque@Uout_cmds_data_t@c_context@nem@@V?$allocator@Uout_cmds_data_t@c_context@nem@@@std@@@std@@QAE@XZ 10015930 f i context.obj
 0001:000149e0       ?push@?$basic_reference@$0A@@sol@@QBEHPAUlua_State@@@Z 100159e0 f i context.obj
 0001:00014a40       ??1?$deque@V?$function@$$A6AXXZ@std@@V?$allocator@V?$function@$$A6AXXZ@std@@@2@@std@@QAE@XZ 10015a40 f i context.obj
 0001:00014b20       ?destroy@json_value@?$basic_json@Vmap@std@@Vvector@2@V?$basic_string@DU?$char_traits@D@std@@V?$allocator@D@2@@2@_N_J_KNVallocator@2@Uadl_serializer@nlohmann@@V?$vector@EV?$allocator@E@std@@@2@@nlohmann@@QAEXW4value_t@detail@3@@Z 10015b20 f i context.obj
 0001:00014de0       ?_Tidy@?$vector@V?$basic_string@DU?$char_traits@D@std@@V?$allocator@D@2@@std@@V?$allocator@V?$basic_string@DU?$char_traits@D@std@@V?$allocator@D@2@@std@@@2@@std@@AAEXXZ 10015de0 f i context.obj
 0001:00014e70       ??A?$basic_json@Vmap@std@@Vvector@2@V?$basic_string@DU?$char_traits@D@std@@V?$allocator@D@2@@2@_N_J_KNVallocator@2@Uadl_serializer@nlohmann@@V?$vector@EV?$allocator@E@std@@@2@@nlohmann@@QAEAAV01@ABV?$basic_string@DU?$char_traits@D@std@@V?$allocator@D@2@@std@@@Z 10015e70 f i context.obj
 0001:00014f10       ??1_Sentry_base@?$basic_istream@DU?$char_traits@D@std@@@std@@QAE@XZ 10015f10 f i context.obj
 0001:00014f10       ??1_Sentry_base@?$basic_ostream@DU?$char_traits@D@std@@@std@@QAE@XZ 10015f10 f i cfg.obj
 0001:00014f50       ??1?$unique_ptr@V_Facet_base@std@@U?$default_delete@V_Facet_base@std@@@2@@std@@QAE@XZ 10015f50 f i context.obj
 0001:00014f60       ?push_back@?$basic_string@DU?$char_traits@D@std@@V?$allocator@D@2@@std@@QAEXD@Z 10015f60 f i context.obj
 0001:00015080       ?_Tidy@?$basic_stringbuf@DU?$char_traits@D@std@@V?$allocator@D@2@@std@@IAEXXZ 10016080 f i context.obj
 0001:00015170       ??$__call_empty_init_list_helper@Uplayer_entry_t@hacks@nem@@@@YAXPAUplayer_entry_t@hacks@nem@@@Z 10016170 f i context.obj
 0001:000152d0       ??$_Invoke@V?$tuple@P6AXVstop_token@std@@@ZV12@@std@@$0A@$00@thread@std@@CGIPAX@Z 100162d0 f i context.obj
 0001:00015350       ??$_Emplace_reallocate@AAH@?$vector@HV?$allocator@H@std@@@std@@AAEPAHQAHAAH@Z 10016350 f i lua.obj
 0001:00015350       ??$_Emplace_reallocate@ABH@?$vector@HV?$allocator@H@std@@@std@@AAEPAHQAHABH@Z 10016350 f i context.obj
 0001:00015350       ??$_Emplace_reallocate@ABQAUbase_cfg_var_t@detail@sdk@@@?$vector@PAUbase_cfg_var_t@detail@sdk@@V?$allocator@PAUbase_cfg_var_t@detail@sdk@@@std@@@std@@AAEPAPAUbase_cfg_var_t@detail@sdk@@QAPAU234@ABQAU234@@Z 10016350 f i context.obj
 0001:00015350       ??$_Emplace_reallocate@ABQAUdata_map_t@valve@nem@@@?$vector@PAUdata_map_t@valve@nem@@V?$allocator@PAUdata_map_t@valve@nem@@@std@@@std@@AAEPAPAUdata_map_t@valve@nem@@QAPAU234@ABQAU234@@Z 10016350 f i context.obj
 0001:00015350       ??$_Emplace_reallocate@ABQAV?$basic_json@Vmap@std@@Vvector@2@V?$basic_string@DU?$char_traits@D@std@@V?$allocator@D@2@@2@_N_J_KNVallocator@2@Uadl_serializer@nlohmann@@V?$vector@EV?$allocator@E@std@@@2@@nlohmann@@@?$vector@PAV?$basic_json@Vmap@std@@Vvector@2@V?$basic_string@DU?$char_traits@D@std@@V?$allocator@D@2@@2@_N_J_KNVallocator@2@Uadl_serializer@nlohmann@@V?$vector@EV?$allocator@E@std@@@2@@nlohmann@@V?$allocator@PAV?$basic_json@Vmap@std@@Vvector@2@V?$basic_string@DU?$char_traits@D@std@@V?$allocator@D@2@@2@_N_J_KNVallocator@2@Uadl_serializer@nlohmann@@V?$vector@EV?$allocator@E@std@@@2@@nlohmann@@@std@@@std@@AAEPAPAV?$basic_json@Vmap@std@@Vvector@2@V?$basic_string@DU?$char_traits@D@std@@V?$allocator@D@2@@2@_N_J_KNVallocator@2@Uadl_serializer@nlohmann@@V?$vector@EV?$allocator@E@std@@@2@@nlohmann@@QAPAV23@ABQAV23@@Z 10016350 f i cfg.obj
 0001:00015350       ??$_Emplace_reallocate@ABQAVC_Element@@@?$vector@PAVC_Element@@V?$allocator@PAVC_Element@@@std@@@std@@AAEPAPAVC_Element@@QAPAV2@ABQAV2@@Z 10016350 f i Tab.obj
 0001:00015350       ??$_Emplace_reallocate@ABQAVc_weapon@valve@nem@@@?$vector@PAVc_weapon@valve@nem@@V?$allocator@PAVc_weapon@valve@nem@@@std@@@std@@AAEPAPAVc_weapon@valve@nem@@QAPAV234@ABQAV234@@Z 10016350 f i skins.obj
 0001:00015350       ??$_Emplace_reallocate@H@?$vector@HV?$allocator@H@std@@@std@@AAEPAHQAH$$QAH@Z 10016350 f i visuals.obj
 0001:00015350       ??$_Emplace_reallocate@PAV?$basic_json@Vmap@std@@Vvector@2@V?$basic_string@DU?$char_traits@D@std@@V?$allocator@D@2@@2@_N_J_KNVallocator@2@Uadl_serializer@nlohmann@@V?$vector@EV?$allocator@E@std@@@2@@nlohmann@@@?$vector@PAV?$basic_json@Vmap@std@@Vvector@2@V?$basic_string@DU?$char_traits@D@std@@V?$allocator@D@2@@2@_N_J_KNVallocator@2@Uadl_serializer@nlohmann@@V?$vector@EV?$allocator@E@std@@@2@@nlohmann@@V?$allocator@PAV?$basic_json@Vmap@std@@Vvector@2@V?$basic_string@DU?$char_traits@D@std@@V?$allocator@D@2@@2@_N_J_KNVallocator@2@Uadl_serializer@nlohmann@@V?$vector@EV?$allocator@E@std@@@2@@nlohmann@@@std@@@std@@AAEPAPAV?$basic_json@Vmap@std@@Vvector@2@V?$basic_string@DU?$char_traits@D@std@@V?$allocator@D@2@@2@_N_J_KNVallocator@2@Uadl_serializer@nlohmann@@V?$vector@EV?$allocator@E@std@@@2@@nlohmann@@QAPAV23@$$QAPAV23@@Z 10016350 f i cfg.obj
 0001:00015510       ??$_Emplace_reallocate@E_N@?$vector@U?$pair@E_N@std@@V?$allocator@U?$pair@E_N@std@@@2@@std@@AAEPAU?$pair@E_N@1@QAU21@$$QAE$$QA_N@Z 10016510 f i context.obj
 0001:00015510       ??$_Emplace_reallocate@I_N@?$vector@U?$pair@E_N@std@@V?$allocator@U?$pair@E_N@std@@@2@@std@@AAEPAU?$pair@E_N@1@QAU21@$$QAI$$QA_N@Z 10016510 f i context.obj
 0001:00015680       ??$_Erase_tree@V?$allocator@U?$_Tree_node@U?$pair@$$CBIVC_KeybindInfo@@@std@@PAX@std@@@std@@@?$_Tree_val@U?$_Tree_simple_types@U?$pair@$$CBIVC_KeybindInfo@@@std@@@std@@@std@@QAEXAAV?$allocator@U?$_Tree_node@U?$pair@$$CBIVC_KeybindInfo@@@std@@PAX@std@@@1@PAU?$_Tree_node@U?$pair@$$CBIVC_KeybindInfo@@@std@@PAX@1@@Z 10016680 f i context.obj
 0001:000156d0       ??$_Erase_tree@V?$allocator@U?$_Tree_node@U?$pair@$$CBIV?$function@$$A6AXPAVC_Animation@@@Z@std@@@std@@PAX@std@@@std@@@?$_Tree_val@U?$_Tree_simple_types@U?$pair@$$CBIV?$function@$$A6AXPAVC_Animation@@@Z@std@@@std@@@std@@@std@@QAEXAAV?$allocator@U?$_Tree_node@U?$pair@$$CBIV?$function@$$A6AXPAVC_Animation@@@Z@std@@@std@@PAX@std@@@1@PAU?$_Tree_node@U?$pair@$$CBIV?$function@$$A6AXPAVC_Animation@@@Z@std@@@std@@PAX@1@@Z 100166d0 f i context.obj
 0001:000156d0       ??$_Erase_tree@V?$allocator@U?$_Tree_node@U?$pair@$$CBIV?$function@$$A6AXPAVC_Element@@@Z@std@@@std@@PAX@std@@@std@@@?$_Tree_val@U?$_Tree_simple_types@U?$pair@$$CBIV?$function@$$A6AXPAVC_Element@@@Z@std@@@std@@@std@@@std@@QAEXAAV?$allocator@U?$_Tree_node@U?$pair@$$CBIV?$function@$$A6AXPAVC_Element@@@Z@std@@@std@@PAX@std@@@1@PAU?$_Tree_node@U?$pair@$$CBIV?$function@$$A6AXPAVC_Element@@@Z@std@@@std@@PAX@1@@Z 100166d0 f i context.obj
 0001:000156d0       ??$_Erase_tree_and_orphan@V?$allocator@U?$_Tree_node@U?$pair@$$CBIV?$function@$$A6AXPAVC_Animation@@@Z@std@@@std@@PAX@std@@@std@@@?$_Tree_val@U?$_Tree_simple_types@U?$pair@$$CBIV?$function@$$A6AXPAVC_Animation@@@Z@std@@@std@@@std@@@std@@QAEXAAV?$allocator@U?$_Tree_node@U?$pair@$$CBIV?$function@$$A6AXPAVC_Animation@@@Z@std@@@std@@PAX@std@@@1@PAU?$_Tree_node@U?$pair@$$CBIV?$function@$$A6AXPAVC_Animation@@@Z@std@@@std@@PAX@1@@Z 100166d0 f i ColorPicker.obj
 0001:00015740       ??$_Erase_tree@V?$allocator@U?$_Tree_node@U?$pair@$$CBIVC_Var@@@std@@PAX@std@@@std@@@?$_Tree_val@U?$_Tree_simple_types@U?$pair@$$CBIVC_Var@@@std@@@std@@@std@@QAEXAAV?$allocator@U?$_Tree_node@U?$pair@$$CBIVC_Var@@@std@@PAX@std@@@1@PAU?$_Tree_node@U?$pair@$$CBIVC_Var@@@std@@PAX@1@@Z 10016740 f i context.obj
 0001:00015740       ??$_Erase_tree_and_orphan@V?$allocator@U?$_Tree_node@U?$pair@$$CBIVC_Var@@@std@@PAX@std@@@std@@@?$_Tree_val@U?$_Tree_simple_types@U?$pair@$$CBIVC_Var@@@std@@@std@@@std@@QAEXAAV?$allocator@U?$_Tree_node@U?$pair@$$CBIVC_Var@@@std@@PAX@std@@@1@PAU?$_Tree_node@U?$pair@$$CBIVC_Var@@@std@@PAX@1@@Z 10016740 f i ColorPicker.obj
 0001:000157a0       ??$_Destroy_range@V?$allocator@VC_Element@@@std@@@std@@YAXPAVC_Element@@QAV1@AAV?$allocator@VC_Element@@@0@@Z 100167a0 f i context.obj
 0001:000157e0       ??$move@V?$_Vector_iterator@V?$_Vector_val@U?$_Simple_types@V?$basic_json@Vmap@std@@Vvector@2@V?$basic_string@DU?$char_traits@D@std@@V?$allocator@D@2@@2@_N_J_KNVallocator@2@Uadl_serializer@nlohmann@@V?$vector@EV?$allocator@E@std@@@2@@nlohmann@@@std@@@std@@@std@@V?$back_insert_iterator@V?$vector@V?$basic_json@Vmap@std@@Vvector@2@V?$basic_string@DU?$char_traits@D@std@@V?$allocator@D@2@@2@_N_J_KNVallocator@2@Uadl_serializer@nlohmann@@V?$vector@EV?$allocator@E@std@@@2@@nlohmann@@V?$allocator@V?$basic_json@Vmap@std@@Vvector@2@V?$basic_string@DU?$char_traits@D@std@@V?$allocator@D@2@@2@_N_J_KNVallocator@2@Uadl_serializer@nlohmann@@V?$vector@EV?$allocator@E@std@@@2@@nlohmann@@@std@@@std@@@2@@std@@YA?AV?$back_insert_iterator@V?$vector@V?$basic_json@Vmap@std@@Vvector@2@V?$basic_string@DU?$char_traits@D@std@@V?$allocator@D@2@@2@_N_J_KNVallocator@2@Uadl_serializer@nlohmann@@V?$vector@EV?$allocator@E@std@@@2@@nlohmann@@V?$allocator@V?$basic_json@Vmap@std@@Vvector@2@V?$basic_string@DU?$char_traits@D@std@@V?$allocator@D@2@@2@_N_J_KNVallocator@2@Uadl_serializer@nlohmann@@V?$vector@EV?$allocator@E@std@@@2@@nlohmann@@@std@@@std@@@0@V?$_Vector_iterator@V?$_Vector_val@U?$_Simple_types@V?$basic_json@Vmap@std@@Vvector@2@V?$basic_string@DU?$char_traits@D@std@@V?$allocator@D@2@@2@_N_J_KNVallocator@2@Uadl_serializer@nlohmann@@V?$vector@EV?$allocator@E@std@@@2@@nlohmann@@@std@@@std@@@0@0V10@@Z 100167e0 f i context.obj
 0001:00015850       ??$_Traits_equal@U?$char_traits@D@std@@@std@@YA_NQBDI0I@Z 10016850 f i context.obj
 0001:000158d0       ??$_Traits_compare@U?$char_traits@D@std@@@std@@YAHQBDI0I@Z 100168d0 f i context.obj
 0001:00015980       ??1?$unique_ptr@V?$tuple@P6AXVstop_token@std@@@ZV12@@std@@U?$default_delete@V?$tuple@P6AXVstop_token@std@@@ZV12@@std@@@2@@std@@QAE@XZ 10016980 f i context.obj
 0001:000159c0       ?_Delete_this@?$_Ref_count_obj2@U_Recursive_dir_enum_impl@filesystem@std@@@std@@EAEXXZ 100169c0 f i LuaBlock.obj
 0001:000159c0       ?_Delete_this@?$_Ref_count_obj2@Ulag_record_t@hacks@nem@@@std@@EAEXXZ 100169c0 f i aim_bot.obj
 0001:000159c0       ?_Delete_this@?$_Ref_count_obj2@V?$output_string_adapter@DV?$basic_string@DU?$char_traits@D@std@@V?$allocator@D@2@@std@@@detail@nlohmann@@@std@@EAEXXZ 100169c0 f i cfg.obj
 0001:000159c0       ?_Delete_this@?$_Ref_count_resource@PAUImDrawList@@U?$default_delete@UImDrawList@@@std@@@std@@EAEXXZ 100169c0 f i context.obj
 0001:000159d0       ?_Destroy@?$_Ref_count_resource@PAUImDrawList@@U?$default_delete@UImDrawList@@@std@@@std@@EAEXXZ 100169d0 f i context.obj
 0001:000159f0       ?_Get_deleter@?$_Ref_count_resource@PAUImDrawList@@U?$default_delete@UImDrawList@@@std@@@std@@UBEPAXABVtype_info@@@Z 100169f0 f i context.obj
 0001:00015a20       ?_Tidy@?$deque@Ubullet_trace_t@c_visuals@hacks@nem@@V?$allocator@Ubullet_trace_t@c_visuals@hacks@nem@@@std@@@std@@AAEXXZ 10016a20 f i context.obj
 0001:00015ac0       ?_Tidy@?$deque@Ushot_t@hacks@nem@@V?$allocator@Ushot_t@hacks@nem@@@std@@@std@@AAEXXZ 10016ac0 f i context.obj
 0001:00015ba0       ??1?$_Tidy_guard@V?$vector@HV?$allocator@H@std@@@std@@@std@@QAE@XZ 10016ba0 f i context.obj
 0001:00015c00       ?_Clear_and_reserve_geometric@?$vector@HV?$allocator@H@std@@@std@@AAEXI@Z 10016c00 f i context.obj
 0001:00015cb0       ??C?$unique_ptr@Vc_cfg@sdk@@U?$default_delete@Vc_cfg@sdk@@@std@@@std@@QBEPAVc_cfg@sdk@@XZ 10016cb0 f i context.obj
 0001:00015cc0       ??1?$_Tidy_guard@V?$vector@Uthread_t@c_thread_pool@sdk@@V?$allocator@Uthread_t@c_thread_pool@sdk@@@std@@@std@@@std@@QAE@XZ 10016cc0 f i context.obj
 0001:00015cd0       ?_Tidy@?$vector@Uthread_t@c_thread_pool@sdk@@V?$allocator@Uthread_t@c_thread_pool@sdk@@@std@@@std@@AAEXXZ 10016cd0 f i context.obj
 0001:00015d60       ??0json_value@?$basic_json@Vmap@std@@Vvector@2@V?$basic_string@DU?$char_traits@D@std@@V?$allocator@D@2@@2@_N_J_KNVallocator@2@Uadl_serializer@nlohmann@@V?$vector@EV?$allocator@E@std@@@2@@nlohmann@@QAE@W4value_t@detail@2@@Z 10016d60 f i context.obj
 0001:00015ed0       ?reserve@?$vector@V?$basic_json@Vmap@std@@Vvector@2@V?$basic_string@DU?$char_traits@D@std@@V?$allocator@D@2@@2@_N_J_KNVallocator@2@Uadl_serializer@nlohmann@@V?$vector@EV?$allocator@E@std@@@2@@nlohmann@@V?$allocator@V?$basic_json@Vmap@std@@Vvector@2@V?$basic_string@DU?$char_traits@D@std@@V?$allocator@D@2@@2@_N_J_KNVallocator@2@Uadl_serializer@nlohmann@@V?$vector@EV?$allocator@E@std@@@2@@nlohmann@@@std@@@std@@QAEXI@Z 10016ed0 f i context.obj
 0001:00015f30       ??A?$map@V?$basic_string@DU?$char_traits@D@std@@V?$allocator@D@2@@std@@V?$basic_json@Vmap@std@@Vvector@2@V?$basic_string@DU?$char_traits@D@std@@V?$allocator@D@2@@2@_N_J_KNVallocator@2@Uadl_serializer@nlohmann@@V?$vector@EV?$allocator@E@std@@@2@@nlohmann@@U?$less@X@2@V?$allocator@U?$pair@$$CBV?$basic_string@DU?$char_traits@D@std@@V?$allocator@D@2@@std@@V?$basic_json@Vmap@std@@Vvector@2@V?$basic_string@DU?$char_traits@D@std@@V?$allocator@D@2@@2@_N_J_KNVallocator@2@Uadl_serializer@nlohmann@@V?$vector@EV?$allocator@E@std@@@2@@nlohmann@@@std@@@2@@std@@QAEAAV?$basic_json@Vmap@std@@Vvector@2@V?$basic_string@DU?$char_traits@D@std@@V?$allocator@D@2@@2@_N_J_KNVallocator@2@Uadl_serializer@nlohmann@@V?$vector@EV?$allocator@E@std@@@2@@nlohmann@@ABV?$basic_string@DU?$char_traits@D@std@@V?$allocator@D@2@@1@@Z 10016f30 f i context.obj
 0001:00016020       ??1?$_Tidy_guard@V?$vector@V?$basic_string@DU?$char_traits@D@std@@V?$allocator@D@2@@std@@V?$allocator@V?$basic_string@DU?$char_traits@D@std@@V?$allocator@D@2@@std@@@2@@std@@@std@@QAE@XZ 10017020 f i context.obj
 0001:00016030       ?cend@?$basic_json@Vmap@std@@Vvector@2@V?$basic_string@DU?$char_traits@D@std@@V?$allocator@D@2@@2@_N_J_KNVallocator@2@Uadl_serializer@nlohmann@@V?$vector@EV?$allocator@E@std@@@2@@nlohmann@@QBE?AV?$iter_impl@$$CBV?$basic_json@Vmap@std@@Vvector@2@V?$basic_string@DU?$char_traits@D@std@@V?$allocator@D@2@@2@_N_J_KNVallocator@2@Uadl_serializer@nlohmann@@V?$vector@EV?$allocator@E@std@@@2@@nlohmann@@@detail@2@XZ 10017030 f i context.obj
 0001:000160a0       ?_Xran@?$_String_val@U?$_Simple_types@D@std@@@std@@SAXXZ 100170a0 f i context.obj
 0001:000160a0       ?_Xran@?$_String_val@U?$_Simple_types@_W@std@@@std@@SAXXZ 100170a0 f i cfg.obj
 0001:000160b0       ?_Calculate_growth@?$basic_string@DU?$char_traits@D@std@@V?$allocator@D@2@@std@@ABEII@Z 100170b0 f i context.obj
 0001:000160f0       ?_Init@?$basic_stringbuf@DU?$char_traits@D@std@@V?$allocator@D@2@@std@@IAEXPBDIH@Z 100170f0 f i context.obj
 0001:00016200       ??_E?$_Ref_count_resource@PAUImDrawList@@U?$default_delete@UImDrawList@@@std@@@std@@UAEPAXI@Z 10017200 f i * CIL library *:* CIL module *
 0001:00016200       ??_G?$_Ref_count_resource@PAUImDrawList@@U?$default_delete@UImDrawList@@@std@@@std@@UAEPAXI@Z 10017200 f i context.obj
 0001:00016220       ??$_Erase_tree@V?$allocator@U?$_Tree_node@U?$pair@$$CBV?$basic_string@DU?$char_traits@D@std@@V?$allocator@D@2@@std@@Ubinds_data_t@c_visuals@hacks@nem@@@std@@PAX@std@@@std@@@?$_Tree_val@U?$_Tree_simple_types@U?$pair@$$CBV?$basic_string@DU?$char_traits@D@std@@V?$allocator@D@2@@std@@Ubinds_data_t@c_visuals@hacks@nem@@@std@@@std@@@std@@QAEXAAV?$allocator@U?$_Tree_node@U?$pair@$$CBV?$basic_string@DU?$char_traits@D@std@@V?$allocator@D@2@@std@@Ubinds_data_t@c_visuals@hacks@nem@@@std@@PAX@std@@@1@PAU?$_Tree_node@U?$pair@$$CBV?$basic_string@DU?$char_traits@D@std@@V?$allocator@D@2@@std@@Ubinds_data_t@c_visuals@hacks@nem@@@std@@PAX@1@@Z 10017220 f i context.obj
 0001:00016290       ??$_Free_non_head@V?$allocator@U?$_List_node@U?$pair@$$CBW4e_ent_handle@valve@nem@@Ugrenade_simulation_t@c_visuals@hacks@3@@std@@PAX@std@@@std@@@?$_List_node@U?$pair@$$CBW4e_ent_handle@valve@nem@@Ugrenade_simulation_t@c_visuals@hacks@3@@std@@PAX@std@@SAXAAV?$allocator@U?$_List_node@U?$pair@$$CBW4e_ent_handle@valve@nem@@Ugrenade_simulation_t@c_visuals@hacks@3@@std@@PAX@std@@@1@PAU01@@Z 10017290 f i context.obj
 0001:000162d0       ??$_Destroy_range@V?$allocator@Uaim_target_t@hacks@nem@@@std@@@std@@YAXPAUaim_target_t@hacks@nem@@QAU123@AAV?$allocator@Uaim_target_t@hacks@nem@@@0@@Z 100172d0 f i context.obj
 0001:00016320       ??$_Free_non_head@V?$allocator@U?$_List_node@U?$pair@$$CBV?$basic_string@DU?$char_traits@D@std@@V?$allocator@D@2@@std@@V?$deque@Ucallback_t@c_lua@nem@@V?$allocator@Ucallback_t@c_lua@nem@@@std@@@2@@std@@PAX@std@@@std@@@?$_List_node@U?$pair@$$CBV?$basic_string@DU?$char_traits@D@std@@V?$allocator@D@2@@std@@V?$deque@Ucallback_t@c_lua@nem@@V?$allocator@Ucallback_t@c_lua@nem@@@std@@@2@@std@@PAX@std@@SAXAAV?$allocator@U?$_List_node@U?$pair@$$CBV?$basic_string@DU?$char_traits@D@std@@V?$allocator@D@2@@std@@V?$deque@Ucallback_t@c_lua@nem@@V?$allocator@Ucallback_t@c_lua@nem@@@std@@@2@@std@@PAX@std@@@1@PAU01@@Z 10017320 f i context.obj
 0001:00016390       ??$_Erase_tree@V?$allocator@U?$_Tree_node@U?$pair@$$CBV?$basic_string@DU?$char_traits@D@std@@V?$allocator@D@2@@std@@V?$basic_json@Vmap@std@@Vvector@2@V?$basic_string@DU?$char_traits@D@std@@V?$allocator@D@2@@2@_N_J_KNVallocator@2@Uadl_serializer@nlohmann@@V?$vector@EV?$allocator@E@std@@@2@@nlohmann@@@std@@PAX@std@@@std@@@?$_Tree_val@U?$_Tree_simple_types@U?$pair@$$CBV?$basic_string@DU?$char_traits@D@std@@V?$allocator@D@2@@std@@V?$basic_json@Vmap@std@@Vvector@2@V?$basic_string@DU?$char_traits@D@std@@V?$allocator@D@2@@2@_N_J_KNVallocator@2@Uadl_serializer@nlohmann@@V?$vector@EV?$allocator@E@std@@@2@@nlohmann@@@std@@@std@@@std@@QAEXAAV?$allocator@U?$_Tree_node@U?$pair@$$CBV?$basic_string@DU?$char_traits@D@std@@V?$allocator@D@2@@std@@V?$basic_json@Vmap@std@@Vvector@2@V?$basic_string@DU?$char_traits@D@std@@V?$allocator@D@2@@2@_N_J_KNVallocator@2@Uadl_serializer@nlohmann@@V?$vector@EV?$allocator@E@std@@@2@@nlohmann@@@std@@PAX@std@@@1@PAU?$_Tree_node@U?$pair@$$CBV?$basic_string@DU?$char_traits@D@std@@V?$allocator@D@2@@std@@V?$basic_json@Vmap@std@@Vvector@2@V?$basic_string@DU?$char_traits@D@std@@V?$allocator@D@2@@2@_N_J_KNVallocator@2@Uadl_serializer@nlohmann@@V?$vector@EV?$allocator@E@std@@@2@@nlohmann@@@std@@PAX@1@@Z 10017390 f i context.obj
 0001:00016390       ??$_Erase_tree_and_orphan@V?$allocator@U?$_Tree_node@U?$pair@$$CBV?$basic_string@DU?$char_traits@D@std@@V?$allocator@D@2@@std@@V?$basic_json@Vmap@std@@Vvector@2@V?$basic_string@DU?$char_traits@D@std@@V?$allocator@D@2@@2@_N_J_KNVallocator@2@Uadl_serializer@nlohmann@@V?$vector@EV?$allocator@E@std@@@2@@nlohmann@@@std@@PAX@std@@@std@@@?$_Tree_val@U?$_Tree_simple_types@U?$pair@$$CBV?$basic_string@DU?$char_traits@D@std@@V?$allocator@D@2@@std@@V?$basic_json@Vmap@std@@Vvector@2@V?$basic_string@DU?$char_traits@D@std@@V?$allocator@D@2@@2@_N_J_KNVallocator@2@Uadl_serializer@nlohmann@@V?$vector@EV?$allocator@E@std@@@2@@nlohmann@@@std@@@std@@@std@@QAEXAAV?$allocator@U?$_Tree_node@U?$pair@$$CBV?$basic_string@DU?$char_traits@D@std@@V?$allocator@D@2@@std@@V?$basic_json@Vmap@std@@Vvector@2@V?$basic_string@DU?$char_traits@D@std@@V?$allocator@D@2@@2@_N_J_KNVallocator@2@Uadl_serializer@nlohmann@@V?$vector@EV?$allocator@E@std@@@2@@nlohmann@@@std@@PAX@std@@@1@PAU?$_Tree_node@U?$pair@$$CBV?$basic_string@DU?$char_traits@D@std@@V?$allocator@D@2@@std@@V?$basic_json@Vmap@std@@Vvector@2@V?$basic_string@DU?$char_traits@D@std@@V?$allocator@D@2@@2@_N_J_KNVallocator@2@Uadl_serializer@nlohmann@@V?$vector@EV?$allocator@E@std@@@2@@nlohmann@@@std@@PAX@1@@Z 10017390 f i cfg.obj
 0001:000163f0       ??1?$unique_ptr@V?$map@V?$basic_string@DU?$char_traits@D@std@@V?$allocator@D@2@@std@@V?$basic_json@Vmap@std@@Vvector@2@V?$basic_string@DU?$char_traits@D@std@@V?$allocator@D@2@@2@_N_J_KNVallocator@2@Uadl_serializer@nlohmann@@V?$vector@EV?$allocator@E@std@@@2@@nlohmann@@U?$less@X@2@V?$allocator@U?$pair@$$CBV?$basic_string@DU?$char_traits@D@std@@V?$allocator@D@2@@std@@V?$basic_json@Vmap@std@@Vvector@2@V?$basic_string@DU?$char_traits@D@std@@V?$allocator@D@2@@2@_N_J_KNVallocator@2@Uadl_serializer@nlohmann@@V?$vector@EV?$allocator@E@std@@@2@@nlohmann@@@std@@@2@@std@@V<lambda_1>@?1???$create@V?$map@V?$basic_string@DU?$char_traits@D@std@@V?$allocator@D@2@@std@@V?$basic_json@Vmap@std@@Vvector@2@V?$basic_string@DU?$char_traits@D@std@@V?$allocator@D@2@@2@_N_J_KNVallocator@2@Uadl_serializer@nlohmann@@V?$vector@EV?$allocator@E@std@@@2@@nlohmann@@U?$less@X@2@V?$allocator@U?$pair@$$CBV?$basic_string@DU?$char_traits@D@std@@V?$allocator@D@2@@std@@V?$basic_json@Vmap@std@@Vvector@2@V?$basic_string@DU?$char_traits@D@std@@V?$allocator@D@2@@2@_N_J_KNVallocator@2@Uadl_serializer@nlohmann@@V?$vector@EV?$allocator@E@std@@@2@@nlohmann@@@std@@@2@@std@@$$V@?$basic_json@Vmap@std@@Vvector@2@V?$basic_string@DU?$char_traits@D@std@@V?$allocator@D@2@@2@_N_J_KNVallocator@2@Uadl_serializer@nlohmann@@V?$vector@EV?$allocator@E@std@@@2@@nlohmann@@CAPAV12@XZ@@std@@QAE@XZ 100173f0 f i context.obj
 0001:000163f0       ??1?$unique_ptr@V?$map@V?$basic_string@DU?$char_traits@D@std@@V?$allocator@D@2@@std@@V?$basic_json@Vmap@std@@Vvector@2@V?$basic_string@DU?$char_traits@D@std@@V?$allocator@D@2@@2@_N_J_KNVallocator@2@Uadl_serializer@nlohmann@@V?$vector@EV?$allocator@E@std@@@2@@nlohmann@@U?$less@X@2@V?$allocator@U?$pair@$$CBV?$basic_string@DU?$char_traits@D@std@@V?$allocator@D@2@@std@@V?$basic_json@Vmap@std@@Vvector@2@V?$basic_string@DU?$char_traits@D@std@@V?$allocator@D@2@@2@_N_J_KNVallocator@2@Uadl_serializer@nlohmann@@V?$vector@EV?$allocator@E@std@@@2@@nlohmann@@@std@@@2@@std@@V<lambda_1>@?1???$create@V?$map@V?$basic_string@DU?$char_traits@D@std@@V?$allocator@D@2@@std@@V?$basic_json@Vmap@std@@Vvector@2@V?$basic_string@DU?$char_traits@D@std@@V?$allocator@D@2@@2@_N_J_KNVallocator@2@Uadl_serializer@nlohmann@@V?$vector@EV?$allocator@E@std@@@2@@nlohmann@@U?$less@X@2@V?$allocator@U?$pair@$$CBV?$basic_string@DU?$char_traits@D@std@@V?$allocator@D@2@@std@@V?$basic_json@Vmap@std@@Vvector@2@V?$basic_string@DU?$char_traits@D@std@@V?$allocator@D@2@@2@_N_J_KNVallocator@2@Uadl_serializer@nlohmann@@V?$vector@EV?$allocator@E@std@@@2@@nlohmann@@@std@@@2@@std@@ABV12@@?$basic_json@Vmap@std@@Vvector@2@V?$basic_string@DU?$char_traits@D@std@@V?$allocator@D@2@@2@_N_J_KNVallocator@2@Uadl_serializer@nlohmann@@V?$vector@EV?$allocator@E@std@@@2@@nlohmann@@CAPAV12@ABV12@@Z@@std@@QAE@XZ 100173f0 f i cfg.obj
 0001:00016410       ??1?$_Uninitialized_backout_al@V?$allocator@V?$basic_string@DU?$char_traits@D@std@@V?$allocator@D@2@@std@@@std@@@std@@QAE@XZ 10017410 f i context.obj
 0001:00016440       ??1?$_Uninitialized_backout_al@V?$allocator@Uthread_t@c_thread_pool@sdk@@@std@@@std@@QAE@XZ 10017440 f i context.obj
 0001:00016470       ?_Xlength@?$vector@DV?$allocator@D@std@@@std@@CAXXZ 10017470 f i cfg.obj
 0001:00016470       ?_Xlength@?$vector@EV?$allocator@E@std@@@std@@CAXXZ 10017470 f i cfg.obj
 0001:00016470       ?_Xlength@?$vector@HV?$allocator@H@std@@@std@@CAXXZ 10017470 f i context.obj
 0001:00016470       ?_Xlength@?$vector@IV?$allocator@I@std@@@std@@CAXXZ 10017470 f i cfg.obj
 0001:00016470       ?_Xlength@?$vector@PAUbase_cfg_var_t@detail@sdk@@V?$allocator@PAUbase_cfg_var_t@detail@sdk@@@std@@@std@@CAXXZ 10017470 f i context.obj
 0001:00016470       ?_Xlength@?$vector@PAUdata_map_t@valve@nem@@V?$allocator@PAUdata_map_t@valve@nem@@@std@@@std@@CAXXZ 10017470 f i context.obj
 0001:00016470       ?_Xlength@?$vector@PAV?$basic_json@Vmap@std@@Vvector@2@V?$basic_string@DU?$char_traits@D@std@@V?$allocator@D@2@@2@_N_J_KNVallocator@2@Uadl_serializer@nlohmann@@V?$vector@EV?$allocator@E@std@@@2@@nlohmann@@V?$allocator@PAV?$basic_json@Vmap@std@@Vvector@2@V?$basic_string@DU?$char_traits@D@std@@V?$allocator@D@2@@2@_N_J_KNVallocator@2@Uadl_serializer@nlohmann@@V?$vector@EV?$allocator@E@std@@@2@@nlohmann@@@std@@@std@@CAXXZ 10017470 f i cfg.obj
 0001:00016470       ?_Xlength@?$vector@PAVC_Element@@V?$allocator@PAVC_Element@@@std@@@std@@CAXXZ 10017470 f i Tab.obj
 0001:00016470       ?_Xlength@?$vector@PAVc_entity@valve@nem@@V?$allocator@PAVc_entity@valve@nem@@@std@@@std@@CAXXZ 10017470 f i visuals.obj
 0001:00016470       ?_Xlength@?$vector@PAVc_weapon@valve@nem@@V?$allocator@PAVc_weapon@valve@nem@@@std@@@std@@CAXXZ 10017470 f i skins.obj
 0001:00016470       ?_Xlength@?$vector@U?$pair@E_N@std@@V?$allocator@U?$pair@E_N@std@@@2@@std@@CAXXZ 10017470 f i context.obj
 0001:00016470       ?_Xlength@?$vector@U?$pair@UImVec3@@_N@std@@V?$allocator@U?$pair@UImVec3@@_N@std@@@2@@std@@CAXXZ 10017470 f i visuals.obj
 0001:00016470       ?_Xlength@?$vector@UC_BindComboItemProperty@@V?$allocator@UC_BindComboItemProperty@@@std@@@std@@CAXXZ 10017470 f i BindCombo.obj
 0001:00016470       ?_Xlength@?$vector@UImVec2@@V?$allocator@UImVec2@@@std@@@std@@CAXXZ 10017470 f i visuals.obj
 0001:00016470       ?_Xlength@?$vector@UImVec3@@V?$allocator@UImVec3@@@std@@@std@@CAXXZ 10017470 f i context.obj
 0001:00016470       ?_Xlength@?$vector@U_Find_file_handle@filesystem@std@@V?$allocator@U_Find_file_handle@filesystem@std@@@3@@std@@CAXXZ 10017470 f i LuaBlock.obj
 0001:00016470       ?_Xlength@?$vector@Uaim_point_t@hacks@nem@@V?$allocator@Uaim_point_t@hacks@nem@@@std@@@std@@CAXXZ 10017470 f i aim_bot.obj
 0001:00016470       ?_Xlength@?$vector@Uaim_target_t@hacks@nem@@V?$allocator@Uaim_target_t@hacks@nem@@@std@@@std@@CAXXZ 10017470 f i aim_bot.obj
 0001:00016470       ?_Xlength@?$vector@Ubullet_impact_t@c_visuals@hacks@nem@@V?$allocator@Ubullet_impact_t@c_visuals@hacks@nem@@@std@@@std@@CAXXZ 10017470 f i shots.obj
 0001:00016470       ?_Xlength@?$vector@Uflags_data_t@c_player_esp@hacks@nem@@V?$allocator@Uflags_data_t@c_player_esp@hacks@nem@@@std@@@std@@CAXXZ 10017470 f i visuals.obj
 0001:00016470       ?_Xlength@?$vector@Upaint_kit_t@c_skins@hacks@nem@@V?$allocator@Upaint_kit_t@c_skins@hacks@nem@@@std@@@std@@CAXXZ 10017470 f i skins.obj
 0001:00016470       ?_Xlength@?$vector@Ushot_mdl_t@c_visuals@hacks@nem@@V?$allocator@Ushot_mdl_t@c_visuals@hacks@nem@@@std@@@std@@CAXXZ 10017470 f i visuals.obj
 0001:00016470       ?_Xlength@?$vector@Uthread_t@c_thread_pool@sdk@@V?$allocator@Uthread_t@c_thread_pool@sdk@@@std@@@std@@CAXXZ 10017470 f i context.obj
 0001:00016470       ?_Xlength@?$vector@V?$basic_json@Vmap@std@@Vvector@2@V?$basic_string@DU?$char_traits@D@std@@V?$allocator@D@2@@2@_N_J_KNVallocator@2@Uadl_serializer@nlohmann@@V?$vector@EV?$allocator@E@std@@@2@@nlohmann@@V?$allocator@V?$basic_json@Vmap@std@@Vvector@2@V?$basic_string@DU?$char_traits@D@std@@V?$allocator@D@2@@2@_N_J_KNVallocator@2@Uadl_serializer@nlohmann@@V?$vector@EV?$allocator@E@std@@@2@@nlohmann@@@std@@@std@@CAXXZ 10017470 f i context.obj
 0001:00016470       ?_Xlength@?$vector@V?$basic_string@DU?$char_traits@D@std@@V?$allocator@D@2@@std@@V?$allocator@V?$basic_string@DU?$char_traits@D@std@@V?$allocator@D@2@@std@@@2@@std@@CAXXZ 10017470 f i context.obj
 0001:00016470       ?_Xlength@?$vector@V?$optional@Uaim_record_t@hacks@nem@@@std@@V?$allocator@V?$optional@Uaim_record_t@hacks@nem@@@std@@@2@@std@@CAXXZ 10017470 f i aim_bot.obj
 0001:00016470       ?_Xlength@?$vector@V?$tuple@MMM@std@@V?$allocator@V?$tuple@MMM@std@@@2@@std@@CAXXZ 10017470 f i aim_bot.obj
 0001:00016470       ?_Xlength@?$vector@V?$unique_ptr@$$BY0A@DU?$default_delete@$$BY0A@D@std@@@std@@V?$allocator@V?$unique_ptr@$$BY0A@DU?$default_delete@$$BY0A@D@std@@@std@@@2@@std@@CAXXZ 10017470 f i lua.obj
 0001:00016470       ?_Xlength@?$vector@V?$unique_ptr@Ubinding_base@u_detail@sol@@U?$default_delete@Ubinding_base@u_detail@sol@@@std@@@std@@V?$allocator@V?$unique_ptr@Ubinding_base@u_detail@sol@@U?$default_delete@Ubinding_base@u_detail@sol@@@std@@@std@@@2@@std@@CAXXZ 10017470 f i lua.obj
 0001:00016470       ?_Xlength@?$vector@VC_Animation@@V?$allocator@VC_Animation@@@std@@@std@@CAXXZ 10017470 f i ColorPicker.obj
 0001:00016470       ?_Xlength@?$vector@VC_Element@@V?$allocator@VC_Element@@@std@@@std@@CAXXZ 10017470 f i Elements.obj
 0001:00016470       ?_Xlength@?$vector@VC_KeybindKeyInfo@@V?$allocator@VC_KeybindKeyInfo@@@std@@@std@@CAXXZ 10017470 f i Keybinds.obj
 0001:00016480       ?_Assign_grow@?$_Hash_vec@V?$allocator@V?$_List_unchecked_iterator@V?$_List_val@U?$_List_simple_types@U?$pair@$$CBV?$basic_reference@$0A@@sol@@V12@@std@@@std@@@std@@@std@@@std@@@std@@QAEXIV?$_List_unchecked_iterator@V?$_List_val@U?$_List_simple_types@U?$pair@$$CBV?$basic_reference@$0A@@sol@@V12@@std@@@std@@@std@@@2@@Z 10017480 f i lua.obj
 0001:00016480       ?_Assign_grow@?$_Hash_vec@V?$allocator@V?$_List_unchecked_iterator@V?$_List_val@U?$_List_simple_types@U?$pair@$$CBV?$basic_string@DU?$char_traits@D@std@@V?$allocator@D@2@@std@@U?$pair@PAUrecv_prop_t@valve@nem@@I@2@@std@@@std@@@std@@@std@@@std@@@std@@QAEXIV?$_List_unchecked_iterator@V?$_List_val@U?$_List_simple_types@U?$pair@$$CBV?$basic_string@DU?$char_traits@D@std@@V?$allocator@D@2@@std@@U?$pair@PAUrecv_prop_t@valve@nem@@I@2@@std@@@std@@@std@@@2@@Z 10017480 f i context.obj
 0001:00016480       ?_Assign_grow@?$_Hash_vec@V?$allocator@V?$_List_unchecked_iterator@V?$_List_val@U?$_List_simple_types@U?$pair@$$CBV?$basic_string@DU?$char_traits@D@std@@V?$allocator@D@2@@std@@V?$deque@Ucallback_t@c_lua@nem@@V?$allocator@Ucallback_t@c_lua@nem@@@std@@@2@@std@@@std@@@std@@@std@@@std@@@std@@QAEXIV?$_List_unchecked_iterator@V?$_List_val@U?$_List_simple_types@U?$pair@$$CBV?$basic_string@DU?$char_traits@D@std@@V?$allocator@D@2@@std@@V?$deque@Ucallback_t@c_lua@nem@@V?$allocator@Ucallback_t@c_lua@nem@@@std@@@2@@std@@@std@@@std@@@2@@Z 10017480 f i context.obj
 0001:00016480       ?_Assign_grow@?$_Hash_vec@V?$allocator@V?$_List_unchecked_iterator@V?$_List_val@U?$_List_simple_types@U?$pair@$$CBV?$basic_string_view@DU?$char_traits@D@std@@@std@@P6AHPAUlua_State@@@Z@std@@@std@@@std@@@std@@@std@@@std@@QAEXIV?$_List_unchecked_iterator@V?$_List_val@U?$_List_simple_types@U?$pair@$$CBV?$basic_string_view@DU?$char_traits@D@std@@@std@@P6AHPAUlua_State@@@Z@std@@@std@@@std@@@2@@Z 10017480 f i lua.obj
 0001:00016480       ?_Assign_grow@?$_Hash_vec@V?$allocator@V?$_List_unchecked_iterator@V?$_List_val@U?$_List_simple_types@U?$pair@$$CBV?$basic_string_view@DU?$char_traits@D@std@@@std@@Uindex_call_storage@u_detail@sol@@@std@@@std@@@std@@@std@@@std@@@std@@QAEXIV?$_List_unchecked_iterator@V?$_List_val@U?$_List_simple_types@U?$pair@$$CBV?$basic_string_view@DU?$char_traits@D@std@@@std@@Uindex_call_storage@u_detail@sol@@@std@@@std@@@std@@@2@@Z 10017480 f i lua.obj
 0001:00016480       ?_Assign_grow@?$_Hash_vec@V?$allocator@V?$_List_unchecked_iterator@V?$_List_val@U?$_List_simple_types@U?$pair@$$CBW4e_ent_handle@valve@nem@@Ugrenade_simulation_t@c_visuals@hacks@3@@std@@@std@@@std@@@std@@@std@@@std@@QAEXIV?$_List_unchecked_iterator@V?$_List_val@U?$_List_simple_types@U?$pair@$$CBW4e_ent_handle@valve@nem@@Ugrenade_simulation_t@c_visuals@hacks@3@@std@@@std@@@std@@@2@@Z 10017480 f i context.obj
 0001:00016570       ?_Buy_raw@?$vector@HV?$allocator@H@std@@@std@@AAEXI@Z 10017570 f i context.obj
 0001:00016600       ??E?$_Tree_unchecked_const_iterator@V?$_Tree_val@U?$_Tree_simple_types@U?$pair@$$CBV?$basic_string@DU?$char_traits@D@std@@V?$allocator@D@2@@std@@V?$basic_json@Vmap@std@@Vvector@2@V?$basic_string@DU?$char_traits@D@std@@V?$allocator@D@2@@2@_N_J_KNVallocator@2@Uadl_serializer@nlohmann@@V?$vector@EV?$allocator@E@std@@@2@@nlohmann@@@std@@@std@@@std@@U_Iterator_base0@2@@std@@QAEAAV01@XZ 10017600 f i context.obj
 0001:00016660       ?_Xrange@?$vector@HV?$allocator@H@std@@@std@@CAXXZ 10017660 f i visuals.obj
 0001:00016660       ?_Xrange@?$vector@U?$pair@UImVec3@@_N@std@@V?$allocator@U?$pair@UImVec3@@_N@std@@@2@@std@@CAXXZ 10017660 f i visuals.obj
 0001:00016660       ?_Xrange@?$vector@UC_BindComboItemProperty@@V?$allocator@UC_BindComboItemProperty@@@std@@@std@@CAXXZ 10017660 f i Animations.obj
 0001:00016660       ?_Xrange@?$vector@UImVec3@@V?$allocator@UImVec3@@@std@@@std@@CAXXZ 10017660 f i visuals.obj
 0001:00016660       ?_Xrange@?$vector@Upaint_kit_t@c_skins@hacks@nem@@V?$allocator@Upaint_kit_t@c_skins@hacks@nem@@@std@@@std@@CAXXZ 10017660 f i SkinsBlock.obj
 0001:00016660       ?_Xrange@?$vector@V?$basic_json@Vmap@std@@Vvector@2@V?$basic_string@DU?$char_traits@D@std@@V?$allocator@D@2@@2@_N_J_KNVallocator@2@Uadl_serializer@nlohmann@@V?$vector@EV?$allocator@E@std@@@2@@nlohmann@@V?$allocator@V?$basic_json@Vmap@std@@Vvector@2@V?$basic_string@DU?$char_traits@D@std@@V?$allocator@D@2@@2@_N_J_KNVallocator@2@Uadl_serializer@nlohmann@@V?$vector@EV?$allocator@E@std@@@2@@nlohmann@@@std@@@std@@CAXXZ 10017660 f i context.obj
 0001:00016660       ?_Xrange@?$vector@V?$basic_string@DU?$char_traits@D@std@@V?$allocator@D@2@@std@@V?$allocator@V?$basic_string@DU?$char_traits@D@std@@V?$allocator@D@2@@std@@@2@@std@@CAXXZ 10017660 f i Keybinds.obj
 0001:00016670       ?_Tidy@?$vector@V?$basic_json@Vmap@std@@Vvector@2@V?$basic_string@DU?$char_traits@D@std@@V?$allocator@D@2@@2@_N_J_KNVallocator@2@Uadl_serializer@nlohmann@@V?$vector@EV?$allocator@E@std@@@2@@nlohmann@@V?$allocator@V?$basic_json@Vmap@std@@Vvector@2@V?$basic_string@DU?$char_traits@D@std@@V?$allocator@D@2@@2@_N_J_KNVallocator@2@Uadl_serializer@nlohmann@@V?$vector@EV?$allocator@E@std@@@2@@nlohmann@@@std@@@std@@AAEXXZ 10017670 f i context.obj
 0001:000166f0       ??$_Emplace_reallocate@ABE@?$vector@V?$basic_json@Vmap@std@@Vvector@2@V?$basic_string@DU?$char_traits@D@std@@V?$allocator@D@2@@2@_N_J_KNVallocator@2@Uadl_serializer@nlohmann@@V?$vector@EV?$allocator@E@std@@@2@@nlohmann@@V?$allocator@V?$basic_json@Vmap@std@@Vvector@2@V?$basic_string@DU?$char_traits@D@std@@V?$allocator@D@2@@2@_N_J_KNVallocator@2@Uadl_serializer@nlohmann@@V?$vector@EV?$allocator@E@std@@@2@@nlohmann@@@std@@@std@@AAEPAV?$basic_json@Vmap@std@@Vvector@2@V?$basic_string@DU?$char_traits@D@std@@V?$allocator@D@2@@2@_N_J_KNVallocator@2@Uadl_serializer@nlohmann@@V?$vector@EV?$allocator@E@std@@@2@@nlohmann@@QAV23@ABE@Z 100176f0 f i context.obj
 0001:00016840       ??1C_Animation@@QAE@XZ     10017840 f i context.obj
 0001:000168b0       ??$_Find_lower_bound@V?$basic_string@DU?$char_traits@D@std@@V?$allocator@D@2@@std@@@?$_Tree@V?$_Tmap_traits@V?$basic_string@DU?$char_traits@D@std@@V?$allocator@D@2@@std@@V?$basic_json@Vmap@std@@Vvector@2@V?$basic_string@DU?$char_traits@D@std@@V?$allocator@D@2@@2@_N_J_KNVallocator@2@Uadl_serializer@nlohmann@@V?$vector@EV?$allocator@E@std@@@2@@nlohmann@@U?$less@X@2@V?$allocator@U?$pair@$$CBV?$basic_string@DU?$char_traits@D@std@@V?$allocator@D@2@@std@@V?$basic_json@Vmap@std@@Vvector@2@V?$basic_string@DU?$char_traits@D@std@@V?$allocator@D@2@@2@_N_J_KNVallocator@2@Uadl_serializer@nlohmann@@V?$vector@EV?$allocator@E@std@@@2@@nlohmann@@@std@@@2@$0A@@std@@@std@@IBE?AU?$_Tree_find_result@PAU?$_Tree_node@U?$pair@$$CBV?$basic_string@DU?$char_traits@D@std@@V?$allocator@D@2@@std@@V?$basic_json@Vmap@std@@Vvector@2@V?$basic_string@DU?$char_traits@D@std@@V?$allocator@D@2@@2@_N_J_KNVallocator@2@Uadl_serializer@nlohmann@@V?$vector@EV?$allocator@E@std@@@2@@nlohmann@@@std@@PAX@std@@@1@ABV?$basic_string@DU?$char_traits@D@std@@V?$allocator@D@2@@1@@Z 100178b0 f i context.obj
 0001:00016950       ??$_Allocate_at_least_helper@V?$allocator@V?$basic_json@Vmap@std@@Vvector@2@V?$basic_string@DU?$char_traits@D@std@@V?$allocator@D@2@@2@_N_J_KNVallocator@2@Uadl_serializer@nlohmann@@V?$vector@EV?$allocator@E@std@@@2@@nlohmann@@@std@@@std@@YAPAV?$basic_json@Vmap@std@@Vvector@2@V?$basic_string@DU?$char_traits@D@std@@V?$allocator@D@2@@2@_N_J_KNVallocator@2@Uadl_serializer@nlohmann@@V?$vector@EV?$allocator@E@std@@@2@@nlohmann@@AAV?$allocator@V?$basic_json@Vmap@std@@Vvector@2@V?$basic_string@DU?$char_traits@D@std@@V?$allocator@D@2@@2@_N_J_KNVallocator@2@Uadl_serializer@nlohmann@@V?$vector@EV?$allocator@E@std@@@2@@nlohmann@@@0@AAI@Z 10017950 f i context.obj
 0001:000169b0       ??$_Uninitialized_move@PAV?$basic_json@Vmap@std@@Vvector@2@V?$basic_string@DU?$char_traits@D@std@@V?$allocator@D@2@@2@_N_J_KNVallocator@2@Uadl_serializer@nlohmann@@V?$vector@EV?$allocator@E@std@@@2@@nlohmann@@V?$allocator@V?$basic_json@Vmap@std@@Vvector@2@V?$basic_string@DU?$char_traits@D@std@@V?$allocator@D@2@@2@_N_J_KNVallocator@2@Uadl_serializer@nlohmann@@V?$vector@EV?$allocator@E@std@@@2@@nlohmann@@@std@@@std@@YAPAV?$basic_json@Vmap@std@@Vvector@2@V?$basic_string@DU?$char_traits@D@std@@V?$allocator@D@2@@2@_N_J_KNVallocator@2@Uadl_serializer@nlohmann@@V?$vector@EV?$allocator@E@std@@@2@@nlohmann@@QAV12@0PAV12@AAV?$allocator@V?$basic_json@Vmap@std@@Vvector@2@V?$basic_string@DU?$char_traits@D@std@@V?$allocator@D@2@@2@_N_J_KNVallocator@2@Uadl_serializer@nlohmann@@V?$vector@EV?$allocator@E@std@@@2@@nlohmann@@@0@@Z 100179b0 f i context.obj
 0001:00016a00       ??$_Emplace_reallocate@V?$basic_json@Vmap@std@@Vvector@2@V?$basic_string@DU?$char_traits@D@std@@V?$allocator@D@2@@2@_N_J_KNVallocator@2@Uadl_serializer@nlohmann@@V?$vector@EV?$allocator@E@std@@@2@@nlohmann@@@?$vector@V?$basic_json@Vmap@std@@Vvector@2@V?$basic_string@DU?$char_traits@D@std@@V?$allocator@D@2@@2@_N_J_KNVallocator@2@Uadl_serializer@nlohmann@@V?$vector@EV?$allocator@E@std@@@2@@nlohmann@@V?$allocator@V?$basic_json@Vmap@std@@Vvector@2@V?$basic_string@DU?$char_traits@D@std@@V?$allocator@D@2@@2@_N_J_KNVallocator@2@Uadl_serializer@nlohmann@@V?$vector@EV?$allocator@E@std@@@2@@nlohmann@@@std@@@std@@AAEPAV?$basic_json@Vmap@std@@Vvector@2@V?$basic_string@DU?$char_traits@D@std@@V?$allocator@D@2@@2@_N_J_KNVallocator@2@Uadl_serializer@nlohmann@@V?$vector@EV?$allocator@E@std@@@2@@nlohmann@@QAV23@$$QAV23@@Z 10017a00 f i context.obj
 0001:00016b60       ??$fill@PAV?$_List_unchecked_iterator@V?$_List_val@U?$_List_simple_types@U?$pair@$$CBV?$basic_reference@$0A@@sol@@V12@@std@@@std@@@std@@@std@@V12@@std@@YAXQAV?$_List_unchecked_iterator@V?$_List_val@U?$_List_simple_types@U?$pair@$$CBV?$basic_reference@$0A@@sol@@V12@@std@@@std@@@std@@@0@0ABV10@@Z 10017b60 f i lua.obj
 0001:00016b60       ??$fill@PAV?$_List_unchecked_iterator@V?$_List_val@U?$_List_simple_types@U?$pair@$$CBV?$basic_string@DU?$char_traits@D@std@@V?$allocator@D@2@@std@@U?$pair@PAUrecv_prop_t@valve@nem@@I@2@@std@@@std@@@std@@@std@@V12@@std@@YAXQAV?$_List_unchecked_iterator@V?$_List_val@U?$_List_simple_types@U?$pair@$$CBV?$basic_string@DU?$char_traits@D@std@@V?$allocator@D@2@@std@@U?$pair@PAUrecv_prop_t@valve@nem@@I@2@@std@@@std@@@std@@@0@0ABV10@@Z 10017b60 f i context.obj
 0001:00016b60       ??$fill@PAV?$_List_unchecked_iterator@V?$_List_val@U?$_List_simple_types@U?$pair@$$CBV?$basic_string@DU?$char_traits@D@std@@V?$allocator@D@2@@std@@V?$deque@Ucallback_t@c_lua@nem@@V?$allocator@Ucallback_t@c_lua@nem@@@std@@@2@@std@@@std@@@std@@@std@@V12@@std@@YAXQAV?$_List_unchecked_iterator@V?$_List_val@U?$_List_simple_types@U?$pair@$$CBV?$basic_string@DU?$char_traits@D@std@@V?$allocator@D@2@@std@@V?$deque@Ucallback_t@c_lua@nem@@V?$allocator@Ucallback_t@c_lua@nem@@@std@@@2@@std@@@std@@@std@@@0@0ABV10@@Z 10017b60 f i context.obj
 0001:00016b60       ??$fill@PAV?$_List_unchecked_iterator@V?$_List_val@U?$_List_simple_types@U?$pair@$$CBV?$basic_string_view@DU?$char_traits@D@std@@@std@@P6AHPAUlua_State@@@Z@std@@@std@@@std@@@std@@V12@@std@@YAXQAV?$_List_unchecked_iterator@V?$_List_val@U?$_List_simple_types@U?$pair@$$CBV?$basic_string_view@DU?$char_traits@D@std@@@std@@P6AHPAUlua_State@@@Z@std@@@std@@@std@@@0@0ABV10@@Z 10017b60 f i lua.obj
 0001:00016b60       ??$fill@PAV?$_List_unchecked_iterator@V?$_List_val@U?$_List_simple_types@U?$pair@$$CBV?$basic_string_view@DU?$char_traits@D@std@@@std@@Uindex_call_storage@u_detail@sol@@@std@@@std@@@std@@@std@@V12@@std@@YAXQAV?$_List_unchecked_iterator@V?$_List_val@U?$_List_simple_types@U?$pair@$$CBV?$basic_string_view@DU?$char_traits@D@std@@@std@@Uindex_call_storage@u_detail@sol@@@std@@@std@@@std@@@0@0ABV10@@Z 10017b60 f i lua.obj
 0001:00016b60       ??$fill@PAV?$_List_unchecked_iterator@V?$_List_val@U?$_List_simple_types@U?$pair@$$CBW4e_ent_handle@valve@nem@@Ugrenade_simulation_t@c_visuals@hacks@3@@std@@@std@@@std@@@std@@V12@@std@@YAXQAV?$_List_unchecked_iterator@V?$_List_val@U?$_List_simple_types@U?$pair@$$CBW4e_ent_handle@valve@nem@@Ugrenade_simulation_t@c_visuals@hacks@3@@std@@@std@@@std@@@0@0ABV10@@Z 10017b60 f i context.obj
 0001:00016bd0       ??$_Allocate_at_least_helper@V?$allocator@UImVec3@@@std@@@std@@YAPAUImVec3@@AAV?$allocator@UImVec3@@@0@AAI@Z 10017bd0 f i context.obj
 0001:00016c30       ??1?$_Alloc_construct_ptr@V?$allocator@U?$_List_node@U?$pair@$$CBV?$basic_reference@$0A@@sol@@V12@@std@@PAX@std@@@std@@@std@@QAE@XZ 10017c30 f i lua.obj
 0001:00016c30       ??1?$_Alloc_construct_ptr@V?$allocator@U?$_Tree_node@U?$pair@$$CBIM@std@@PAX@std@@@std@@@std@@QAE@XZ 10017c30 f i imgui_widgets.obj
 0001:00016c30       ??1?$_Alloc_construct_ptr@V?$allocator@U?$_Tree_node@U?$pair@$$CBI_N@std@@PAX@std@@@std@@@std@@QAE@XZ 10017c30 f i imgui_widgets.obj
 0001:00016c30       ??1?$unique_ptr@V?$basic_string@DU?$char_traits@D@std@@V?$allocator@D@2@@std@@V<lambda_1>@?1???$create@V?$basic_string@DU?$char_traits@D@std@@V?$allocator@D@2@@std@@AAY00$$CBD@?$basic_json@Vmap@std@@Vvector@2@V?$basic_string@DU?$char_traits@D@std@@V?$allocator@D@2@@2@_N_J_KNVallocator@2@Uadl_serializer@nlohmann@@V?$vector@EV?$allocator@E@std@@@2@@nlohmann@@CAPAV12@AAY00$$CBD@Z@@std@@QAE@XZ 10017c30 f i context.obj
 0001:00016c30       ??1?$unique_ptr@V?$basic_string@DU?$char_traits@D@std@@V?$allocator@D@2@@std@@V<lambda_1>@?1???$create@V?$basic_string@DU?$char_traits@D@std@@V?$allocator@D@2@@std@@ABV12@@?$basic_json@Vmap@std@@Vvector@2@V?$basic_string@DU?$char_traits@D@std@@V?$allocator@D@2@@2@_N_J_KNVallocator@2@Uadl_serializer@nlohmann@@V?$vector@EV?$allocator@E@std@@@2@@nlohmann@@CAPAV12@ABV12@@Z@@std@@QAE@XZ 10017c30 f i cfg.obj
 0001:00016c50       ?_Insert_node@?$_Tree_val@U?$_Tree_simple_types@U?$pair@$$CBIM@std@@@std@@@std@@QAEPAU?$_Tree_node@U?$pair@$$CBIM@std@@PAX@2@U?$_Tree_id@PAU?$_Tree_node@U?$pair@$$CBIM@std@@PAX@std@@@2@QAU32@@Z 10017c50 f i imgui_widgets.obj
 0001:00016c50       ?_Insert_node@?$_Tree_val@U?$_Tree_simple_types@U?$pair@$$CBIUImVec4@@@std@@@std@@@std@@QAEPAU?$_Tree_node@U?$pair@$$CBIUImVec4@@@std@@PAX@2@U?$_Tree_id@PAU?$_Tree_node@U?$pair@$$CBIUImVec4@@@std@@PAX@std@@@2@QAU32@@Z 10017c50 f i imgui_widgets.obj
 0001:00016c50       ?_Insert_node@?$_Tree_val@U?$_Tree_simple_types@U?$pair@$$CBIUarrow_anim@@@std@@@std@@@std@@QAEPAU?$_Tree_node@U?$pair@$$CBIUarrow_anim@@@std@@PAX@2@U?$_Tree_id@PAU?$_Tree_node@U?$pair@$$CBIUarrow_anim@@@std@@PAX@std@@@2@QAU32@@Z 10017c50 f i imgui_widgets.obj
 0001:00016c50       ?_Insert_node@?$_Tree_val@U?$_Tree_simple_types@U?$pair@$$CBIV?$function@$$A6AXPAVC_Animation@@@Z@std@@@std@@@std@@@std@@QAEPAU?$_Tree_node@U?$pair@$$CBIV?$function@$$A6AXPAVC_Animation@@@Z@std@@@std@@PAX@2@U?$_Tree_id@PAU?$_Tree_node@U?$pair@$$CBIV?$function@$$A6AXPAVC_Animation@@@Z@std@@@std@@PAX@std@@@2@QAU32@@Z 10017c50 f i Animations.obj
 0001:00016c50       ?_Insert_node@?$_Tree_val@U?$_Tree_simple_types@U?$pair@$$CBIV?$function@$$A6AXPAVC_Animation@@M@Z@std@@@std@@@std@@@std@@QAEPAU?$_Tree_node@U?$pair@$$CBIV?$function@$$A6AXPAVC_Animation@@M@Z@std@@@std@@PAX@2@U?$_Tree_id@PAU?$_Tree_node@U?$pair@$$CBIV?$function@$$A6AXPAVC_Animation@@M@Z@std@@@std@@PAX@std@@@2@QAU32@@Z 10017c50 f i Animations.obj
 0001:00016c50       ?_Insert_node@?$_Tree_val@U?$_Tree_simple_types@U?$pair@$$CBIV?$function@$$A6AXPAVC_Element@@@Z@std@@@std@@@std@@@std@@QAEPAU?$_Tree_node@U?$pair@$$CBIV?$function@$$A6AXPAVC_Element@@@Z@std@@@std@@PAX@2@U?$_Tree_id@PAU?$_Tree_node@U?$pair@$$CBIV?$function@$$A6AXPAVC_Element@@@Z@std@@@std@@PAX@std@@@2@QAU32@@Z 10017c50 f i Initializers.obj
 0001:00016c50       ?_Insert_node@?$_Tree_val@U?$_Tree_simple_types@U?$pair@$$CBIVC_KeybindInfo@@@std@@@std@@@std@@QAEPAU?$_Tree_node@U?$pair@$$CBIVC_KeybindInfo@@@std@@PAX@2@U?$_Tree_id@PAU?$_Tree_node@U?$pair@$$CBIVC_KeybindInfo@@@std@@PAX@std@@@2@QAU32@@Z 10017c50 f i Keybinds.obj
 0001:00016c50       ?_Insert_node@?$_Tree_val@U?$_Tree_simple_types@U?$pair@$$CBIVC_Var@@@std@@@std@@@std@@QAEPAU?$_Tree_node@U?$pair@$$CBIVC_Var@@@std@@PAX@2@U?$_Tree_id@PAU?$_Tree_node@U?$pair@$$CBIVC_Var@@@std@@PAX@std@@@2@QAU32@@Z 10017c50 f i Animations.obj
 0001:00016c50       ?_Insert_node@?$_Tree_val@U?$_Tree_simple_types@U?$pair@$$CBI_N@std@@@std@@@std@@QAEPAU?$_Tree_node@U?$pair@$$CBI_N@std@@PAX@2@U?$_Tree_id@PAU?$_Tree_node@U?$pair@$$CBI_N@std@@PAX@std@@@2@QAU32@@Z 10017c50 f i imgui_widgets.obj
 0001:00016c50       ?_Insert_node@?$_Tree_val@U?$_Tree_simple_types@U?$pair@$$CBV?$basic_string@DU?$char_traits@D@std@@V?$allocator@D@2@@std@@Ubinds_data_t@c_visuals@hacks@nem@@@std@@@std@@@std@@QAEPAU?$_Tree_node@U?$pair@$$CBV?$basic_string@DU?$char_traits@D@std@@V?$allocator@D@2@@std@@Ubinds_data_t@c_visuals@hacks@nem@@@std@@PAX@2@U?$_Tree_id@PAU?$_Tree_node@U?$pair@$$CBV?$basic_string@DU?$char_traits@D@std@@V?$allocator@D@2@@std@@Ubinds_data_t@c_visuals@hacks@nem@@@std@@PAX@std@@@2@QAU32@@Z 10017c50 f i visuals.obj
 0001:00016c50       ?_Insert_node@?$_Tree_val@U?$_Tree_simple_types@U?$pair@$$CBV?$basic_string@DU?$char_traits@D@std@@V?$allocator@D@2@@std@@V?$basic_json@Vmap@std@@Vvector@2@V?$basic_string@DU?$char_traits@D@std@@V?$allocator@D@2@@2@_N_J_KNVallocator@2@Uadl_serializer@nlohmann@@V?$vector@EV?$allocator@E@std@@@2@@nlohmann@@@std@@@std@@@std@@QAEPAU?$_Tree_node@U?$pair@$$CBV?$basic_string@DU?$char_traits@D@std@@V?$allocator@D@2@@std@@V?$basic_json@Vmap@std@@Vvector@2@V?$basic_string@DU?$char_traits@D@std@@V?$allocator@D@2@@2@_N_J_KNVallocator@2@Uadl_serializer@nlohmann@@V?$vector@EV?$allocator@E@std@@@2@@nlohmann@@@std@@PAX@2@U?$_Tree_id@PAU?$_Tree_node@U?$pair@$$CBV?$basic_string@DU?$char_traits@D@std@@V?$allocator@D@2@@std@@V?$basic_json@Vmap@std@@Vvector@2@V?$basic_string@DU?$char_traits@D@std@@V?$allocator@D@2@@2@_N_J_KNVallocator@2@Uadl_serializer@nlohmann@@V?$vector@EV?$allocator@E@std@@@2@@nlohmann@@@std@@PAX@std@@@2@QAU32@@Z 10017c50 f i context.obj
 0001:00016e40       ?_Change_array@?$vector@V?$basic_json@Vmap@std@@Vvector@2@V?$basic_string@DU?$char_traits@D@std@@V?$allocator@D@2@@2@_N_J_KNVallocator@2@Uadl_serializer@nlohmann@@V?$vector@EV?$allocator@E@std@@@2@@nlohmann@@V?$allocator@V?$basic_json@Vmap@std@@Vvector@2@V?$basic_string@DU?$char_traits@D@std@@V?$allocator@D@2@@2@_N_J_KNVallocator@2@Uadl_serializer@nlohmann@@V?$vector@EV?$allocator@E@std@@@2@@nlohmann@@@std@@@std@@AAEXQAV?$basic_json@Vmap@std@@Vvector@2@V?$basic_string@DU?$char_traits@D@std@@V?$allocator@D@2@@2@_N_J_KNVallocator@2@Uadl_serializer@nlohmann@@V?$vector@EV?$allocator@E@std@@@2@@nlohmann@@II@Z 10017e40 f i context.obj
 0001:00016ed0       ?allocate@?$allocator@V?$basic_string@DU?$char_traits@D@std@@V?$allocator@D@2@@std@@@std@@QAEPAV?$basic_string@DU?$char_traits@D@std@@V?$allocator@D@2@@2@I@Z 10017ed0 f i context.obj
 0001:00016f40       ??1?$vector@EV?$allocator@E@std@@@std@@QAE@XZ 10017f40 f i context.obj
 0001:00016f50       ??1?$_Alloc_construct_ptr@V?$allocator@U?$_Tree_node@U?$pair@$$CBV?$basic_string@DU?$char_traits@D@std@@V?$allocator@D@2@@std@@V?$basic_json@Vmap@std@@Vvector@2@V?$basic_string@DU?$char_traits@D@std@@V?$allocator@D@2@@2@_N_J_KNVallocator@2@Uadl_serializer@nlohmann@@V?$vector@EV?$allocator@E@std@@@2@@nlohmann@@@std@@PAX@std@@@std@@@std@@QAE@XZ 10017f50 f i context.obj
 0001:00016f50       ??1?$_Tree_temp_node_alloc@V?$allocator@U?$_Tree_node@U?$pair@$$CBV?$basic_string@DU?$char_traits@D@std@@V?$allocator@D@2@@std@@V?$basic_json@Vmap@std@@Vvector@2@V?$basic_string@DU?$char_traits@D@std@@V?$allocator@D@2@@2@_N_J_KNVallocator@2@Uadl_serializer@nlohmann@@V?$vector@EV?$allocator@E@std@@@2@@nlohmann@@@std@@PAX@std@@@std@@@std@@QAE@XZ 10017f50 f i context.obj
 0001:00016f70       ??1C_KeybindInfo@@QAE@XZ   10017f70 f i context.obj
 0001:00016f80       ??1aim_target_t@hacks@nem@@QAE@XZ 10017f80 f i context.obj
 0001:00016fc0       ??1log_data_t@hacks@nem@@QAE@XZ 10017fc0 f i context.obj
 0001:00016fe0       ??1?$_Uninitialized_backout_al@V?$allocator@V?$basic_json@Vmap@std@@Vvector@2@V?$basic_string@DU?$char_traits@D@std@@V?$allocator@D@2@@2@_N_J_KNVallocator@2@Uadl_serializer@nlohmann@@V?$vector@EV?$allocator@E@std@@@2@@nlohmann@@@std@@@std@@QAE@XZ 10017fe0 f i context.obj
 0001:00017010       ??1_Reallocation_guard@?$vector@V?$basic_json@Vmap@std@@Vvector@2@V?$basic_string@DU?$char_traits@D@std@@V?$allocator@D@2@@2@_N_J_KNVallocator@2@Uadl_serializer@nlohmann@@V?$vector@EV?$allocator@E@std@@@2@@nlohmann@@V?$allocator@V?$basic_json@Vmap@std@@Vvector@2@V?$basic_string@DU?$char_traits@D@std@@V?$allocator@D@2@@2@_N_J_KNVallocator@2@Uadl_serializer@nlohmann@@V?$vector@EV?$allocator@E@std@@@2@@nlohmann@@@std@@@std@@QAE@XZ 10018010 f i context.obj
 0001:00017080       ??1?$vector@DV?$allocator@D@std@@@std@@QAE@XZ 10018080 f i cfg.obj
 0001:00017080       ?_Tidy@?$vector@EV?$allocator@E@std@@@std@@AAEXXZ 10018080 f i context.obj
 0001:000170e0       ??1binds_data_t@c_visuals@hacks@nem@@QAE@XZ 100180e0 f i context.obj
 0001:00017100       ?_Tidy@?$deque@Ucallback_t@c_lua@nem@@V?$allocator@Ucallback_t@c_lua@nem@@@std@@@std@@AAEXXZ 10018100 f i context.obj
 0001:000171e9       ??_E?$basic_stringstream@DU?$char_traits@D@std@@V?$allocator@D@2@@std@@$4PPPPPPPM@A@AEPAXI@Z 100181e9 f i context.obj
 0001:00017200       ?fpclassify@@YAHN@Z        10018200 f i cfg.obj
 0001:00017230       _vsnprintf                 10018230 f i cfg.obj
 0001:00017270       _snprintf                  10018270 f i cfg.obj
 0001:00017290       _wmemcmp                   10018290 f i cfg.obj
 0001:00017410       ?_Get_deleter@_Ref_count_base@std@@UBEPAXABVtype_info@@@Z 10018410 f i cfg.obj
 0001:00017420       ?default_error_condition@error_category@std@@UBE?AVerror_condition@2@H@Z 10018420 f i cfg.obj
 0001:00017440       ?equivalent@error_category@std@@UBE_NHABVerror_condition@2@@Z 10018440 f i cfg.obj
 0001:00017480       ?equivalent@error_category@std@@UBE_NABVerror_code@2@H@Z 10018480 f i cfg.obj
 0001:000174b0       ?make_error_code@std@@YA?AVerror_code@1@W4errc@1@@Z 100184b0 f i cfg.obj
 0001:000174c0       ??0system_error@std@@QAE@Verror_code@1@@Z 100184c0 f i cfg.obj
 0001:00017520       ??0system_error@std@@QAE@Verror_code@1@ABV?$basic_string@DU?$char_traits@D@std@@V?$allocator@D@2@@1@@Z 10018520 f i cfg.obj
 0001:00017660       ??_Esystem_error@std@@UAEPAXI@Z 10018660 f i * CIL library *:* CIL module *
 0001:00017660       ??_Gsystem_error@std@@UAEPAXI@Z 10018660 f i cfg.obj
 0001:00017690       ?_Throw_system_error@std@@YAXW4errc@1@@Z 10018690 f i cfg.obj
 0001:000176d0       ??1_System_error_message@std@@QAE@XZ 100186d0 f i cfg.obj
 0001:000176e0       ?name@_Generic_error_category@std@@UBEPBDXZ 100186e0 f i cfg.obj
 0001:000176f0       ?message@_Generic_error_category@std@@UBE?AV?$basic_string@DU?$char_traits@D@std@@V?$allocator@D@2@@2@H@Z 100186f0 f i cfg.obj
 0001:00017740       ??_E?$output_string_adapter@DV?$basic_string@DU?$char_traits@D@std@@V?$allocator@D@2@@std@@@detail@nlohmann@@UAEPAXI@Z 10018740 f i * CIL library *:* CIL module *
 0001:00017740       ??_E_Generic_error_category@std@@UAEPAXI@Z 10018740 f i * CIL library *:* CIL module *
 0001:00017740       ??_E_System_error_category@std@@UAEPAXI@Z 10018740 f i * CIL library *:* CIL module *
 0001:00017740       ??_G?$output_string_adapter@DV?$basic_string@DU?$char_traits@D@std@@V?$allocator@D@2@@std@@@detail@nlohmann@@UAEPAXI@Z 10018740 f i cfg.obj
 0001:00017740       ??_G_Generic_error_category@std@@UAEPAXI@Z 10018740 f i cfg.obj
 0001:00017740       ??_G_System_error_category@std@@UAEPAXI@Z 10018740 f i cfg.obj
 0001:00017760       ?name@_System_error_category@std@@UBEPBDXZ 10018760 f i cfg.obj
 0001:00017770       ?message@_System_error_category@std@@UBE?AV?$basic_string@DU?$char_traits@D@std@@V?$allocator@D@2@@2@H@Z 10018770 f i cfg.obj
 0001:00017800       ?default_error_condition@_System_error_category@std@@UBE?AVerror_condition@2@H@Z 10018800 f i cfg.obj
 0001:00017880       ?_Make_ec@std@@YA?AVerror_code@1@W4__std_win_error@@@Z 10018880 f i cfg.obj
 0001:00017890       ?_Throw_system_error_from_std_win_error@std@@YAXW4__std_win_error@@@Z 10018890 f i cfg.obj
 0001:000178e0       ?to_string@std@@YA?AV?$basic_string@DU?$char_traits@D@std@@V?$allocator@D@2@@1@H@Z 100188e0 f i cfg.obj
 0001:00017960       ?_Find_root_name_end@filesystem@std@@YAPB_WQB_W0@Z 10018960 f i cfg.obj
 0001:00017a80       ??_0path@filesystem@std@@QAEAAV012@ABV012@@Z 10018a80 f i cfg.obj
 0001:00017c10       ??4path@filesystem@std@@QAEAAV012@ABV012@@Z 10018c10 f i cfg.obj
 0001:00017d40       ??1?$basic_string@_WU?$char_traits@_W@std@@V?$allocator@_W@2@@std@@QAE@XZ 10018d40 f i cfg.obj
 0001:00017d40       ??1path@filesystem@std@@QAE@XZ 10018d40 f i cfg.obj
 0001:00017d50       ??0path@filesystem@std@@QAE@ABV012@@Z 10018d50 f i cfg.obj
 0001:00017e00       ??0filesystem_error@filesystem@std@@QAE@ABV?$basic_string@DU?$char_traits@D@std@@V?$allocator@D@2@@2@ABVpath@12@Verror_code@2@@Z 10018e00 f i cfg.obj
 0001:00017ef0       ?what@filesystem_error@filesystem@std@@UBEPBDXZ 10018ef0 f i cfg.obj
 0001:00017f00       ?_Pretty_message@filesystem_error@filesystem@std@@CA?AV?$basic_string@DU?$char_traits@D@std@@V?$allocator@D@2@@3@V?$basic_string_view@DU?$char_traits@D@std@@@3@ABVpath@23@1@Z 10018f00 f i cfg.obj
 0001:00018060       ??_Efilesystem_error@filesystem@std@@UAEPAXI@Z 10019060 f i * CIL library *:* CIL module *
 0001:00018060       ??_Gfilesystem_error@filesystem@std@@UAEPAXI@Z 10019060 f i cfg.obj
 0001:000180a0       ??1filesystem_error@filesystem@std@@UAE@XZ 100190a0 f i cfg.obj
 0001:000180d0       ?_Throw_fs_error@filesystem@std@@YAXPBDW4__std_win_error@@ABVpath@12@@Z 100190d0 f i cfg.obj
 0001:00018150       ?create_directory@filesystem@std@@YA_NABVpath@12@@Z 10019150 f i cfg.obj
 0001:00018190       ?what@exception@detail@nlohmann@@UBEPBDXZ 10019190 f i cfg.obj
 0001:000181a0       ?name@exception@detail@nlohmann@@KA?AV?$basic_string@DU?$char_traits@D@std@@V?$allocator@D@2@@std@@ABV45@H@Z 100191a0 f i cfg.obj
 0001:00018310       ?create@parse_error@detail@nlohmann@@SA?AV123@HABUposition_t@23@ABV?$basic_string@DU?$char_traits@D@std@@V?$allocator@D@2@@std@@@Z 10019310 f i cfg.obj
 0001:000185e0       ?position_string@parse_error@detail@nlohmann@@CA?AV?$basic_string@DU?$char_traits@D@std@@V?$allocator@D@2@@std@@ABUposition_t@23@@Z 100195e0 f i cfg.obj
 0001:000187d0       ??1out_of_range@detail@nlohmann@@UAE@XZ 100197d0 f i cfg.obj
 0001:000187d0       ??1parse_error@detail@nlohmann@@UAE@XZ 100197d0 f i cfg.obj
 0001:000187e0       ??_Eparse_error@detail@nlohmann@@UAEPAXI@Z 100197e0 f i * CIL library *:* CIL module *
 0001:000187e0       ??_Gparse_error@detail@nlohmann@@UAEPAXI@Z 100197e0 f i cfg.obj
 0001:00018810       ?create@out_of_range@detail@nlohmann@@SA?AV123@HABV?$basic_string@DU?$char_traits@D@std@@V?$allocator@D@2@@std@@@Z 10019810 f i cfg.obj
 0001:00018990       ??_Eout_of_range@detail@nlohmann@@UAEPAXI@Z 10019990 f i * CIL library *:* CIL module *
 0001:00018990       ??_Gout_of_range@detail@nlohmann@@UAEPAXI@Z 10019990 f i cfg.obj
 0001:000189c0       ?mul@diyfp@dtoa_impl@detail@nlohmann@@SA?AU1234@ABU1234@0@Z 100199c0 f i cfg.obj
 0001:00018a70       ?grisu2_round@dtoa_impl@detail@nlohmann@@YAXPADH_K111@Z 10019a70 f i cfg.obj
 0001:00018b20       ?grisu2_digit_gen@dtoa_impl@detail@nlohmann@@YAXPADAAH1Udiyfp@123@22@Z 10019b20 f i cfg.obj
 0001:00018e70       ?format_buffer@dtoa_impl@detail@nlohmann@@YAPADPADHHHH@Z 10019e70 f i cfg.obj
 0001:00019000       ??0?$basic_string_view@DU?$char_traits@D@std@@@std@@QAE@QBD@Z 1001a000 f i cfg.obj
 0001:00019030       ?save@c_cfg@sdk@@UBEXH@Z   1001a030 f   cfg.obj
 0001:00019460       ??_D?$basic_ofstream@DU?$char_traits@D@std@@@std@@QAEXXZ 1001a460 f i cfg.obj
 0001:000194a0       ?load@c_cfg@sdk@@UAEXH@Z   1001a4a0 f   cfg.obj
 0001:000199a0       ??_D?$basic_ifstream@DU?$char_traits@D@std@@@std@@QAEXXZ 1001a9a0 f i cfg.obj
 0001:000199e0       ??$_Convert_wide_to_narrow_replace_chars@U?$char_traits@D@std@@V?$allocator@D@2@@filesystem@std@@YA?AV?$basic_string@DU?$char_traits@D@std@@V?$allocator@D@2@@1@W4__std_code_page@@V?$basic_string_view@_WU?$char_traits@_W@std@@@1@ABV?$allocator@D@1@@Z 1001a9e0 f i cfg.obj
 0001:00019ae0       ??$?A$$CBD@?$basic_json@Vmap@std@@Vvector@2@V?$basic_string@DU?$char_traits@D@std@@V?$allocator@D@2@@2@_N_J_KNVallocator@2@Uadl_serializer@nlohmann@@V?$vector@EV?$allocator@E@std@@@2@@nlohmann@@QAEAAV01@PBD@Z 1001aae0 f i cfg.obj
 0001:00019bd0       ??$parse@AAV?$basic_string@DU?$char_traits@D@std@@V?$allocator@D@2@@std@@@?$basic_json@Vmap@std@@Vvector@2@V?$basic_string@DU?$char_traits@D@std@@V?$allocator@D@2@@2@_N_J_KNVallocator@2@Uadl_serializer@nlohmann@@V?$vector@EV?$allocator@E@std@@@2@@nlohmann@@SA?AV01@AAV?$basic_string@DU?$char_traits@D@std@@V?$allocator@D@2@@std@@V?$function@$$A6A_NHW4parse_event_t@detail@nlohmann@@AAV?$basic_json@Vmap@std@@Vvector@2@V?$basic_string@DU?$char_traits@D@std@@V?$allocator@D@2@@2@_N_J_KNVallocator@2@Uadl_serializer@nlohmann@@V?$vector@EV?$allocator@E@std@@@2@@3@@Z@3@_N2@Z 1001abd0 f i cfg.obj
 0001:00019ce0       ?dump@?$basic_json@Vmap@std@@Vvector@2@V?$basic_string@DU?$char_traits@D@std@@V?$allocator@D@2@@2@_N_J_KNVallocator@2@Uadl_serializer@nlohmann@@V?$vector@EV?$allocator@E@std@@@2@@nlohmann@@QBE?AV?$basic_string@DU?$char_traits@D@std@@V?$allocator@D@2@@std@@HD_NW4error_handler_t@detail@2@@Z 1001ace0 f i cfg.obj
 0001:00019ef0       ?resize@?$basic_string@_WU?$char_traits@_W@std@@V?$allocator@_W@2@@std@@QAEXI_W@Z 1001aef0 f i cfg.obj
 0001:00019f70       ?push_back@?$basic_string@_WU?$char_traits@_W@std@@V?$allocator@_W@2@@std@@QAEX_W@Z 1001af70 f i cfg.obj
 0001:0001a090       ?append@?$basic_string@_WU?$char_traits@_W@std@@V?$allocator@_W@2@@std@@QAEAAV12@QB_WI@Z 1001b090 f i cfg.obj
 0001:0001a100       ?reserve@?$basic_string@DU?$char_traits@D@std@@V?$allocator@D@2@@std@@QAEXI@Z 1001b100 f i cfg.obj
 0001:0001a200       ?resize@?$basic_string@DU?$char_traits@D@std@@V?$allocator@D@2@@std@@QAEXID@Z 1001b200 f i cfg.obj
 0001:0001a230       ?append@?$basic_string@DU?$char_traits@D@std@@V?$allocator@D@2@@std@@QAEAAV12@QBDI@Z 1001b230 f i cfg.obj
 0001:0001a390       ?append@?$basic_string@DU?$char_traits@D@std@@V?$allocator@D@2@@std@@QAEAAV12@ABV12@@Z 1001b390 f i cfg.obj
 0001:0001a3b0       ??Y?$basic_string@DU?$char_traits@D@std@@V?$allocator@D@2@@std@@QAEAAV01@QBD@Z 1001b3b0 f i cfg.obj
 0001:0001a3e0       ??0?$basic_string@DU?$char_traits@D@std@@V?$allocator@D@2@@std@@QAE@$$QAV01@@Z 1001b3e0 f i cfg.obj
 0001:0001a430       ??0?$basic_string@DU?$char_traits@D@std@@V?$allocator@D@2@@std@@QAE@ID@Z 1001b430 f i cfg.obj
 0001:0001a4e0       ?imbue@?$basic_filebuf@DU?$char_traits@D@std@@@std@@MAEXABVlocale@2@@Z 1001b4e0 f i cfg.obj
 0001:0001a520       ?sync@?$basic_filebuf@DU?$char_traits@D@std@@@std@@MAEHXZ 1001b520 f i cfg.obj
 0001:0001a560       ?setbuf@?$basic_filebuf@DU?$char_traits@D@std@@@std@@MAEPAV?$basic_streambuf@DU?$char_traits@D@std@@@2@PAD_J@Z 1001b560 f i cfg.obj
 0001:0001a630       ?seekpos@?$basic_filebuf@DU?$char_traits@D@std@@@std@@MAE?AV?$fpos@U_Mbstatet@@@2@V32@H@Z 1001b630 f i cfg.obj
 0001:0001a700       ?seekoff@?$basic_filebuf@DU?$char_traits@D@std@@@std@@MAE?AV?$fpos@U_Mbstatet@@@2@_JHH@Z 1001b700 f i cfg.obj
 0001:0001a810       ?xsputn@?$basic_filebuf@DU?$char_traits@D@std@@@std@@MAE_JPBD_J@Z 1001b810 f i cfg.obj
 0001:0001a910       ?xsgetn@?$basic_filebuf@DU?$char_traits@D@std@@@std@@MAE_JPAD_J@Z 1001b910 f i cfg.obj
 0001:0001aa20       ?uflow@?$basic_filebuf@DU?$char_traits@D@std@@@std@@MAEHXZ 1001ba20 f i cfg.obj
 0001:0001ac40       ?underflow@?$basic_filebuf@DU?$char_traits@D@std@@@std@@MAEHXZ 1001bc40 f i cfg.obj
 0001:0001ac80       ?pbackfail@?$basic_filebuf@DU?$char_traits@D@std@@@std@@MAEHH@Z 1001bc80 f i cfg.obj
 0001:0001ad30       ?overflow@?$basic_filebuf@DU?$char_traits@D@std@@@std@@MAEHH@Z 1001bd30 f i cfg.obj
 0001:0001ae50       ?_Unlock@?$basic_filebuf@DU?$char_traits@D@std@@@std@@UAEXXZ 1001be50 f i cfg.obj
 0001:0001ae60       ?_Lock@?$basic_filebuf@DU?$char_traits@D@std@@@std@@UAEXXZ 1001be60 f i cfg.obj
 0001:0001ae70       ??1?$basic_filebuf@DU?$char_traits@D@std@@@std@@UAE@XZ 1001be70 f i cfg.obj
 0001:0001af40       ??1?$parser@V?$basic_json@Vmap@std@@Vvector@2@V?$basic_string@DU?$char_traits@D@std@@V?$allocator@D@2@@2@_N_J_KNVallocator@2@Uadl_serializer@nlohmann@@V?$vector@EV?$allocator@E@std@@@2@@nlohmann@@V?$iterator_input_adapter@V?$_String_const_iterator@V?$_String_val@U?$_Simple_types@D@std@@@std@@@std@@@detail@2@@detail@nlohmann@@QAE@XZ 1001bf40 f i cfg.obj
 0001:0001af80       ??1?$lexer@V?$basic_json@Vmap@std@@Vvector@2@V?$basic_string@DU?$char_traits@D@std@@V?$allocator@D@2@@2@_N_J_KNVallocator@2@Uadl_serializer@nlohmann@@V?$vector@EV?$allocator@E@std@@@2@@nlohmann@@V?$iterator_input_adapter@V?$_String_const_iterator@V?$_String_val@U?$_Simple_types@D@std@@@std@@@std@@@detail@2@@detail@nlohmann@@QAE@XZ 1001bf80 f i cfg.obj
 0001:0001afa0       ??1?$serializer@V?$basic_json@Vmap@std@@Vvector@2@V?$basic_string@DU?$char_traits@D@std@@V?$allocator@D@2@@2@_N_J_KNVallocator@2@Uadl_serializer@nlohmann@@V?$vector@EV?$allocator@E@std@@@2@@nlohmann@@@detail@nlohmann@@QAE@XZ 1001bfa0 f i cfg.obj
 0001:0001afe0       ??_E?$basic_ofstream@DU?$char_traits@D@std@@@std@@UAEPAXI@Z 1001bfe0 f i * CIL library *:* CIL module *
 0001:0001afe0       ??_G?$basic_ofstream@DU?$char_traits@D@std@@@std@@UAEPAXI@Z 1001bfe0 f i cfg.obj
 0001:0001b040       ??_E?$basic_ifstream@DU?$char_traits@D@std@@@std@@UAEPAXI@Z 1001c040 f i * CIL library *:* CIL module *
 0001:0001b040       ??_G?$basic_ifstream@DU?$char_traits@D@std@@@std@@UAEPAXI@Z 1001c040 f i cfg.obj
 0001:0001b0a0       ??_E?$basic_filebuf@DU?$char_traits@D@std@@@std@@UAEPAXI@Z 1001c0a0 f i * CIL library *:* CIL module *
 0001:0001b0a0       ??_G?$basic_filebuf@DU?$char_traits@D@std@@@std@@UAEPAXI@Z 1001c0a0 f i cfg.obj
 0001:0001b0d0       ??$isfinite@N@@YA_NN@Z     1001c0d0 f i cfg.obj
 0001:0001b100       ??$_Convert_Source_to_wide@$$BY09DU_Normal_conversion@filesystem@std@@@filesystem@std@@YA?AV?$basic_string@_WU?$char_traits@_W@std@@V?$allocator@_W@2@@1@AAY09$$CBDU_Normal_conversion@01@@Z 1001c100 f i cfg.obj
 0001:0001b130       ??$_Insert_string@DU?$char_traits@D@std@@I@std@@YAAAV?$basic_ostream@DU?$char_traits@D@std@@@0@AAV10@QBDI@Z 1001c130 f i cfg.obj
 0001:0001b2d0       ??$parser@V?$iterator_input_adapter@V?$_String_const_iterator@V?$_String_val@U?$_Simple_types@D@std@@@std@@@std@@@detail@nlohmann@@@?$basic_json@Vmap@std@@Vvector@2@V?$basic_string@DU?$char_traits@D@std@@V?$allocator@D@2@@2@_N_J_KNVallocator@2@Uadl_serializer@nlohmann@@V?$vector@EV?$allocator@E@std@@@2@@nlohmann@@CA?AV?$parser@V?$basic_json@Vmap@std@@Vvector@2@V?$basic_string@DU?$char_traits@D@std@@V?$allocator@D@2@@2@_N_J_KNVallocator@2@Uadl_serializer@nlohmann@@V?$vector@EV?$allocator@E@std@@@2@@nlohmann@@V?$iterator_input_adapter@V?$_String_const_iterator@V?$_String_val@U?$_Simple_types@D@std@@@std@@@std@@@detail@2@@detail@1@V?$iterator_input_adapter@V?$_String_const_iterator@V?$_String_val@U?$_Simple_types@D@std@@@std@@@std@@@31@V?$function@$$A6A_NHW4parse_event_t@detail@nlohmann@@AAV?$basic_json@Vmap@std@@Vvector@2@V?$basic_string@DU?$char_traits@D@std@@V?$allocator@D@2@@2@_N_J_KNVallocator@2@Uadl_serializer@nlohmann@@V?$vector@EV?$allocator@E@std@@@2@@3@@Z@std@@_N2@Z 1001c2d0 f i cfg.obj
 0001:0001b480       ??$_Reallocate_grow_by@V<lambda_1>@?1??append@?$basic_string@_WU?$char_traits@_W@std@@V?$allocator@_W@2@@std@@QAEAAV34@QB_WI@Z@PB_WI@?$basic_string@_WU?$char_traits@_W@std@@V?$allocator@_W@2@@std@@AAEAAV01@IV<lambda_1>@?1??append@01@QAEAAV01@QB_WI@Z@PB_WI@Z 1001c480 f i cfg.obj
 0001:0001b5b0       ??$use_facet@V?$codecvt@DDU_Mbstatet@@@std@@@std@@YAABV?$codecvt@DDU_Mbstatet@@@0@ABVlocale@0@@Z 1001c5b0 f i cfg.obj
 0001:0001b6c0       ?parse@?$parser@V?$basic_json@Vmap@std@@Vvector@2@V?$basic_string@DU?$char_traits@D@std@@V?$allocator@D@2@@2@_N_J_KNVallocator@2@Uadl_serializer@nlohmann@@V?$vector@EV?$allocator@E@std@@@2@@nlohmann@@V?$iterator_input_adapter@V?$_String_const_iterator@V?$_String_val@U?$_Simple_types@D@std@@@std@@@std@@@detail@2@@detail@nlohmann@@QAEX_NAAV?$basic_json@Vmap@std@@Vvector@2@V?$basic_string@DU?$char_traits@D@std@@V?$allocator@D@2@@2@_N_J_KNVallocator@2@Uadl_serializer@nlohmann@@V?$vector@EV?$allocator@E@std@@@2@@3@@Z 1001c6c0 f i cfg.obj
 0001:0001bc90       ??A?$map@V?$basic_string@DU?$char_traits@D@std@@V?$allocator@D@2@@std@@V?$basic_json@Vmap@std@@Vvector@2@V?$basic_string@DU?$char_traits@D@std@@V?$allocator@D@2@@2@_N_J_KNVallocator@2@Uadl_serializer@nlohmann@@V?$vector@EV?$allocator@E@std@@@2@@nlohmann@@U?$less@X@2@V?$allocator@U?$pair@$$CBV?$basic_string@DU?$char_traits@D@std@@V?$allocator@D@2@@std@@V?$basic_json@Vmap@std@@Vvector@2@V?$basic_string@DU?$char_traits@D@std@@V?$allocator@D@2@@2@_N_J_KNVallocator@2@Uadl_serializer@nlohmann@@V?$vector@EV?$allocator@E@std@@@2@@nlohmann@@@std@@@2@@std@@QAEAAV?$basic_json@Vmap@std@@Vvector@2@V?$basic_string@DU?$char_traits@D@std@@V?$allocator@D@2@@2@_N_J_KNVallocator@2@Uadl_serializer@nlohmann@@V?$vector@EV?$allocator@E@std@@@2@@nlohmann@@$$QAV?$basic_string@DU?$char_traits@D@std@@V?$allocator@D@2@@1@@Z 1001cc90 f i cfg.obj
 0001:0001bdd0       ?dump@?$serializer@V?$basic_json@Vmap@std@@Vvector@2@V?$basic_string@DU?$char_traits@D@std@@V?$allocator@D@2@@2@_N_J_KNVallocator@2@Uadl_serializer@nlohmann@@V?$vector@EV?$allocator@E@std@@@2@@nlohmann@@@detail@nlohmann@@QAEXABV?$basic_json@Vmap@std@@Vvector@2@V?$basic_string@DU?$char_traits@D@std@@V?$allocator@D@2@@2@_N_J_KNVallocator@2@Uadl_serializer@nlohmann@@V?$vector@EV?$allocator@E@std@@@2@@3@_N1II@Z 1001cdd0 f i cfg.obj
 0001:0001cad0       ?_Tidy_deallocate@?$basic_string@_WU?$char_traits@_W@std@@V?$allocator@_W@2@@std@@AAEXXZ 1001dad0 f i cfg.obj
 0001:0001cb30       ?append@?$basic_string@DU?$char_traits@D@std@@V?$allocator@D@2@@std@@QAEAAV12@ID@Z 1001db30 f i cfg.obj
 0001:0001cca0       ??0?$basic_string@DU?$char_traits@D@std@@V?$allocator@D@2@@std@@QAE@U_String_constructor_concat_tag@1@AAV01@1@Z 1001dca0 f i cfg.obj
 0001:0001ce30       ??0?$basic_string@DU?$char_traits@D@std@@V?$allocator@D@2@@std@@QAE@U_String_constructor_concat_tag@1@ABV01@QBDI2I@Z 1001de30 f i cfg.obj
 0001:0001ced0       ?_Endwrite@?$basic_filebuf@DU?$char_traits@D@std@@@std@@IAE_NXZ 1001ded0 f i cfg.obj
 0001:0001cf70       ??1?$json_sax_dom_callback_parser@V?$basic_json@Vmap@std@@Vvector@2@V?$basic_string@DU?$char_traits@D@std@@V?$allocator@D@2@@2@_N_J_KNVallocator@2@Uadl_serializer@nlohmann@@V?$vector@EV?$allocator@E@std@@@2@@nlohmann@@@detail@nlohmann@@QAE@XZ 1001df70 f i cfg.obj
 0001:0001cfc0       ??1?$json_sax_dom_parser@V?$basic_json@Vmap@std@@Vvector@2@V?$basic_string@DU?$char_traits@D@std@@V?$allocator@D@2@@2@_N_J_KNVallocator@2@Uadl_serializer@nlohmann@@V?$vector@EV?$allocator@E@std@@@2@@nlohmann@@@detail@nlohmann@@QAE@XZ 1001dfc0 f i cfg.obj
 0001:0001cfd0       ??$_Convert_Source_to_wide@PBDU_Normal_conversion@filesystem@std@@@filesystem@std@@YA?AV?$basic_string@_WU?$char_traits@_W@std@@V?$allocator@_W@2@@1@ABQBDU_Normal_conversion@01@@Z 1001dfd0 f i cfg.obj
 0001:0001d010       ??$_Allocate_for_capacity@$0A@@?$basic_string@_WU?$char_traits@_W@std@@V?$allocator@_W@2@@std@@CAPA_WAAV?$allocator@_W@1@AAI@Z 1001e010 f i cfg.obj
 0001:0001d070       ??$_Convert_stringoid_to_wide@U_Normal_conversion@filesystem@std@@@filesystem@std@@YA?AV?$basic_string@_WU?$char_traits@_W@std@@V?$allocator@_W@2@@1@V?$basic_string_view@DU?$char_traits@D@std@@@1@U_Normal_conversion@01@@Z 1001e070 f i cfg.obj
 0001:0001d160       ??$sax_parse_internal@V?$json_sax_dom_callback_parser@V?$basic_json@Vmap@std@@Vvector@2@V?$basic_string@DU?$char_traits@D@std@@V?$allocator@D@2@@2@_N_J_KNVallocator@2@Uadl_serializer@nlohmann@@V?$vector@EV?$allocator@E@std@@@2@@nlohmann@@@detail@nlohmann@@@?$parser@V?$basic_json@Vmap@std@@Vvector@2@V?$basic_string@DU?$char_traits@D@std@@V?$allocator@D@2@@2@_N_J_KNVallocator@2@Uadl_serializer@nlohmann@@V?$vector@EV?$allocator@E@std@@@2@@nlohmann@@V?$iterator_input_adapter@V?$_String_const_iterator@V?$_String_val@U?$_Simple_types@D@std@@@std@@@std@@@detail@2@@detail@nlohmann@@AAE_NPAV?$json_sax_dom_callback_parser@V?$basic_json@Vmap@std@@Vvector@2@V?$basic_string@DU?$char_traits@D@std@@V?$allocator@D@2@@2@_N_J_KNVallocator@2@Uadl_serializer@nlohmann@@V?$vector@EV?$allocator@E@std@@@2@@nlohmann@@@12@@Z 1001e160 f i cfg.obj
 0001:0001da70       ??$sax_parse_internal@V?$json_sax_dom_parser@V?$basic_json@Vmap@std@@Vvector@2@V?$basic_string@DU?$char_traits@D@std@@V?$allocator@D@2@@2@_N_J_KNVallocator@2@Uadl_serializer@nlohmann@@V?$vector@EV?$allocator@E@std@@@2@@nlohmann@@@detail@nlohmann@@@?$parser@V?$basic_json@Vmap@std@@Vvector@2@V?$basic_string@DU?$char_traits@D@std@@V?$allocator@D@2@@2@_N_J_KNVallocator@2@Uadl_serializer@nlohmann@@V?$vector@EV?$allocator@E@std@@@2@@nlohmann@@V?$iterator_input_adapter@V?$_String_const_iterator@V?$_String_val@U?$_Simple_types@D@std@@@std@@@std@@@detail@2@@detail@nlohmann@@AAE_NPAV?$json_sax_dom_parser@V?$basic_json@Vmap@std@@Vvector@2@V?$basic_string@DU?$char_traits@D@std@@V?$allocator@D@2@@2@_N_J_KNVallocator@2@Uadl_serializer@nlohmann@@V?$vector@EV?$allocator@E@std@@@2@@nlohmann@@@12@@Z 1001ea70 f i cfg.obj
 0001:0001e7b0       ??$dump_integer@E$0A@@?$serializer@V?$basic_json@Vmap@std@@Vvector@2@V?$basic_string@DU?$char_traits@D@std@@V?$allocator@D@2@@2@_N_J_KNVallocator@2@Uadl_serializer@nlohmann@@V?$vector@EV?$allocator@E@std@@@2@@nlohmann@@@detail@nlohmann@@AAEXE@Z 1001f7b0 f i cfg.obj
 0001:0001e900       ??$_Reallocate_grow_by@V<lambda_1>@?1??append@?$basic_string@_WU?$char_traits@_W@std@@V?$allocator@_W@2@@std@@QAEAAV34@I_W@Z@I_W@?$basic_string@_WU?$char_traits@_W@std@@V?$allocator@_W@2@@std@@AAEAAV01@IV<lambda_1>@?1??append@01@QAEAAV01@I_W@Z@I_W@Z 1001f900 f i cfg.obj
 0001:0001ea50       ?write_characters@?$output_string_adapter@DV?$basic_string@DU?$char_traits@D@std@@V?$allocator@D@2@@std@@@detail@nlohmann@@UAEXPBDI@Z 1001fa50 f i cfg.obj
 0001:0001ea60       ?write_character@?$output_string_adapter@DV?$basic_string@DU?$char_traits@D@std@@V?$allocator@D@2@@std@@@detail@nlohmann@@UAEXD@Z 1001fa60 f i cfg.obj
 0001:0001ea70       ?get_token_string@?$lexer@V?$basic_json@Vmap@std@@Vvector@2@V?$basic_string@DU?$char_traits@D@std@@V?$allocator@D@2@@2@_N_J_KNVallocator@2@Uadl_serializer@nlohmann@@V?$vector@EV?$allocator@E@std@@@2@@nlohmann@@V?$iterator_input_adapter@V?$_String_const_iterator@V?$_String_val@U?$_Simple_types@D@std@@@std@@@std@@@detail@2@@detail@nlohmann@@QBE?AV?$basic_string@DU?$char_traits@D@std@@V?$allocator@D@2@@std@@XZ 1001fa70 f i cfg.obj
 0001:0001ec60       ?exception_message@?$parser@V?$basic_json@Vmap@std@@Vvector@2@V?$basic_string@DU?$char_traits@D@std@@V?$allocator@D@2@@2@_N_J_KNVallocator@2@Uadl_serializer@nlohmann@@V?$vector@EV?$allocator@E@std@@@2@@nlohmann@@V?$iterator_input_adapter@V?$_String_const_iterator@V?$_String_val@U?$_Simple_types@D@std@@@std@@@std@@@detail@2@@detail@nlohmann@@AAE?AV?$basic_string@DU?$char_traits@D@std@@V?$allocator@D@2@@std@@W4token_type@?$lexer_base@V?$basic_json@Vmap@std@@Vvector@2@V?$basic_string@DU?$char_traits@D@std@@V?$allocator@D@2@@2@_N_J_KNVallocator@2@Uadl_serializer@nlohmann@@V?$vector@EV?$allocator@E@std@@@2@@nlohmann@@@23@ABV45@@Z 1001fc60 f i cfg.obj
 0001:0001f200       ?get_token@?$parser@V?$basic_json@Vmap@std@@Vvector@2@V?$basic_string@DU?$char_traits@D@std@@V?$allocator@D@2@@2@_N_J_KNVallocator@2@Uadl_serializer@nlohmann@@V?$vector@EV?$allocator@E@std@@@2@@nlohmann@@V?$iterator_input_adapter@V?$_String_const_iterator@V?$_String_val@U?$_Simple_types@D@std@@@std@@@std@@@detail@2@@detail@nlohmann@@AAE?AW4token_type@?$lexer_base@V?$basic_json@Vmap@std@@Vvector@2@V?$basic_string@DU?$char_traits@D@std@@V?$allocator@D@2@@2@_N_J_KNVallocator@2@Uadl_serializer@nlohmann@@V?$vector@EV?$allocator@E@std@@@2@@nlohmann@@@23@XZ 10020200 f i cfg.obj
 0001:0001f430       ?dump_escaped@?$serializer@V?$basic_json@Vmap@std@@Vvector@2@V?$basic_string@DU?$char_traits@D@std@@V?$allocator@D@2@@2@_N_J_KNVallocator@2@Uadl_serializer@nlohmann@@V?$vector@EV?$allocator@E@std@@@2@@nlohmann@@@detail@nlohmann@@AAEXABV?$basic_string@DU?$char_traits@D@std@@V?$allocator@D@2@@std@@_N@Z 10020430 f i cfg.obj
 0001:0001f790       ??Y?$_Vb_const_iterator@U?$_Wrap_alloc@V?$allocator@I@std@@@std@@@std@@QAEAAV01@H@Z 10020790 f i cfg.obj
 0001:0001f7f0       ?_Xlen@?$vector@_NV?$allocator@_N@std@@@std@@SAXXZ 100207f0 f i cfg.obj
 0001:0001f800       ??1sentry@?$basic_ostream@DU?$char_traits@D@std@@@std@@QAE@XZ 10020800 f i cfg.obj
 0001:0001f860       ?insert@?$basic_string@DU?$char_traits@D@std@@V?$allocator@D@2@@std@@QAEAAV12@IQBDI@Z 10020860 f i cfg.obj
 0001:0001f930       ?open@?$basic_filebuf@DU?$char_traits@D@std@@@std@@QAEPAV12@PB_WHH@Z 10020930 f i cfg.obj
 0001:0001fa70       ??$_Reallocate_grow_by@V<lambda_1>@?1??insert@?$basic_string@DU?$char_traits@D@std@@V?$allocator@D@2@@std@@QAEAAV34@IQBDI@Z@IPBDI@?$basic_string@DU?$char_traits@D@std@@V?$allocator@D@2@@std@@AAEAAV01@IV<lambda_1>@?1??insert@01@QAEAAV01@IQBDI@Z@IPBDI@Z 10020a70 f i cfg.obj
 0001:0001fbb0       ?_Destroy@?$_Ref_count_obj2@V?$output_string_adapter@DV?$basic_string@DU?$char_traits@D@std@@V?$allocator@D@2@@std@@@detail@nlohmann@@@std@@EAEXXZ 10020bb0 f i cfg.obj
 0001:0001fbc0       ?end_array@?$json_sax_dom_callback_parser@V?$basic_json@Vmap@std@@Vvector@2@V?$basic_string@DU?$char_traits@D@std@@V?$allocator@D@2@@2@_N_J_KNVallocator@2@Uadl_serializer@nlohmann@@V?$vector@EV?$allocator@E@std@@@2@@nlohmann@@@detail@nlohmann@@QAE_NXZ 10020bc0 f i cfg.obj
 0001:0001fca0       ?start_array@?$json_sax_dom_callback_parser@V?$basic_json@Vmap@std@@Vvector@2@V?$basic_string@DU?$char_traits@D@std@@V?$allocator@D@2@@2@_N_J_KNVallocator@2@Uadl_serializer@nlohmann@@V?$vector@EV?$allocator@E@std@@@2@@nlohmann@@@detail@nlohmann@@QAE_NI@Z 10020ca0 f i cfg.obj
 0001:0001fd40       ?end_object@?$json_sax_dom_callback_parser@V?$basic_json@Vmap@std@@Vvector@2@V?$basic_string@DU?$char_traits@D@std@@V?$allocator@D@2@@2@_N_J_KNVallocator@2@Uadl_serializer@nlohmann@@V?$vector@EV?$allocator@E@std@@@2@@nlohmann@@@detail@nlohmann@@QAE_NXZ 10020d40 f i cfg.obj
 0001:0001ffa0       ?key@?$json_sax_dom_callback_parser@V?$basic_json@Vmap@std@@Vvector@2@V?$basic_string@DU?$char_traits@D@std@@V?$allocator@D@2@@2@_N_J_KNVallocator@2@Uadl_serializer@nlohmann@@V?$vector@EV?$allocator@E@std@@@2@@nlohmann@@@detail@nlohmann@@QAE_NAAV?$basic_string@DU?$char_traits@D@std@@V?$allocator@D@2@@std@@@Z 10020fa0 f i cfg.obj
 0001:000200c0       ?start_object@?$json_sax_dom_callback_parser@V?$basic_json@Vmap@std@@Vvector@2@V?$basic_string@DU?$char_traits@D@std@@V?$allocator@D@2@@2@_N_J_KNVallocator@2@Uadl_serializer@nlohmann@@V?$vector@EV?$allocator@E@std@@@2@@nlohmann@@@detail@nlohmann@@QAE_NI@Z 100210c0 f i cfg.obj
 0001:00020160       ?string@?$json_sax_dom_callback_parser@V?$basic_json@Vmap@std@@Vvector@2@V?$basic_string@DU?$char_traits@D@std@@V?$allocator@D@2@@2@_N_J_KNVallocator@2@Uadl_serializer@nlohmann@@V?$vector@EV?$allocator@E@std@@@2@@nlohmann@@@detail@nlohmann@@QAE_NAAV?$basic_string@DU?$char_traits@D@std@@V?$allocator@D@2@@std@@@Z 10021160 f i cfg.obj
 0001:00020180       ?number_float@?$json_sax_dom_callback_parser@V?$basic_json@Vmap@std@@Vvector@2@V?$basic_string@DU?$char_traits@D@std@@V?$allocator@D@2@@2@_N_J_KNVallocator@2@Uadl_serializer@nlohmann@@V?$vector@EV?$allocator@E@std@@@2@@nlohmann@@@detail@nlohmann@@QAE_NNABV?$basic_string@DU?$char_traits@D@std@@V?$allocator@D@2@@std@@@Z 10021180 f i cfg.obj
 0001:000201b0       ?number_unsigned@?$json_sax_dom_callback_parser@V?$basic_json@Vmap@std@@Vvector@2@V?$basic_string@DU?$char_traits@D@std@@V?$allocator@D@2@@2@_N_J_KNVallocator@2@Uadl_serializer@nlohmann@@V?$vector@EV?$allocator@E@std@@@2@@nlohmann@@@detail@nlohmann@@QAE_N_K@Z 100211b0 f i cfg.obj
 0001:000201d0       ?number_integer@?$json_sax_dom_callback_parser@V?$basic_json@Vmap@std@@Vvector@2@V?$basic_string@DU?$char_traits@D@std@@V?$allocator@D@2@@2@_N_J_KNVallocator@2@Uadl_serializer@nlohmann@@V?$vector@EV?$allocator@E@std@@@2@@nlohmann@@@detail@nlohmann@@QAE_N_J@Z 100211d0 f i cfg.obj
 0001:000201f0       ?boolean@?$json_sax_dom_callback_parser@V?$basic_json@Vmap@std@@Vvector@2@V?$basic_string@DU?$char_traits@D@std@@V?$allocator@D@2@@2@_N_J_KNVallocator@2@Uadl_serializer@nlohmann@@V?$vector@EV?$allocator@E@std@@@2@@nlohmann@@@detail@nlohmann@@QAE_N_N@Z 100211f0 f i cfg.obj
 0001:00020210       ?null@?$json_sax_dom_callback_parser@V?$basic_json@Vmap@std@@Vvector@2@V?$basic_string@DU?$char_traits@D@std@@V?$allocator@D@2@@2@_N_J_KNVallocator@2@Uadl_serializer@nlohmann@@V?$vector@EV?$allocator@E@std@@@2@@nlohmann@@@detail@nlohmann@@QAE_NXZ 10021210 f i cfg.obj
 0001:00020230       ?boolean@?$json_sax_dom_parser@V?$basic_json@Vmap@std@@Vvector@2@V?$basic_string@DU?$char_traits@D@std@@V?$allocator@D@2@@2@_N_J_KNVallocator@2@Uadl_serializer@nlohmann@@V?$vector@EV?$allocator@E@std@@@2@@nlohmann@@@detail@nlohmann@@QAE_N_N@Z 10021230 f i cfg.obj
 0001:000202e0       ?token_type_name@?$lexer_base@V?$basic_json@Vmap@std@@Vvector@2@V?$basic_string@DU?$char_traits@D@std@@V?$allocator@D@2@@2@_N_J_KNVallocator@2@Uadl_serializer@nlohmann@@V?$vector@EV?$allocator@E@std@@@2@@nlohmann@@@detail@nlohmann@@SAPBDW4token_type@123@@Z 100212e0 f i cfg.obj
 0001:00020390       ?count_digits@?$serializer@V?$basic_json@Vmap@std@@Vvector@2@V?$basic_string@DU?$char_traits@D@std@@V?$allocator@D@2@@2@_N_J_KNVallocator@2@Uadl_serializer@nlohmann@@V?$vector@EV?$allocator@E@std@@@2@@nlohmann@@@detail@nlohmann@@AAEI_K@Z 10021390 f i cfg.obj
 0001:00020490       ?pop_back@?$vector@_NV?$allocator@_N@std@@@std@@QAEXXZ 10021490 f i cfg.obj
 0001:000205c0       ?push_back@?$vector@_NV?$allocator@_N@std@@@std@@QAEXAB_N@Z 100215c0 f i cfg.obj
 0001:000206f0       ?back@?$basic_string@DU?$char_traits@D@std@@V?$allocator@D@2@@std@@QBEABDXZ 100216f0 f i cfg.obj
 0001:00020710       ??_E?$_Ref_count_obj2@V?$output_string_adapter@DV?$basic_string@DU?$char_traits@D@std@@V?$allocator@D@2@@std@@@detail@nlohmann@@@std@@UAEPAXI@Z 10021710 f i * CIL library *:* CIL module *
 0001:00020710       ??_G?$_Ref_count_obj2@V?$output_string_adapter@DV?$basic_string@DU?$char_traits@D@std@@V?$allocator@D@2@@std@@@detail@nlohmann@@@std@@UAEPAXI@Z 10021710 f i cfg.obj
 0001:00020740       ??$_Uninitialized_fill_n@V?$allocator@I@std@@@std@@YAPAIPAIIABIAAV?$allocator@I@0@@Z 10021740 f i cfg.obj
 0001:000207a0       ??$handle_value@W4value_t@detail@nlohmann@@@?$json_sax_dom_callback_parser@V?$basic_json@Vmap@std@@Vvector@2@V?$basic_string@DU?$char_traits@D@std@@V?$allocator@D@2@@2@_N_J_KNVallocator@2@Uadl_serializer@nlohmann@@V?$vector@EV?$allocator@E@std@@@2@@nlohmann@@@detail@nlohmann@@AAE?AU?$pair@_NPAV?$basic_json@Vmap@std@@Vvector@2@V?$basic_string@DU?$char_traits@D@std@@V?$allocator@D@2@@2@_N_J_KNVallocator@2@Uadl_serializer@nlohmann@@V?$vector@EV?$allocator@E@std@@@2@@nlohmann@@@std@@$$QAW4value_t@12@_N@Z 100217a0 f i cfg.obj
 0001:000209d0       ??$erase@V?$iter_impl@V?$basic_json@Vmap@std@@Vvector@2@V?$basic_string@DU?$char_traits@D@std@@V?$allocator@D@2@@2@_N_J_KNVallocator@2@Uadl_serializer@nlohmann@@V?$vector@EV?$allocator@E@std@@@2@@nlohmann@@@detail@nlohmann@@$0A@@?$basic_json@Vmap@std@@Vvector@2@V?$basic_string@DU?$char_traits@D@std@@V?$allocator@D@2@@2@_N_J_KNVallocator@2@Uadl_serializer@nlohmann@@V?$vector@EV?$allocator@E@std@@@2@@nlohmann@@QAE?AV?$iter_impl@V?$basic_json@Vmap@std@@Vvector@2@V?$basic_string@DU?$char_traits@D@std@@V?$allocator@D@2@@2@_N_J_KNVallocator@2@Uadl_serializer@nlohmann@@V?$vector@EV?$allocator@E@std@@@2@@nlohmann@@@detail@1@V231@@Z 100219d0 f i cfg.obj
 0001:00020b90       ??$handle_value@AAV?$basic_string@DU?$char_traits@D@std@@V?$allocator@D@2@@std@@@?$json_sax_dom_callback_parser@V?$basic_json@Vmap@std@@Vvector@2@V?$basic_string@DU?$char_traits@D@std@@V?$allocator@D@2@@2@_N_J_KNVallocator@2@Uadl_serializer@nlohmann@@V?$vector@EV?$allocator@E@std@@@2@@nlohmann@@@detail@nlohmann@@AAE?AU?$pair@_NPAV?$basic_json@Vmap@std@@Vvector@2@V?$basic_string@DU?$char_traits@D@std@@V?$allocator@D@2@@2@_N_J_KNVallocator@2@Uadl_serializer@nlohmann@@V?$vector@EV?$allocator@E@std@@@2@@nlohmann@@@std@@AAV?$basic_string@DU?$char_traits@D@std@@V?$allocator@D@2@@4@_N@Z 10021b90 f i cfg.obj
 0001:00020e30       ??$handle_value@AAN@?$json_sax_dom_callback_parser@V?$basic_json@Vmap@std@@Vvector@2@V?$basic_string@DU?$char_traits@D@std@@V?$allocator@D@2@@2@_N_J_KNVallocator@2@Uadl_serializer@nlohmann@@V?$vector@EV?$allocator@E@std@@@2@@nlohmann@@@detail@nlohmann@@AAE?AU?$pair@_NPAV?$basic_json@Vmap@std@@Vvector@2@V?$basic_string@DU?$char_traits@D@std@@V?$allocator@D@2@@2@_N_J_KNVallocator@2@Uadl_serializer@nlohmann@@V?$vector@EV?$allocator@E@std@@@2@@nlohmann@@@std@@AAN_N@Z 10021e30 f i cfg.obj
 0001:000210a0       ??$handle_value@AA_K@?$json_sax_dom_callback_parser@V?$basic_json@Vmap@std@@Vvector@2@V?$basic_string@DU?$char_traits@D@std@@V?$allocator@D@2@@2@_N_J_KNVallocator@2@Uadl_serializer@nlohmann@@V?$vector@EV?$allocator@E@std@@@2@@nlohmann@@@detail@nlohmann@@AAE?AU?$pair@_NPAV?$basic_json@Vmap@std@@Vvector@2@V?$basic_string@DU?$char_traits@D@std@@V?$allocator@D@2@@2@_N_J_KNVallocator@2@Uadl_serializer@nlohmann@@V?$vector@EV?$allocator@E@std@@@2@@nlohmann@@@std@@AA_K_N@Z 100220a0 f i cfg.obj
 0001:00021310       ??$handle_value@AA_J@?$json_sax_dom_callback_parser@V?$basic_json@Vmap@std@@Vvector@2@V?$basic_string@DU?$char_traits@D@std@@V?$allocator@D@2@@2@_N_J_KNVallocator@2@Uadl_serializer@nlohmann@@V?$vector@EV?$allocator@E@std@@@2@@nlohmann@@@detail@nlohmann@@AAE?AU?$pair@_NPAV?$basic_json@Vmap@std@@Vvector@2@V?$basic_string@DU?$char_traits@D@std@@V?$allocator@D@2@@2@_N_J_KNVallocator@2@Uadl_serializer@nlohmann@@V?$vector@EV?$allocator@E@std@@@2@@nlohmann@@@std@@AA_J_N@Z 10022310 f i cfg.obj
 0001:00021580       ??$handle_value@AA_N@?$json_sax_dom_callback_parser@V?$basic_json@Vmap@std@@Vvector@2@V?$basic_string@DU?$char_traits@D@std@@V?$allocator@D@2@@2@_N_J_KNVallocator@2@Uadl_serializer@nlohmann@@V?$vector@EV?$allocator@E@std@@@2@@nlohmann@@@detail@nlohmann@@AAE?AU?$pair@_NPAV?$basic_json@Vmap@std@@Vvector@2@V?$basic_string@DU?$char_traits@D@std@@V?$allocator@D@2@@2@_N_J_KNVallocator@2@Uadl_serializer@nlohmann@@V?$vector@EV?$allocator@E@std@@@2@@nlohmann@@@std@@AA_N_N@Z 10022580 f i cfg.obj
 0001:00021800       ??$handle_value@$$T@?$json_sax_dom_callback_parser@V?$basic_json@Vmap@std@@Vvector@2@V?$basic_string@DU?$char_traits@D@std@@V?$allocator@D@2@@2@_N_J_KNVallocator@2@Uadl_serializer@nlohmann@@V?$vector@EV?$allocator@E@std@@@2@@nlohmann@@@detail@nlohmann@@AAE?AU?$pair@_NPAV?$basic_json@Vmap@std@@Vvector@2@V?$basic_string@DU?$char_traits@D@std@@V?$allocator@D@2@@2@_N_J_KNVallocator@2@Uadl_serializer@nlohmann@@V?$vector@EV?$allocator@E@std@@@2@@nlohmann@@@std@@$$QA$$T_N@Z 10022800 f i cfg.obj
 0001:00021a70       ??$handle_value@W4value_t@detail@nlohmann@@@?$json_sax_dom_parser@V?$basic_json@Vmap@std@@Vvector@2@V?$basic_string@DU?$char_traits@D@std@@V?$allocator@D@2@@2@_N_J_KNVallocator@2@Uadl_serializer@nlohmann@@V?$vector@EV?$allocator@E@std@@@2@@nlohmann@@@detail@nlohmann@@AAEPAV?$basic_json@Vmap@std@@Vvector@2@V?$basic_string@DU?$char_traits@D@std@@V?$allocator@D@2@@2@_N_J_KNVallocator@2@Uadl_serializer@nlohmann@@V?$vector@EV?$allocator@E@std@@@2@@2@$$QAW4value_t@12@@Z 10022a70 f i cfg.obj
 0001:00021b90       ??$handle_value@AAV?$basic_string@DU?$char_traits@D@std@@V?$allocator@D@2@@std@@@?$json_sax_dom_parser@V?$basic_json@Vmap@std@@Vvector@2@V?$basic_string@DU?$char_traits@D@std@@V?$allocator@D@2@@2@_N_J_KNVallocator@2@Uadl_serializer@nlohmann@@V?$vector@EV?$allocator@E@std@@@2@@nlohmann@@@detail@nlohmann@@AAEPAV?$basic_json@Vmap@std@@Vvector@2@V?$basic_string@DU?$char_traits@D@std@@V?$allocator@D@2@@2@_N_J_KNVallocator@2@Uadl_serializer@nlohmann@@V?$vector@EV?$allocator@E@std@@@2@@2@AAV?$basic_string@DU?$char_traits@D@std@@V?$allocator@D@2@@std@@@Z 10022b90 f i cfg.obj
 0001:00021d20       ?skip_whitespace@?$lexer@V?$basic_json@Vmap@std@@Vvector@2@V?$basic_string@DU?$char_traits@D@std@@V?$allocator@D@2@@2@_N_J_KNVallocator@2@Uadl_serializer@nlohmann@@V?$vector@EV?$allocator@E@std@@@2@@nlohmann@@V?$iterator_input_adapter@V?$_String_const_iterator@V?$_String_val@U?$_Simple_types@D@std@@@std@@@std@@@detail@2@@detail@nlohmann@@QAEXXZ 10022d20 f i cfg.obj
 0001:00021db0       ?skip_bom@?$lexer@V?$basic_json@Vmap@std@@Vvector@2@V?$basic_string@DU?$char_traits@D@std@@V?$allocator@D@2@@2@_N_J_KNVallocator@2@Uadl_serializer@nlohmann@@V?$vector@EV?$allocator@E@std@@@2@@nlohmann@@V?$iterator_input_adapter@V?$_String_const_iterator@V?$_String_val@U?$_Simple_types@D@std@@@std@@@std@@@detail@2@@detail@nlohmann@@QAE_NXZ 10022db0 f i cfg.obj
 0001:00021f40       ?scan_literal@?$lexer@V?$basic_json@Vmap@std@@Vvector@2@V?$basic_string@DU?$char_traits@D@std@@V?$allocator@D@2@@2@_N_J_KNVallocator@2@Uadl_serializer@nlohmann@@V?$vector@EV?$allocator@E@std@@@2@@nlohmann@@V?$iterator_input_adapter@V?$_String_const_iterator@V?$_String_val@U?$_Simple_types@D@std@@@std@@@std@@@detail@2@@detail@nlohmann@@AAE?AW4token_type@?$lexer_base@V?$basic_json@Vmap@std@@Vvector@2@V?$basic_string@DU?$char_traits@D@std@@V?$allocator@D@2@@2@_N_J_KNVallocator@2@Uadl_serializer@nlohmann@@V?$vector@EV?$allocator@E@std@@@2@@nlohmann@@@23@PBDIW44523@@Z 10022f40 f i cfg.obj
 0001:00021ff0       ?scan_number@?$lexer@V?$basic_json@Vmap@std@@Vvector@2@V?$basic_string@DU?$char_traits@D@std@@V?$allocator@D@2@@2@_N_J_KNVallocator@2@Uadl_serializer@nlohmann@@V?$vector@EV?$allocator@E@std@@@2@@nlohmann@@V?$iterator_input_adapter@V?$_String_const_iterator@V?$_String_val@U?$_Simple_types@D@std@@@std@@@std@@@detail@2@@detail@nlohmann@@AAE?AW4token_type@?$lexer_base@V?$basic_json@Vmap@std@@Vvector@2@V?$basic_string@DU?$char_traits@D@std@@V?$allocator@D@2@@2@_N_J_KNVallocator@2@Uadl_serializer@nlohmann@@V?$vector@EV?$allocator@E@std@@@2@@nlohmann@@@23@XZ 10022ff0 f i cfg.obj
 0001:000228a0       ?scan_comment@?$lexer@V?$basic_json@Vmap@std@@Vvector@2@V?$basic_string@DU?$char_traits@D@std@@V?$allocator@D@2@@2@_N_J_KNVallocator@2@Uadl_serializer@nlohmann@@V?$vector@EV?$allocator@E@std@@@2@@nlohmann@@V?$iterator_input_adapter@V?$_String_const_iterator@V?$_String_val@U?$_Simple_types@D@std@@@std@@@std@@@detail@2@@detail@nlohmann@@AAE_NXZ 100238a0 f i cfg.obj
 0001:00022b00       ?scan_string@?$lexer@V?$basic_json@Vmap@std@@Vvector@2@V?$basic_string@DU?$char_traits@D@std@@V?$allocator@D@2@@2@_N_J_KNVallocator@2@Uadl_serializer@nlohmann@@V?$vector@EV?$allocator@E@std@@@2@@nlohmann@@V?$iterator_input_adapter@V?$_String_const_iterator@V?$_String_val@U?$_Simple_types@D@std@@@std@@@std@@@detail@2@@detail@nlohmann@@AAE?AW4token_type@?$lexer_base@V?$basic_json@Vmap@std@@Vvector@2@V?$basic_string@DU?$char_traits@D@std@@V?$allocator@D@2@@2@_N_J_KNVallocator@2@Uadl_serializer@nlohmann@@V?$vector@EV?$allocator@E@std@@@2@@nlohmann@@@23@XZ 10023b00 f i cfg.obj
 0001:00023400       ??0?$basic_json@Vmap@std@@Vvector@2@V?$basic_string@DU?$char_traits@D@std@@V?$allocator@D@2@@2@_N_J_KNVallocator@2@Uadl_serializer@nlohmann@@V?$vector@EV?$allocator@E@std@@@2@@nlohmann@@QAE@ABV01@@Z 10024400 f i cfg.obj
 0001:00023720       ?next_byte_in_range@?$lexer@V?$basic_json@Vmap@std@@Vvector@2@V?$basic_string@DU?$char_traits@D@std@@V?$allocator@D@2@@2@_N_J_KNVallocator@2@Uadl_serializer@nlohmann@@V?$vector@EV?$allocator@E@std@@@2@@nlohmann@@V?$iterator_input_adapter@V?$_String_const_iterator@V?$_String_val@U?$_Simple_types@D@std@@@std@@@std@@@detail@2@@detail@nlohmann@@AAE_NV?$initializer_list@H@std@@@Z 10024720 f i cfg.obj
 0001:000237e0       ?get_codepoint@?$lexer@V?$basic_json@Vmap@std@@Vvector@2@V?$basic_string@DU?$char_traits@D@std@@V?$allocator@D@2@@2@_N_J_KNVallocator@2@Uadl_serializer@nlohmann@@V?$vector@EV?$allocator@E@std@@@2@@nlohmann@@V?$iterator_input_adapter@V?$_String_const_iterator@V?$_String_val@U?$_Simple_types@D@std@@@std@@@std@@@detail@2@@detail@nlohmann@@AAEHXZ 100247e0 f i cfg.obj
 0001:000238c0       ??$compute_boundaries@N@dtoa_impl@detail@nlohmann@@YA?AUboundaries@012@N@Z 100248c0 f i cfg.obj
 0001:00023a20       ?_Insert_x@?$vector@_NV?$allocator@_N@std@@@std@@QAEIV?$_Vb_const_iterator@U?$_Wrap_alloc@V?$allocator@I@std@@@std@@@2@I@Z 10024a20 f i cfg.obj
 0001:00023b80       ??$?RV?$basic_json@Vmap@std@@Vvector@2@V?$basic_string@DU?$char_traits@D@std@@V?$allocator@D@2@@2@_N_J_KNVallocator@2@Uadl_serializer@nlohmann@@V?$vector@EV?$allocator@E@std@@@2@@nlohmann@@AAN@to_json_fn@detail@nlohmann@@QBEXAAV?$basic_json@Vmap@std@@Vvector@2@V?$basic_string@DU?$char_traits@D@std@@V?$allocator@D@2@@2@_N_J_KNVallocator@2@Uadl_serializer@nlohmann@@V?$vector@EV?$allocator@E@std@@@2@@2@AAN@Z 10024b80 f i cfg.obj
 0001:00023bb0       ??$?RV?$basic_json@Vmap@std@@Vvector@2@V?$basic_string@DU?$char_traits@D@std@@V?$allocator@D@2@@2@_N_J_KNVallocator@2@Uadl_serializer@nlohmann@@V?$vector@EV?$allocator@E@std@@@2@@nlohmann@@AA_K@to_json_fn@detail@nlohmann@@QBEXAAV?$basic_json@Vmap@std@@Vvector@2@V?$basic_string@DU?$char_traits@D@std@@V?$allocator@D@2@@2@_N_J_KNVallocator@2@Uadl_serializer@nlohmann@@V?$vector@EV?$allocator@E@std@@@2@@2@AA_K@Z 10024bb0 f i cfg.obj
 0001:00023bd0       ??$?RV?$basic_json@Vmap@std@@Vvector@2@V?$basic_string@DU?$char_traits@D@std@@V?$allocator@D@2@@2@_N_J_KNVallocator@2@Uadl_serializer@nlohmann@@V?$vector@EV?$allocator@E@std@@@2@@nlohmann@@AA_J@to_json_fn@detail@nlohmann@@QBEXAAV?$basic_json@Vmap@std@@Vvector@2@V?$basic_string@DU?$char_traits@D@std@@V?$allocator@D@2@@2@_N_J_KNVallocator@2@Uadl_serializer@nlohmann@@V?$vector@EV?$allocator@E@std@@@2@@2@AA_J@Z 10024bd0 f i cfg.obj
 0001:00023bf0       ??$_Emplace_reallocate@W4value_t@detail@nlohmann@@@?$vector@V?$basic_json@Vmap@std@@Vvector@2@V?$basic_string@DU?$char_traits@D@std@@V?$allocator@D@2@@2@_N_J_KNVallocator@2@Uadl_serializer@nlohmann@@V?$vector@EV?$allocator@E@std@@@2@@nlohmann@@V?$allocator@V?$basic_json@Vmap@std@@Vvector@2@V?$basic_string@DU?$char_traits@D@std@@V?$allocator@D@2@@2@_N_J_KNVallocator@2@Uadl_serializer@nlohmann@@V?$vector@EV?$allocator@E@std@@@2@@nlohmann@@@std@@@std@@AAEPAV?$basic_json@Vmap@std@@Vvector@2@V?$basic_string@DU?$char_traits@D@std@@V?$allocator@D@2@@2@_N_J_KNVallocator@2@Uadl_serializer@nlohmann@@V?$vector@EV?$allocator@E@std@@@2@@nlohmann@@QAV23@$$QAW4value_t@detail@3@@Z 10024bf0 f i cfg.obj
 0001:00023d60       ??$_Emplace_reallocate@AAV?$basic_string@DU?$char_traits@D@std@@V?$allocator@D@2@@std@@@?$vector@V?$basic_json@Vmap@std@@Vvector@2@V?$basic_string@DU?$char_traits@D@std@@V?$allocator@D@2@@2@_N_J_KNVallocator@2@Uadl_serializer@nlohmann@@V?$vector@EV?$allocator@E@std@@@2@@nlohmann@@V?$allocator@V?$basic_json@Vmap@std@@Vvector@2@V?$basic_string@DU?$char_traits@D@std@@V?$allocator@D@2@@2@_N_J_KNVallocator@2@Uadl_serializer@nlohmann@@V?$vector@EV?$allocator@E@std@@@2@@nlohmann@@@std@@@std@@AAEPAV?$basic_json@Vmap@std@@Vvector@2@V?$basic_string@DU?$char_traits@D@std@@V?$allocator@D@2@@2@_N_J_KNVallocator@2@Uadl_serializer@nlohmann@@V?$vector@EV?$allocator@E@std@@@2@@nlohmann@@QAV23@AAV?$basic_string@DU?$char_traits@D@std@@V?$allocator@D@2@@1@@Z 10024d60 f i cfg.obj
 0001:00023f00       ??$_Emplace_reallocate@AAN@?$vector@V?$basic_json@Vmap@std@@Vvector@2@V?$basic_string@DU?$char_traits@D@std@@V?$allocator@D@2@@2@_N_J_KNVallocator@2@Uadl_serializer@nlohmann@@V?$vector@EV?$allocator@E@std@@@2@@nlohmann@@V?$allocator@V?$basic_json@Vmap@std@@Vvector@2@V?$basic_string@DU?$char_traits@D@std@@V?$allocator@D@2@@2@_N_J_KNVallocator@2@Uadl_serializer@nlohmann@@V?$vector@EV?$allocator@E@std@@@2@@nlohmann@@@std@@@std@@AAEPAV?$basic_json@Vmap@std@@Vvector@2@V?$basic_string@DU?$char_traits@D@std@@V?$allocator@D@2@@2@_N_J_KNVallocator@2@Uadl_serializer@nlohmann@@V?$vector@EV?$allocator@E@std@@@2@@nlohmann@@QAV23@AAN@Z 10024f00 f i cfg.obj
 0001:00024040       ??$_Emplace_reallocate@AA_K@?$vector@V?$basic_json@Vmap@std@@Vvector@2@V?$basic_string@DU?$char_traits@D@std@@V?$allocator@D@2@@2@_N_J_KNVallocator@2@Uadl_serializer@nlohmann@@V?$vector@EV?$allocator@E@std@@@2@@nlohmann@@V?$allocator@V?$basic_json@Vmap@std@@Vvector@2@V?$basic_string@DU?$char_traits@D@std@@V?$allocator@D@2@@2@_N_J_KNVallocator@2@Uadl_serializer@nlohmann@@V?$vector@EV?$allocator@E@std@@@2@@nlohmann@@@std@@@std@@AAEPAV?$basic_json@Vmap@std@@Vvector@2@V?$basic_string@DU?$char_traits@D@std@@V?$allocator@D@2@@2@_N_J_KNVallocator@2@Uadl_serializer@nlohmann@@V?$vector@EV?$allocator@E@std@@@2@@nlohmann@@QAV23@AA_K@Z 10025040 f i cfg.obj
 0001:00024180       ??$_Emplace_reallocate@AA_J@?$vector@V?$basic_json@Vmap@std@@Vvector@2@V?$basic_string@DU?$char_traits@D@std@@V?$allocator@D@2@@2@_N_J_KNVallocator@2@Uadl_serializer@nlohmann@@V?$vector@EV?$allocator@E@std@@@2@@nlohmann@@V?$allocator@V?$basic_json@Vmap@std@@Vvector@2@V?$basic_string@DU?$char_traits@D@std@@V?$allocator@D@2@@2@_N_J_KNVallocator@2@Uadl_serializer@nlohmann@@V?$vector@EV?$allocator@E@std@@@2@@nlohmann@@@std@@@std@@AAEPAV?$basic_json@Vmap@std@@Vvector@2@V?$basic_string@DU?$char_traits@D@std@@V?$allocator@D@2@@2@_N_J_KNVallocator@2@Uadl_serializer@nlohmann@@V?$vector@EV?$allocator@E@std@@@2@@nlohmann@@QAV23@AA_J@Z 10025180 f i cfg.obj
 0001:000242c0       ??$_Emplace_reallocate@AA_N@?$vector@V?$basic_json@Vmap@std@@Vvector@2@V?$basic_string@DU?$char_traits@D@std@@V?$allocator@D@2@@2@_N_J_KNVallocator@2@Uadl_serializer@nlohmann@@V?$vector@EV?$allocator@E@std@@@2@@nlohmann@@V?$allocator@V?$basic_json@Vmap@std@@Vvector@2@V?$basic_string@DU?$char_traits@D@std@@V?$allocator@D@2@@2@_N_J_KNVallocator@2@Uadl_serializer@nlohmann@@V?$vector@EV?$allocator@E@std@@@2@@nlohmann@@@std@@@std@@AAEPAV?$basic_json@Vmap@std@@Vvector@2@V?$basic_string@DU?$char_traits@D@std@@V?$allocator@D@2@@2@_N_J_KNVallocator@2@Uadl_serializer@nlohmann@@V?$vector@EV?$allocator@E@std@@@2@@nlohmann@@QAV23@AA_N@Z 100252c0 f i cfg.obj
 0001:00024410       ??$_Emplace_reallocate@$$T@?$vector@V?$basic_json@Vmap@std@@Vvector@2@V?$basic_string@DU?$char_traits@D@std@@V?$allocator@D@2@@2@_N_J_KNVallocator@2@Uadl_serializer@nlohmann@@V?$vector@EV?$allocator@E@std@@@2@@nlohmann@@V?$allocator@V?$basic_json@Vmap@std@@Vvector@2@V?$basic_string@DU?$char_traits@D@std@@V?$allocator@D@2@@2@_N_J_KNVallocator@2@Uadl_serializer@nlohmann@@V?$vector@EV?$allocator@E@std@@@2@@nlohmann@@@std@@@std@@AAEPAV?$basic_json@Vmap@std@@Vvector@2@V?$basic_string@DU?$char_traits@D@std@@V?$allocator@D@2@@2@_N_J_KNVallocator@2@Uadl_serializer@nlohmann@@V?$vector@EV?$allocator@E@std@@@2@@nlohmann@@QAV23@$$QA$$T@Z 10025410 f i cfg.obj
 0001:00024580       ??$_Copy_vbool@V?$_Vb_iterator@U?$_Wrap_alloc@V?$allocator@I@std@@@std@@@std@@V12@@std@@YA?AV?$_Vb_iterator@U?$_Wrap_alloc@V?$allocator@I@std@@@std@@@0@V10@00@Z 10025580 f i cfg.obj
 0001:00024970       ??1?$unique_ptr@V?$vector@V?$basic_json@Vmap@std@@Vvector@2@V?$basic_string@DU?$char_traits@D@std@@V?$allocator@D@2@@2@_N_J_KNVallocator@2@Uadl_serializer@nlohmann@@V?$vector@EV?$allocator@E@std@@@2@@nlohmann@@V?$allocator@V?$basic_json@Vmap@std@@Vvector@2@V?$basic_string@DU?$char_traits@D@std@@V?$allocator@D@2@@2@_N_J_KNVallocator@2@Uadl_serializer@nlohmann@@V?$vector@EV?$allocator@E@std@@@2@@nlohmann@@@std@@@std@@V<lambda_1>@?1???$create@V?$vector@V?$basic_json@Vmap@std@@Vvector@2@V?$basic_string@DU?$char_traits@D@std@@V?$allocator@D@2@@2@_N_J_KNVallocator@2@Uadl_serializer@nlohmann@@V?$vector@EV?$allocator@E@std@@@2@@nlohmann@@V?$allocator@V?$basic_json@Vmap@std@@Vvector@2@V?$basic_string@DU?$char_traits@D@std@@V?$allocator@D@2@@2@_N_J_KNVallocator@2@Uadl_serializer@nlohmann@@V?$vector@EV?$allocator@E@std@@@2@@nlohmann@@@std@@@std@@ABV12@@?$basic_json@Vmap@std@@Vvector@2@V?$basic_string@DU?$char_traits@D@std@@V?$allocator@D@2@@2@_N_J_KNVallocator@2@Uadl_serializer@nlohmann@@V?$vector@EV?$allocator@E@std@@@2@@nlohmann@@CAPAV12@ABV12@@Z@@std@@QAE@XZ 10025970 f i cfg.obj
 0001:00024970       ??1?$unique_ptr@V?$vector@V?$basic_json@Vmap@std@@Vvector@2@V?$basic_string@DU?$char_traits@D@std@@V?$allocator@D@2@@2@_N_J_KNVallocator@2@Uadl_serializer@nlohmann@@V?$vector@EV?$allocator@E@std@@@2@@nlohmann@@V?$allocator@V?$basic_json@Vmap@std@@Vvector@2@V?$basic_string@DU?$char_traits@D@std@@V?$allocator@D@2@@2@_N_J_KNVallocator@2@Uadl_serializer@nlohmann@@V?$vector@EV?$allocator@E@std@@@2@@nlohmann@@@std@@@std@@V<lambda_1>@?1???$create@V?$vector@V?$basic_json@Vmap@std@@Vvector@2@V?$basic_string@DU?$char_traits@D@std@@V?$allocator@D@2@@2@_N_J_KNVallocator@2@Uadl_serializer@nlohmann@@V?$vector@EV?$allocator@E@std@@@2@@nlohmann@@V?$allocator@V?$basic_json@Vmap@std@@Vvector@2@V?$basic_string@DU?$char_traits@D@std@@V?$allocator@D@2@@2@_N_J_KNVallocator@2@Uadl_serializer@nlohmann@@V?$vector@EV?$allocator@E@std@@@2@@nlohmann@@@std@@@std@@PBV?$json_ref@V?$basic_json@Vmap@std@@Vvector@2@V?$basic_string@DU?$char_traits@D@std@@V?$allocator@D@2@@2@_N_J_KNVallocator@2@Uadl_serializer@nlohmann@@V?$vector@EV?$allocator@E@std@@@2@@nlohmann@@@detail@nlohmann@@PBV345@@?$basic_json@Vmap@std@@Vvector@2@V?$basic_string@DU?$char_traits@D@std@@V?$allocator@D@2@@2@_N_J_KNVallocator@2@Uadl_serializer@nlohmann@@V?$vector@EV?$allocator@E@std@@@2@@nlohmann@@CAPAV12@$$QAPBV?$json_ref@V?$basic_json@Vmap@std@@Vvector@2@V?$basic_string@DU?$char_traits@D@std@@V?$allocator@D@2@@2@_N_J_KNVallocator@2@Uadl_serializer@nlohmann@@V?$vector@EV?$allocator@E@std@@@2@@nlohmann@@@detail@5@0@Z@@std@@QAE@XZ 10025970 f i Keybinds.obj
 0001:00024990       ??1?$unique_ptr@V?$byte_container_with_subtype@V?$vector@EV?$allocator@E@std@@@std@@@nlohmann@@V<lambda_1>@?1???$create@V?$byte_container_with_subtype@V?$vector@EV?$allocator@E@std@@@std@@@nlohmann@@ABV12@@?$basic_json@Vmap@std@@Vvector@2@V?$basic_string@DU?$char_traits@D@std@@V?$allocator@D@2@@2@_N_J_KNVallocator@2@Uadl_serializer@nlohmann@@V?$vector@EV?$allocator@E@std@@@2@@2@CAPAV12@ABV12@@Z@@std@@QAE@XZ 10025990 f i cfg.obj
 0001:000249b0       ?_Extract@?$_Tree_val@U?$_Tree_simple_types@U?$pair@$$CBV?$basic_string@DU?$char_traits@D@std@@V?$allocator@D@2@@std@@V?$basic_json@Vmap@std@@Vvector@2@V?$basic_string@DU?$char_traits@D@std@@V?$allocator@D@2@@2@_N_J_KNVallocator@2@Uadl_serializer@nlohmann@@V?$vector@EV?$allocator@E@std@@@2@@nlohmann@@@std@@@std@@@std@@QAEPAU?$_Tree_node@U?$pair@$$CBV?$basic_string@DU?$char_traits@D@std@@V?$allocator@D@2@@std@@V?$basic_json@Vmap@std@@Vvector@2@V?$basic_string@DU?$char_traits@D@std@@V?$allocator@D@2@@2@_N_J_KNVallocator@2@Uadl_serializer@nlohmann@@V?$vector@EV?$allocator@E@std@@@2@@nlohmann@@@std@@PAX@2@V?$_Tree_unchecked_const_iterator@V?$_Tree_val@U?$_Tree_simple_types@U?$pair@$$CBV?$basic_string@DU?$char_traits@D@std@@V?$allocator@D@2@@std@@V?$basic_json@Vmap@std@@Vvector@2@V?$basic_string@DU?$char_traits@D@std@@V?$allocator@D@2@@2@_N_J_KNVallocator@2@Uadl_serializer@nlohmann@@V?$vector@EV?$allocator@E@std@@@2@@nlohmann@@@std@@@std@@@std@@U_Iterator_base0@2@@2@@Z 100259b0 f i cfg.obj
 0001:00024dc0       ??$_Emplace_reallocate@D@?$vector@DV?$allocator@D@std@@@std@@AAEPADQAD$$QAD@Z 10025dc0 f i cfg.obj
 0001:00024f10       ??$_Resize_reallocate@I@?$vector@IV?$allocator@I@std@@@std@@AAEXIABI@Z 10025f10 f i cfg.obj
 0001:00025040       ??1?$_Tree_head_scoped_ptr@V?$allocator@U?$_Tree_node@U?$pair@$$CBV?$basic_string@DU?$char_traits@D@std@@V?$allocator@D@2@@std@@V?$basic_json@Vmap@std@@Vvector@2@V?$basic_string@DU?$char_traits@D@std@@V?$allocator@D@2@@2@_N_J_KNVallocator@2@Uadl_serializer@nlohmann@@V?$vector@EV?$allocator@E@std@@@2@@nlohmann@@@std@@PAX@std@@@std@@V?$_Tree_val@U?$_Tree_simple_types@U?$pair@$$CBV?$basic_string@DU?$char_traits@D@std@@V?$allocator@D@2@@std@@V?$basic_json@Vmap@std@@Vvector@2@V?$basic_string@DU?$char_traits@D@std@@V?$allocator@D@2@@2@_N_J_KNVallocator@2@Uadl_serializer@nlohmann@@V?$vector@EV?$allocator@E@std@@@2@@nlohmann@@@std@@@std@@@2@@std@@QAE@XZ 10026040 f i cfg.obj
 0001:00025070       ??1?$_Tidy_guard@V?$vector@V?$basic_json@Vmap@std@@Vvector@2@V?$basic_string@DU?$char_traits@D@std@@V?$allocator@D@2@@2@_N_J_KNVallocator@2@Uadl_serializer@nlohmann@@V?$vector@EV?$allocator@E@std@@@2@@nlohmann@@V?$allocator@V?$basic_json@Vmap@std@@Vvector@2@V?$basic_string@DU?$char_traits@D@std@@V?$allocator@D@2@@2@_N_J_KNVallocator@2@Uadl_serializer@nlohmann@@V?$vector@EV?$allocator@E@std@@@2@@nlohmann@@@std@@@std@@@std@@QAE@XZ 10026070 f i cfg.obj
 0001:00025080       ?_Buy_nonzero@?$vector@V?$basic_json@Vmap@std@@Vvector@2@V?$basic_string@DU?$char_traits@D@std@@V?$allocator@D@2@@2@_N_J_KNVallocator@2@Uadl_serializer@nlohmann@@V?$vector@EV?$allocator@E@std@@@2@@nlohmann@@V?$allocator@V?$basic_json@Vmap@std@@Vvector@2@V?$basic_string@DU?$char_traits@D@std@@V?$allocator@D@2@@2@_N_J_KNVallocator@2@Uadl_serializer@nlohmann@@V?$vector@EV?$allocator@E@std@@@2@@nlohmann@@@std@@@std@@AAEXI@Z 10026080 f i cfg.obj
 0001:00025120       ??$_Copy_nodes@$0A@@?$_Tree@V?$_Tmap_traits@V?$basic_string@DU?$char_traits@D@std@@V?$allocator@D@2@@std@@V?$basic_json@Vmap@std@@Vvector@2@V?$basic_string@DU?$char_traits@D@std@@V?$allocator@D@2@@2@_N_J_KNVallocator@2@Uadl_serializer@nlohmann@@V?$vector@EV?$allocator@E@std@@@2@@nlohmann@@U?$less@X@2@V?$allocator@U?$pair@$$CBV?$basic_string@DU?$char_traits@D@std@@V?$allocator@D@2@@std@@V?$basic_json@Vmap@std@@Vvector@2@V?$basic_string@DU?$char_traits@D@std@@V?$allocator@D@2@@2@_N_J_KNVallocator@2@Uadl_serializer@nlohmann@@V?$vector@EV?$allocator@E@std@@@2@@nlohmann@@@std@@@2@$0A@@std@@@std@@IAEPAU?$_Tree_node@U?$pair@$$CBV?$basic_string@DU?$char_traits@D@std@@V?$allocator@D@2@@std@@V?$basic_json@Vmap@std@@Vvector@2@V?$basic_string@DU?$char_traits@D@std@@V?$allocator@D@2@@2@_N_J_KNVallocator@2@Uadl_serializer@nlohmann@@V?$vector@EV?$allocator@E@std@@@2@@nlohmann@@@std@@PAX@1@PAU21@0@Z 10026120 f i cfg.obj
 0001:00025210       ??1?$_Erase_tree_and_orphan_guard@V?$allocator@U?$_Tree_node@U?$pair@$$CBV?$basic_string@DU?$char_traits@D@std@@V?$allocator@D@2@@std@@V?$basic_json@Vmap@std@@Vvector@2@V?$basic_string@DU?$char_traits@D@std@@V?$allocator@D@2@@2@_N_J_KNVallocator@2@Uadl_serializer@nlohmann@@V?$vector@EV?$allocator@E@std@@@2@@nlohmann@@@std@@PAX@std@@@std@@@?$_Tree_val@U?$_Tree_simple_types@U?$pair@$$CBV?$basic_string@DU?$char_traits@D@std@@V?$allocator@D@2@@std@@V?$basic_json@Vmap@std@@Vvector@2@V?$basic_string@DU?$char_traits@D@std@@V?$allocator@D@2@@2@_N_J_KNVallocator@2@Uadl_serializer@nlohmann@@V?$vector@EV?$allocator@E@std@@@2@@nlohmann@@@std@@@std@@@std@@QAE@XZ 10026210 f i cfg.obj
 0001:00025224       ??_E?$basic_ifstream@DU?$char_traits@D@std@@@std@@$4PPPPPPPM@A@AEPAXI@Z 10026224 f i cfg.obj
 0001:0002522c       ??_E?$basic_ofstream@DU?$char_traits@D@std@@@std@@$4PPPPPPPM@A@AEPAXI@Z 1002622c f i cfg.obj
 0001:00025240       _fabsf                     10026240 f i imgui.obj
 0001:00025260       ??0ImVec4@@QAE@MMMM@Z      10026260 f i imgui.obj
 0001:00025290       ??1ImDrawData@@QAE@XZ      10026290 f i imgui.obj
 0001:000252e0       ___local_stdio_scanf_options 100262e0 f i imgui.obj
 0001:000252f0       __vsnprintf_l              100262f0 f i imgui.obj
 0001:00025330       __vsnprintf                10026330 f i imgui.obj
 0001:00025350       __vsscanf_l                10026350 f i imgui.obj
 0001:00025380       _sscanf                    10026380 f i imgui.obj
 0001:000253a0       ??0ImGuiContext@@QAE@PAUImFontAtlas@@@Z 100263a0 f i imgui.obj
 0001:00026000       ??1ImGuiIO@@QAE@XZ         10027000 f i imgui.obj
 0001:00026050       ??1?$ImChunkStream@UImGuiWindowSettings@@@@QAE@XZ 10027050 f i imgui.obj
 0001:00026050       ??1ImGuiStorage@@QAE@XZ    10027050 f i imgui.obj
 0001:00026050       ??1ImGuiTextBuffer@@QAE@XZ 10027050 f i imgui.obj
 0001:000260a0       ??1ImDrawDataBuilder@@QAE@XZ 100270a0 f i imgui.obj
 0001:000260e0       ??1ImGuiInputTextState@@QAE@XZ 100270e0 f i imgui.obj
 0001:00026170       ??0ImGuiWindowTempData@@QAE@XZ 10027170 f i imgui.obj
 0001:000263f0       ?MenuBarRect@ImGuiWindow@@QBE?AUImRect@@XZ 100273f0 f i imgui.obj
 0001:000264f0       ??0ImGuiStyle@@QAE@XZ      100274f0 f   imgui.obj
 0001:00026680       ??0ImGuiIO@@QAE@XZ         10027680 f   imgui.obj
 0001:00026950       ?AddInputCharacterUTF16@ImGuiIO@@QAEXG@Z 10027950 f   imgui.obj
 0001:00026a80       ?ImTriangleClosestPoint@@YA?AUImVec2@@ABU1@000@Z 10027a80 f   imgui.obj
 0001:00026d20       ?ImFormatString@@YAHPADIPBDZZ 10027d20 f   imgui.obj
 0001:00026d60       ?ImHashStr@@YAIPBDII@Z     10027d60 f   imgui.obj
 0001:00026e00       ?ImFileOpen@@YAPAU_iobuf@@PBD0@Z 10027e00 f   imgui.obj
 0001:00026ef0       ?ImFileLoadToMemory@@YAPAXPBD0PAIH@Z 10027ef0 f   imgui.obj
 0001:00027000       ?ImTextCharFromUtf8@@YAHPAIPBD1@Z 10028000 f   imgui.obj
 0001:000271a0       ?ImTextStrToUtf8@@YAHPADHPBG1@Z 100281a0 f   imgui.obj
 0001:00027270       ?ImTextCountUtf8BytesFromStr@@YAHPBG0@Z 10028270 f   imgui.obj
 0001:000272c0       ?ColorConvertFloat4ToU32@ImGui@@YAIABUImVec4@@@Z 100282c0 f   imgui.obj
 0001:00027370       ?ColorConvertHSVtoRGB@ImGui@@YAXMMMAAM00@Z 10028370 f   imgui.obj
 0001:000274d0       ?appendf@ImGuiTextBuffer@@QAAXPBDZZ 100284d0 f   imgui.obj
 0001:000274f0       ?appendfv@ImGuiTextBuffer@@QAEXPBDPAD@Z 100284f0 f   imgui.obj
 0001:000275b0       ?PushStyleColor@ImGui@@YAXHABUImVec4@@@Z 100285b0 f   imgui.obj
 0001:00027600       ?PopStyleColor@ImGui@@YAXH@Z 10028600 f   imgui.obj
 0001:00027650       ?PushStyleVar@ImGui@@YAXHM@Z 10028650 f   imgui.obj
 0001:000276c0       ?PushStyleVar@ImGui@@YAXHABUImVec2@@@Z 100286c0 f   imgui.obj
 0001:00027740       ?PopStyleVar@ImGui@@YAXH@Z 10028740 f   imgui.obj
 0001:000277c0       ?RenderText@ImGui@@YAXUImVec2@@PBD1_N@Z 100287c0 f   imgui.obj
 0001:000279b0       ?RenderTextWrapped@ImGui@@YAXUImVec2@@PBD1M@Z 100289b0 f   imgui.obj
 0001:00027b80       ?RenderTextClippedEx@ImGui@@YAXPAUImDrawList@@ABUImVec2@@1PBD2PBU3@1PBUImRect@@@Z 10028b80 f   imgui.obj
 0001:00027fc0       ?RenderTextClipped@ImGui@@YAXABUImVec2@@0PBD1PBU2@0PBUImRect@@@Z 10028fc0 f   imgui.obj
 0001:00028050       ?RenderFrame@ImGui@@YAXUImVec2@@0I_NM@Z 10029050 f   imgui.obj
 0001:000283f0       ?RenderFrameBorder@ImGui@@YAXUImVec2@@0M@Z 100293f0 f   imgui.obj
 0001:00028750       ?RenderArrow@ImGui@@YAXPAUImDrawList@@UImVec2@@IHM@Z 10029750 f   imgui.obj
 0001:000288d0       ?RenderNavHighlight@ImGui@@YAXABUImRect@@IH@Z 100298d0 f   imgui.obj
 0001:00028de0       ??0ImGuiWindow@@QAE@PAUImGuiContext@@PBD@Z 10029de0 f   imgui.obj
 0001:00029430       ??1ImGuiWindowTempData@@QAE@XZ 1002a430 f i imgui.obj
 0001:00029510       ?GetID@ImGuiWindow@@QAEIH@Z 1002a510 f   imgui.obj
 0001:00029580       ?GetIDFromRectangle@ImGuiWindow@@QAEIABUImRect@@@Z 1002a580 f   imgui.obj
 0001:00029640       ?GcCompactTransientWindowBuffers@ImGui@@YAXPAUImGuiWindow@@@Z 1002a640 f   imgui.obj
 0001:000297f0       ?SetActiveID@ImGui@@YAXIPAUImGuiWindow@@@Z 1002a7f0 f   imgui.obj
 0001:000298d0       ?ClearActiveID@ImGui@@YAXXZ 1002a8d0 f   imgui.obj
 0001:00029950       ?ItemHoverable@ImGui@@YA_NABUImRect@@I@Z 1002a950 f   imgui.obj
 0001:00029bb0       ?FocusableItemRegister@ImGui@@YA_NPAUImGuiWindow@@I@Z 1002abb0 f   imgui.obj
 0001:00029c70       ?MemAlloc@ImGui@@YAPAXI@Z  1002ac70 f   imgui.obj
 0001:00029c90       ?MemFree@ImGui@@YAXPAX@Z   1002ac90 f   imgui.obj
 0001:00029cb0       ?CreateContext@ImGui@@YAPAUImGuiContext@@PAUImFontAtlas@@@Z 1002acb0 f   imgui.obj
 0001:00029e70       ?GetIO@ImGui@@YAAAUImGuiIO@@XZ 1002ae70 f   imgui.obj
 0001:00029e80       ?UpdateMouseMovingWindowEndFrame@ImGui@@YAXXZ 1002ae80 f   imgui.obj
 0001:0002a900       ?UpdateHoveredWindowAndCaptureFlags@ImGui@@YAXXZ 1002b900 f   imgui.obj
 0001:0002ac00       ?NewFrame@ImGui@@YAXXZ     1002bc00 f   imgui.obj
 0001:0002bad0       ?PushClipRect@ImGui@@YAXABUImVec2@@0_N@Z 1002cad0 f   imgui.obj
 0001:0002bc20       ?PopClipRect@ImGui@@YAXXZ  1002cc20 f   imgui.obj
 0001:0002bca0       ?EndFrame@ImGui@@YAXXZ     1002cca0 f   imgui.obj
 0001:0002bf50       ?Render@ImGui@@YAXXZ       1002cf50 f   imgui.obj
 0001:0002c2a0       ?CalcTextSize@ImGui@@YA?AUImVec2@@PBD0_NM@Z 1002d2a0 f   imgui.obj
 0001:0002c360       ?IsKeyPressed@ImGui@@YA_NH_N@Z 1002d360 f   imgui.obj
 0001:0002c420       ?BeginChildEx@ImGui@@YA_NPBDHIABUImVec2@@_NH@Z 1002d420 f   imgui.obj
 0001:0002c710       ?BeginChild@ImGui@@YA_NPBDHABUImVec2@@_NH@Z 1002d710 f   imgui.obj
 0001:0002c780       ?EndChild@ImGui@@YAXXZ     1002d780 f   imgui.obj
 0001:0002c960       ?BeginChildFrame@ImGui@@YA_NIABUImVec2@@H@Z 1002d960 f   imgui.obj
 0001:0002caa0       ?FindWindowByName@ImGui@@YAPAUImGuiWindow@@PBD@Z 1002daa0 f   imgui.obj
 0001:0002f350       ?Begin@ImGui@@YA_NPBDPA_NH@Z 10030350 f   imgui.obj
 0001:00031cc0       ?End@ImGui@@YAXXZ          10032cc0 f   imgui.obj
 0001:00031ee0       ?FocusWindow@ImGui@@YAXPAUImGuiWindow@@@Z 10032ee0 f   imgui.obj
 0001:00032070       ?FocusTopMostWindowUnderOne@ImGui@@YAXPAUImGuiWindow@@0@Z 10033070 f   imgui.obj
 0001:00032110       ?PushFont@ImGui@@YAXPAUImFont@@@Z 10033110 f   imgui.obj
 0001:00032230       ?PopFont@ImGui@@YAXXZ      10033230 f   imgui.obj
 0001:00032310       ?PushItemFlag@ImGui@@YAXH_N@Z 10033310 f   imgui.obj
 0001:00032380       ?SetWindowPos@ImGui@@YAXPAUImGuiWindow@@ABUImVec2@@H@Z 10033380 f   imgui.obj
 0001:00032460       ?SetWindowSize@ImGui@@YAXPAUImGuiWindow@@ABUImVec2@@H@Z 10033460 f   imgui.obj
 0001:000324f0       ?SetNextWindowPos@ImGui@@YAXABUImVec2@@H0@Z 100334f0 f   imgui.obj
 0001:00032540       ?SetNextWindowSize@ImGui@@YAXABUImVec2@@H@Z 10033540 f   imgui.obj
 0001:00032580       ?PushID@ImGui@@YAXPBD@Z    10033580 f   imgui.obj
 0001:000325f0       ?PushID@ImGui@@YAXH@Z      100335f0 f   imgui.obj
 0001:00032680       ?ItemSize@ImGui@@YAXABUImVec2@@M@Z 10033680 f   imgui.obj
 0001:00032800       ?ItemAdd@ImGui@@YA_NABUImRect@@IPBU2@@Z 10033800 f   imgui.obj
 0001:000329c0       ?SetCursorPos@ImGui@@YAXABUImVec2@@@Z 100339c0 f   imgui.obj
 0001:00032a30       ?SetCursorPosX@ImGui@@YAXM@Z 10033a30 f   imgui.obj
 0001:00032a80       ?SetCursorPosY@ImGui@@YAXM@Z 10033a80 f   imgui.obj
 0001:00032ad0       ?PushItemWidth@ImGui@@YAXM@Z 10033ad0 f   imgui.obj
 0001:00032b60       ?CalcItemSize@ImGui@@YA?AUImVec2@@U2@MM@Z 10033b60 f   imgui.obj
 0001:00032c30       ?BeginGroup@ImGui@@YAXXZ   10033c30 f   imgui.obj
 0001:00032d60       ?EndGroup@ImGui@@YAXXZ     10033d60 f   imgui.obj
 0001:00032f90       ?ScrollToBringRectIntoView@ImGui@@YA?AUImVec2@@PAUImGuiWindow@@ABUImRect@@@Z 10033f90 f   imgui.obj
 0001:00033260       ?SetScrollFromPosY@ImGui@@YAXPAUImGuiWindow@@MM@Z 10034260 f   imgui.obj
 0001:00033310       ?BeginTooltipEx@ImGui@@YAXHH@Z 10034310 f   imgui.obj
 0001:00033450       ?SetTooltip@ImGui@@YAXPBDZZ 10034450 f   imgui.obj
 0001:000334d0       ?GetTopMostPopupModal@ImGui@@YAPAUImGuiWindow@@XZ 100344d0 f   imgui.obj
 0001:00033510       ?OpenPopupEx@ImGui@@YAXI@Z 10034510 f   imgui.obj
 0001:000336d0       ?ClosePopupsOverWindow@ImGui@@YAXPAUImGuiWindow@@_N@Z 100346d0 f   imgui.obj
 0001:00033780       ?ClosePopupToLevel@ImGui@@YAXH_N@Z 10034780 f   imgui.obj
 0001:00033840       ?BeginPopupEx@ImGui@@YA_NIH@Z 10034840 f   imgui.obj
 0001:000338c0       ?BeginPopup@ImGui@@YA_NPBDH@Z 100348c0 f   imgui.obj
 0001:00033940       ?EndPopup@ImGui@@YAXXZ     10034940 f   imgui.obj
 0001:00033a50       ?OpenPopupOnItemClick@ImGui@@YA_NPBDH@Z 10034a50 f   imgui.obj
 0001:00033b60       ?FindBestWindowPosForPopupEx@ImGui@@YA?AUImVec2@@ABU2@0PAHABUImRect@@2W4ImGuiPopupPositionPolicy@@@Z 10034b60 f   imgui.obj
 0001:00033df0       ?FindBestWindowPosForPopup@ImGui@@YA?AUImVec2@@PAUImGuiWindow@@@Z 10034df0 f   imgui.obj
 0001:00034100       ?SetFocusID@ImGui@@YAXIPAUImGuiWindow@@@Z 10035100 f   imgui.obj
 0001:000348f0       ?NavMoveRequestForward@ImGui@@YAXHHABUImRect@@H@Z 100358f0 f   imgui.obj
 0001:000349e0       ?NavInitWindow@ImGui@@YAXPAUImGuiWindow@@_N@Z 100359e0 f   imgui.obj
 0001:00034be0       ?GetNavInputAmount@ImGui@@YAMHW4ImGuiInputReadMode@@@Z 10035be0 f   imgui.obj
 0001:00036af0       ?ClearDragDrop@ImGui@@YAXXZ 10037af0 f   imgui.obj
 0001:00036bd0       ?SetDragDropPayload@ImGui@@YA_NPBDPBXIH@Z 10037bd0 f   imgui.obj
 0001:00036c60       ?BeginDragDropTarget@ImGui@@YA_NXZ 10037c60 f   imgui.obj
 0001:00036cf0       ?AcceptDragDropPayload@ImGui@@YAPBUImGuiPayload@@PBDH@Z 10037cf0 f   imgui.obj
 0001:000370e0       ?LogText@ImGui@@YAXPBDZZ   100380e0 f   imgui.obj
 0001:00037190       ?LogRenderedText@ImGui@@YAXPBUImVec2@@PBD1@Z 10038190 f   imgui.obj
 0001:00037300       ?CreateNewWindowSettings@ImGui@@YAPAUImGuiWindowSettings@@PBD@Z 10038300 f   imgui.obj
 0001:000373e0       ?LoadIniSettingsFromMemory@ImGui@@YAXPBDI@Z 100383e0 f   imgui.obj
 0001:000375a0       ?SaveIniSettingsToDisk@ImGui@@YAXPBD@Z 100385a0 f   imgui.obj
 0001:00037cb0       ?resize@?$ImVector@UImGuiGroupData@@@@QAEXH@Z 10038cb0 f i imgui.obj
 0001:00037d60       ?Clear@?$ImPool@UImGuiTabBar@@@@QAEXXZ 10038d60 f i imgui.obj
 0001:00037e90       ??1?$ImPool@UImGuiTabBar@@@@QAE@XZ 10038e90 f i imgui.obj
 0001:00037f10       ?resize@?$ImVector@E@@QAEXH@Z 10038f10 f i imgui.obj
 0001:00037fb0       ?push_back@?$ImVector@UImGuiPopupData@@@@QAEXABUImGuiPopupData@@@Z 10038fb0 f i imgui.obj
 0001:00038010       ?push_back@?$ImVector@UImGuiStyleMod@@@@QAEXABUImGuiStyleMod@@@Z 10039010 f i imgui.obj
 0001:000380d0       ?push_back@?$ImVector@UImGuiColorMod@@@@QAEXABUImGuiColorMod@@@Z 100390d0 f i imgui.obj
 0001:00038190       ?reserve@?$ImVector@H@@QAEXH@Z 10039190 f i imgui.obj
 0001:00038190       ?reserve@?$ImVector@I@@QAEXH@Z 10039190 f i imgui.obj
 0001:00038190       ?reserve@?$ImVector@M@@QAEXH@Z 10039190 f i imgui.obj
 0001:00038190       ?reserve@?$ImVector@PAUImDrawList@@@@QAEXH@Z 10039190 f i imgui.obj
 0001:00038190       ?reserve@?$ImVector@PAUImGuiWindow@@@@QAEXH@Z 10039190 f i imgui.obj
 0001:00038190       ?reserve@?$ImVector@PAX@@QAEXH@Z 10039190 f i imgui_draw.obj
 0001:00038210       ??0?$ImVector@PAUImDrawList@@@@QAE@XZ 10039210 f i imgui.obj
 0001:00038230       ?push_back@?$ImVector@PAE@@QAEXABQAE@Z 10039230 f i imgui_freetype.obj
 0001:00038230       ?push_back@?$ImVector@PAUImFont@@@@QAEXABQAUImFont@@@Z 10039230 f i imgui.obj
 0001:000382e0       ?reserve@?$ImVector@UImDrawVert@@@@QAEXH@Z 100392e0 f i imgui.obj
 0001:00038360       ?insert@?$ImVector@UImGuiStoragePair@ImGuiStorage@@@@QAEPAUImGuiStoragePair@ImGuiStorage@@PBU23@ABU23@@Z 10039360 f i imgui.obj
 0001:00038460       ?reserve@?$ImVector@D@@QAEXH@Z 10039460 f i imgui.obj
 0001:000384d0       ?reserve@?$ImVector@G@@QAEXH@Z 100394d0 f i imgui.obj
 0001:00038550       ?reserve@?$ImVector@UImGuiPopupData@@@@QAEXH@Z 10039550 f i imgui.obj
 0001:000385d0       ?reserve@?$ImVector@UImVec2@@@@QAEXH@Z 100395d0 f i imgui.obj
 0001:00038650       _ceilf                     10039650 f i imgui_draw.obj
 0001:00038690       _cosf                      10039690 f i imgui_draw.obj
 0001:000386b0       _sinf                      100396b0 f i imgui_draw.obj
 0001:000386d0       _sqrtf                     100396d0 f i imgui_draw.obj
 0001:0003f720       ?StyleColorsDark@ImGui@@YAXPAUImGuiStyle@@@Z 10040720 f   imgui_draw.obj
 0001:00040050       ??0ImDrawListSharedData@@QAE@XZ 10041050 f   imgui_draw.obj
 0001:00040140       ?Clear@ImDrawList@@QAEXXZ  10041140 f   imgui_draw.obj
 0001:00040270       ?ClearFreeMemory@ImDrawList@@QAEXXZ 10041270 f   imgui_draw.obj
 0001:000403c0       ?AddDrawCmd@ImDrawList@@QAEXXZ 100413c0 f   imgui_draw.obj
 0001:00040440       ?AddCallback@ImDrawList@@QAEXP6AXPBU1@PBUImDrawCmd@@@ZPAX@Z 10041440 f   imgui_draw.obj
 0001:000404b0       ?UpdateClipRect@ImDrawList@@QAEXXZ 100414b0 f   imgui_draw.obj
 0001:000405a0       ?UpdateTextureID@ImDrawList@@QAEXXZ 100415a0 f   imgui_draw.obj
 0001:00040670       ?PushClipRectFullScreen@ImDrawList@@QAEXXZ 10041670 f   imgui_draw.obj
 0001:00040700       ?PrimReserve@ImDrawList@@QAEXHH@Z 10041700 f   imgui_draw.obj
 0001:000407e0       ?PrimRectUV@ImDrawList@@QAEXABUImVec2@@000I@Z 100417e0 f   imgui_draw.obj
 0001:00040910       ?AddPolyline@ImDrawList@@QAEXPBUImVec2@@HI_NM@Z 10041910 f   imgui_draw.obj
 0001:000413f0       ?AddConvexPolyFilled@ImDrawList@@QAEXPBUImVec2@@HI@Z 100423f0 f   imgui_draw.obj
 0001:000417a0       ?PathArcToFast@ImDrawList@@QAEXABUImVec2@@MHH@Z 100427a0 f   imgui_draw.obj
 0001:000418e0       ?PathArcTo@ImDrawList@@QAEXABUImVec2@@MMMH@Z 100428e0 f   imgui_draw.obj
 0001:00041a60       ?PathRect@ImDrawList@@QAEXABUImVec2@@0MH@Z 10042a60 f   imgui_draw.obj
 0001:00041d60       ?AddLine@ImDrawList@@QAEXABUImVec2@@0IM@Z 10042d60 f   imgui_draw.obj
 0001:00041e90       ?AddRect@ImDrawList@@QAEXABUImVec2@@0IMHM@Z 10042e90 f   imgui_draw.obj
 0001:00041f70       ?AddRectFilled@ImDrawList@@QAEXABUImVec2@@0IMH@Z 10042f70 f   imgui_draw.obj
 0001:000420d0       ?AddRectFilledMultiColor@ImDrawList@@QAEXABUImVec2@@0IIII@Z 100430d0 f   imgui_draw.obj
 0001:00042250       ?AddTriangle@ImDrawList@@QAEXABUImVec2@@00IM@Z 10043250 f   imgui_draw.obj
 0001:00042370       ?AddTriangleFilled@ImDrawList@@QAEXABUImVec2@@00I@Z 10043370 f   imgui_draw.obj
 0001:00042480       ?AddCircle@ImDrawList@@QAEXABUImVec2@@MIHM@Z 10043480 f   imgui_draw.obj
 0001:000425b0       ?_PathArcToFastEx@ImDrawList@@QAEXABUImVec2@@MHHH@Z 100435b0 f   imgui_draw.obj
 0001:000427b0       ?AddCircleFilled@ImDrawList@@QAEXABUImVec2@@MIH@Z 100437b0 f   imgui_draw.obj
 0001:00042850       ?AddTextSoftShadow@ImDrawList@@QAEXPBUImFont@@MABUImVec2@@IPBD2@Z 10043850 f   imgui_draw.obj
 0001:000429d0       ?AddTextOutline@ImDrawList@@QAEXPBUImFont@@MABUImVec2@@IPBD2M@Z 100439d0 f   imgui_draw.obj
 0001:00043130       ?AddImage@ImDrawList@@QAEXPAXABUImVec2@@111I@Z 10044130 f   imgui_draw.obj
 0001:000431e0       ?ClearFreeMemory@ImDrawListSplitter@@QAEXXZ 100441e0 f   imgui_draw.obj
 0001:000432f0       ?Merge@ImDrawListSplitter@@QAEXPAUImDrawList@@@Z 100442f0 f   imgui_draw.obj
 0001:000435d0       ?SetCurrentChannel@ImDrawListSplitter@@QAEXPAUImDrawList@@H@Z 100445d0 f   imgui_draw.obj
 0001:00043660       ?ShadeVertsLinearColorGradientKeepAlpha@ImGui@@YAXPAUImDrawList@@HHUImVec2@@1II@Z 10044660 f   imgui_draw.obj
 0001:000437d0       ??0ImFontConfig@@QAE@XZ    100447d0 f   imgui_draw.obj
 0001:00043870       ?ClearTexData@ImFontAtlas@@QAEXXZ 10044870 f   imgui_draw.obj
 0001:000438d0       ?GetTexDataAsAlpha8@ImFontAtlas@@QAEXPAPAEPAH11@Z 100448d0 f   imgui_draw.obj
 0001:000439c0       ?AddFont@ImFontAtlas@@QAEPAUImFont@@PBUImFontConfig@@@Z 100449c0 f   imgui_draw.obj
 0001:00043b70       ?AddFontFromFileTTF@ImFontAtlas@@QAEPAUImFont@@PBDMPBUImFontConfig@@PBG@Z 10044b70 f   imgui_draw.obj
 0001:00043c90       ?AddFontFromMemoryTTF@ImFontAtlas@@QAEPAUImFont@@PAXHMPBUImFontConfig@@PBG@Z 10044c90 f   imgui_draw.obj
 0001:00043d10       ?AddFontFromMemoryCompressedTTF@ImFontAtlas@@QAEPAUImFont@@PBXHMPBUImFontConfig@@PBG@Z 10044d10 f   imgui_draw.obj
 0001:00043ea0       ?AddFontFromMemoryCompressedBase85TTF@ImFontAtlas@@QAEPAUImFont@@PBDMPBUImFontConfig@@PBG@Z 10044ea0 f   imgui_draw.obj
 0001:00043ff0       ?ImFontAtlasBuildWithStbTruetype@@YA_NPAUImFontAtlas@@@Z 10044ff0 f   imgui_draw.obj
 0001:000453f0       ?ImFontAtlasBuildInit@@YAXPAUImFontAtlas@@@Z 100463f0 f   imgui_draw.obj
 0001:00045460       ?ImFontAtlasBuildPackCustomRects@@YAXPAUImFontAtlas@@PAX@Z 10046460 f   imgui_draw.obj
 0001:00045590       ?ImFontAtlasBuildFinish@@YAXPAUImFontAtlas@@@Z 10046590 f   imgui_draw.obj
 0001:00045850       ??0ImFont@@QAE@XZ          10046850 f   imgui_draw.obj
 0001:000458f0       ??1ImFont@@QAE@XZ          100468f0 f   imgui_draw.obj
 0001:00045990       ?ClearOutputData@ImFont@@QAEXXZ 10046990 f   imgui_draw.obj
 0001:00045a70       ?BuildLookupTable@ImFont@@QAEXXZ 10046a70 f   imgui_draw.obj
 0001:00045dd0       ?GrowIndex@ImFont@@QAEXH@Z 10046dd0 f   imgui_draw.obj
 0001:00045e80       ?AddGlyph@ImFont@@QAEXGMMMMMMMMM@Z 10046e80 f   imgui_draw.obj
 0001:00045fd0       ?CalcWordWrapPositionA@ImFont@@QBEPBDMPBD0M@Z 10046fd0 f   imgui_draw.obj
 0001:00046140       ?CalcTextSizeA@ImFont@@QBE?AUImVec2@@MMMPBD0PAPBD@Z 10047140 f   imgui_draw.obj
 0001:000462f0       ?RenderText@ImFont@@QBEXPAUImDrawList@@MUImVec2@@IABUImVec4@@PBD3M_N@Z 100472f0 f   imgui_draw.obj
 0001:000468a0       ?RenderMouseCursor@ImGui@@YAXPAUImDrawList@@UImVec2@@MHIII@Z 100478a0 f   imgui_draw.obj
 0001:00046fa0       ?resize@?$ImVector@UImFontGlyph@@@@QAEXH@Z 10047fa0 f i imgui_draw.obj
 0001:00047050       ?push_back@?$ImVector@UImFontAtlasCustomRect@@@@QAEXABUImFontAtlasCustomRect@@@Z 10048050 f i imgui_draw.obj
 0001:00047130       ??4?$ImVector@UImDrawVert@@@@QAEAAU0@ABU0@@Z 10048130 f i imgui_draw.obj
 0001:000471e0       ?resize@?$ImVector@UImDrawChannel@@@@QAEXH@Z 100481e0 f i imgui_draw.obj
 0001:00047290       ?push_back@?$ImVector@UImDrawCmd@@@@QAEXABUImDrawCmd@@@Z 10048290 f i imgui_draw.obj
 0001:000472f0       ??4?$ImVector@UImDrawCmd@@@@QAEAAU0@ABU0@@Z 100482f0 f i imgui_draw.obj
 0001:000473a0       ??4?$ImVector@G@@QAEAAU0@ABU0@@Z 100483a0 f i imgui_draw.obj
 0001:00047450       ?reserve@?$ImVector@UImVec4@@@@QAEXH@Z 10048450 f i imgui_draw.obj
 0001:000474d0       ?reserve@?$ImVector@UImDrawCmd@@@@QAEXH@Z 100484d0 f i imgui_draw.obj
 0001:000478a0       ?ImFontAtlasBuildWithFreeType@@YA_NPAUFT_LibraryRec_@@PAUImFontAtlas@@I@Z 100488a0 f   imgui_freetype.obj
 0001:00048aa0       ?BuildFontAtlas@ImGuiFreeType@@YA_NPAUImFontAtlas@@I@Z 10049aa0 f   imgui_freetype.obj
 0001:00048b20       ?reserve@?$ImVector@UImFontBuildSrcGlyphFT@@@@QAEXH@Z 10049b20 f i imgui_freetype.obj
 0001:00048ea0       ?ImGui_ImplDX9_RenderDrawData@@YAXPAUImDrawData@@@Z 10049ea0 f   imgui_impl_dx9.obj
 0001:00049310       ?ImGui_ImplDX9_Init@@YA_NPAUIDirect3DDevice9@@@Z 1004a310 f   imgui_impl_dx9.obj
 0001:00049350       ?ImGui_ImplDX9_CreateDeviceObjects@@YA_NXZ 1004a350 f   imgui_impl_dx9.obj
 0001:000494d0       ?ImGui_ImplDX9_InvalidateDeviceObjects@@YAXXZ 1004a4d0 f   imgui_impl_dx9.obj
 0001:00049590       ??1?$ComPtr@UIDirect3DStateBlock9@@@WRL@Microsoft@@QAE@XZ 1004a590 f i imgui_impl_dx9.obj
 0001:000495e0       ?ImGui_ImplWin32_Init@@YA_NPAX@Z 1004a5e0 f   imgui_impl_win32.obj
 0001:00049a80       ?ImGui_ImplWin32_WndProcHandler@@YAJPAUHWND__@@IIJ@Z 1004aa80 f   imgui_impl_win32.obj
 0001:00049e00       _atan2f                    1004ae00 f i imgui_widgets.obj
 0001:00049e40       ?TextEx@ImGui@@YAXPBD0H@Z  1004ae40 f   imgui_widgets.obj
 0001:0004a3d0       ?Text@ImGui@@YAXPBDZZ      1004b3d0 f   imgui_widgets.obj
 0001:0004a450       ?TextColored@ImGui@@YAXABUImVec4@@PBDZZ 1004b450 f   imgui_widgets.obj
 0001:0004a530       ?ButtonBehavior@ImGui@@YA_NABUImRect@@IPA_N1H@Z 1004b530 f   imgui_widgets.obj
 0001:0004ac10       ?ButtonEx@ImGui@@YA_NPBDABUImVec2@@H@Z 1004bc10 f   imgui_widgets.obj
 0001:0004af90       ?InvisibleButton@ImGui@@YA_NPBDABUImVec2@@@Z 1004bf90 f   imgui_widgets.obj
 0001:0004b120       ?CloseButton@ImGui@@YA_NIABUImVec2@@@Z 1004c120 f   imgui_widgets.obj
 0001:0004b530       ?CollapseButton@ImGui@@YA_NIABUImVec2@@@Z 1004c530 f   imgui_widgets.obj
 0001:0004b930       ?ScrollbarEx@ImGui@@YA_NABUImRect@@IW4ImGuiAxis@@PAMMMH@Z 1004c930 f   imgui_widgets.obj
 0001:0004bf30       ?Scrollbar@ImGui@@YAXW4ImGuiAxis@@@Z 1004cf30 f   imgui_widgets.obj
 0001:0004c0a0       ?Image@ImGui@@YAXPAXABUImVec2@@11ABUImVec4@@2@Z 1004d0a0 f   imgui_widgets.obj
 0001:0004c550       ?Checkbox@ImGui@@YA_NPBDPA_N@Z 1004d550 f   imgui_widgets.obj
 0001:0004d100       ?RadioButton@ImGui@@YA_NPBD_N@Z 1004e100 f   imgui_widgets.obj
 0001:0004d980       ?NewLine@ImGui@@YAXXZ      1004e980 f   imgui_widgets.obj
 0001:0004da10       ?SeparatorEx@ImGui@@YAXH@Z 1004ea10 f   imgui_widgets.obj
 0001:0004de10       ?BeginCombo@ImGui@@YA_NPBD0H@Z 1004ee10 f   imgui_widgets.obj
 0001:0004f110       ?DataTypeApplyOpFromText@ImGui@@YA_NPBD0HPAX0@Z 10050110 f   imgui_widgets.obj
 0001:0004f2a0       ?InputScalar@ImGui@@YA_NPBDHPAXPBX20H@Z 100502a0 f   imgui_widgets.obj
 0001:00051280       ?InputTextEx@ImGui@@YA_NPBDPADHABUImVec2@@HP6AHPAUImGuiInputTextCallbackData@@@ZPAX@Z 10052280 f   imgui_widgets.obj
 0001:00054540       ?BeginListBox@ImGui@@YA_NPBDABUImVec2@@@Z 10055540 f   imgui_widgets.obj
 0001:00054900       ?ColorEdit4@ImGui@@YA_NPBDQAMH@Z 10055900 f   imgui_widgets.obj
 0001:00055590       ?RenderColorRectWithAlphaCheckerboard@ImGui@@YAXUImVec2@@0IM0MH@Z 10056590 f   imgui_widgets.obj
 0001:00055a60       ?ColorPicker4@ImGui@@YA_NPBDQAMHPBM@Z 10056a60 f   imgui_widgets.obj
 0001:00058130       ?ColorButton@ImGui@@YA_NPBDABUImVec4@@HUImVec2@@@Z 10059130 f   imgui_widgets.obj
 0001:00058a50       ?ColorTooltip@ImGui@@YAXPBDPBMH@Z 10059a50 f   imgui_widgets.obj
 0001:00058dd0       ?ColorEditOptionsPopup@ImGui@@YAXPBMH@Z 10059dd0 f   imgui_widgets.obj
 0001:00059210       ?ColorPickerOptionsPopup@ImGui@@YAXPBMH@Z 1005a210 f   imgui_widgets.obj
 0001:000594e0       ?Selectable@ImGui@@YA_NPBD_NHABUImVec2@@@Z 1005a4e0 f   imgui_widgets.obj
 0001:0005a280       ?SetColumnOffset@ImGui@@YAXHM@Z 1005b280 f   imgui_widgets.obj
 0001:0005a380       ?EndColumns@ImGui@@YAXXZ   1005b380 f   imgui_widgets.obj
 0001:0005a940       ??$insert@$0A@$0A@@?$_Tree@V?$_Tmap_traits@IMU?$less@I@std@@V?$allocator@U?$pair@$$CBIM@std@@@2@$0A@@std@@@std@@QAE?AU?$pair@V?$_Tree_iterator@V?$_Tree_val@U?$_Tree_simple_types@U?$pair@$$CBIM@std@@@std@@@std@@@std@@_N@1@$$QAU?$pair@$$CBIM@1@@Z 1005b940 f i imgui_widgets.obj
 0001:0005aa00       ??$insert@$0A@$0A@@?$_Tree@V?$_Tmap_traits@IUImVec4@@U?$less@I@std@@V?$allocator@U?$pair@$$CBIUImVec4@@@std@@@3@$0A@@std@@@std@@QAE?AU?$pair@V?$_Tree_iterator@V?$_Tree_val@U?$_Tree_simple_types@U?$pair@$$CBIUImVec4@@@std@@@std@@@std@@@std@@_N@1@$$QAU?$pair@$$CBIUImVec4@@@1@@Z 1005ba00 f i imgui_widgets.obj
 0001:0005aae0       ??1?$_Tree@V?$_Tmap_traits@IMU?$less@I@std@@V?$allocator@U?$pair@$$CBIM@std@@@2@$0A@@std@@@std@@QAE@XZ 1005bae0 f i imgui_widgets.obj
 0001:0005aae0       ??1?$_Tree@V?$_Tmap_traits@I_NU?$less@I@std@@V?$allocator@U?$pair@$$CBI_N@std@@@2@$0A@@std@@@std@@QAE@XZ 1005bae0 f i imgui_widgets.obj
 0001:0005ab20       ??1?$_Tree@V?$_Tmap_traits@IUarrow_anim@@U?$less@I@std@@V?$allocator@U?$pair@$$CBIUarrow_anim@@@std@@@3@$0A@@std@@@std@@QAE@XZ 1005bb20 f i imgui_widgets.obj
 0001:0005ab60       ??1?$_Tree@V?$_Tmap_traits@IUImVec4@@U?$less@I@std@@V?$allocator@U?$pair@$$CBIUImVec4@@@std@@@3@$0A@@std@@@std@@QAE@XZ 1005bb60 f i imgui_widgets.obj
 0001:0005aba0       ??$_Find_lower_bound@I@?$_Tree@V?$_Tmap_traits@IMU?$less@I@std@@V?$allocator@U?$pair@$$CBIM@std@@@2@$0A@@std@@@std@@IBE?AU?$_Tree_find_result@PAU?$_Tree_node@U?$pair@$$CBIM@std@@PAX@std@@@1@ABI@Z 1005bba0 f i imgui_widgets.obj
 0001:0005aba0       ??$_Find_lower_bound@I@?$_Tree@V?$_Tmap_traits@IUImVec4@@U?$less@I@std@@V?$allocator@U?$pair@$$CBIUImVec4@@@std@@@3@$0A@@std@@@std@@IBE?AU?$_Tree_find_result@PAU?$_Tree_node@U?$pair@$$CBIUImVec4@@@std@@PAX@std@@@1@ABI@Z 1005bba0 f i imgui_widgets.obj
 0001:0005aba0       ??$_Find_lower_bound@I@?$_Tree@V?$_Tmap_traits@IV?$function@$$A6AXPAVC_Animation@@@Z@std@@U?$less@I@2@V?$allocator@U?$pair@$$CBIV?$function@$$A6AXPAVC_Animation@@@Z@std@@@std@@@2@$0A@@std@@@std@@IBE?AU?$_Tree_find_result@PAU?$_Tree_node@U?$pair@$$CBIV?$function@$$A6AXPAVC_Animation@@@Z@std@@@std@@PAX@std@@@1@ABI@Z 1005bba0 f i Animations.obj
 0001:0005aba0       ??$_Find_lower_bound@I@?$_Tree@V?$_Tmap_traits@IV?$function@$$A6AXPAVC_Animation@@M@Z@std@@U?$less@I@2@V?$allocator@U?$pair@$$CBIV?$function@$$A6AXPAVC_Animation@@M@Z@std@@@std@@@2@$0A@@std@@@std@@IBE?AU?$_Tree_find_result@PAU?$_Tree_node@U?$pair@$$CBIV?$function@$$A6AXPAVC_Animation@@M@Z@std@@@std@@PAX@std@@@1@ABI@Z 1005bba0 f i Animations.obj
 0001:0005aba0       ??$_Find_lower_bound@I@?$_Tree@V?$_Tmap_traits@IV?$function@$$A6AXPAVC_Element@@@Z@std@@U?$less@I@2@V?$allocator@U?$pair@$$CBIV?$function@$$A6AXPAVC_Element@@@Z@std@@@std@@@2@$0A@@std@@@std@@IBE?AU?$_Tree_find_result@PAU?$_Tree_node@U?$pair@$$CBIV?$function@$$A6AXPAVC_Element@@@Z@std@@@std@@PAX@std@@@1@ABI@Z 1005bba0 f i Initializers.obj
 0001:0005aba0       ??$_Find_lower_bound@I@?$_Tree@V?$_Tmap_traits@IVC_KeybindInfo@@U?$less@I@std@@V?$allocator@U?$pair@$$CBIVC_KeybindInfo@@@std@@@3@$0A@@std@@@std@@IBE?AU?$_Tree_find_result@PAU?$_Tree_node@U?$pair@$$CBIVC_KeybindInfo@@@std@@PAX@std@@@1@ABI@Z 1005bba0 f i Keybinds.obj
 0001:0005aba0       ??$_Find_lower_bound@I@?$_Tree@V?$_Tmap_traits@IVC_Var@@U?$less@I@std@@V?$allocator@U?$pair@$$CBIVC_Var@@@std@@@3@$0A@@std@@@std@@IBE?AU?$_Tree_find_result@PAU?$_Tree_node@U?$pair@$$CBIVC_Var@@@std@@PAX@std@@@1@ABI@Z 1005bba0 f i Animations.obj
 0001:0005abf0       ??$_Find_lower_bound@I@?$_Tree@V?$_Tmap_traits@IUarrow_anim@@U?$less@I@std@@V?$allocator@U?$pair@$$CBIUarrow_anim@@@std@@@3@$0A@@std@@@std@@IBE?AU?$_Tree_find_result@PAU?$_Tree_node@U?$pair@$$CBIUarrow_anim@@@std@@PAX@std@@@1@ABI@Z 1005bbf0 f i imgui_widgets.obj
 0001:0005ac40       ??$_Find_lower_bound@I@?$_Tree@V?$_Tmap_traits@I_NU?$less@I@std@@V?$allocator@U?$pair@$$CBI_N@std@@@2@$0A@@std@@@std@@IBE?AU?$_Tree_find_result@PAU?$_Tree_node@U?$pair@$$CBI_N@std@@PAX@std@@@1@ABI@Z 1005bc40 f i imgui_widgets.obj
 0001:0005ac90       ??$_Erase_tree@V?$allocator@U?$_Tree_node@U?$pair@$$CBIM@std@@PAX@std@@@std@@@?$_Tree_val@U?$_Tree_simple_types@U?$pair@$$CBIM@std@@@std@@@std@@QAEXAAV?$allocator@U?$_Tree_node@U?$pair@$$CBIM@std@@PAX@std@@@1@PAU?$_Tree_node@U?$pair@$$CBIM@std@@PAX@1@@Z 1005bc90 f i imgui_widgets.obj
 0001:0005ac90       ??$_Erase_tree@V?$allocator@U?$_Tree_node@U?$pair@$$CBI_N@std@@PAX@std@@@std@@@?$_Tree_val@U?$_Tree_simple_types@U?$pair@$$CBI_N@std@@@std@@@std@@QAEXAAV?$allocator@U?$_Tree_node@U?$pair@$$CBI_N@std@@PAX@std@@@1@PAU?$_Tree_node@U?$pair@$$CBI_N@std@@PAX@1@@Z 1005bc90 f i imgui_widgets.obj
 0001:0005acd0       ??$_Erase_tree@V?$allocator@U?$_Tree_node@U?$pair@$$CBIUarrow_anim@@@std@@PAX@std@@@std@@@?$_Tree_val@U?$_Tree_simple_types@U?$pair@$$CBIUarrow_anim@@@std@@@std@@@std@@QAEXAAV?$allocator@U?$_Tree_node@U?$pair@$$CBIUarrow_anim@@@std@@PAX@std@@@1@PAU?$_Tree_node@U?$pair@$$CBIUarrow_anim@@@std@@PAX@1@@Z 1005bcd0 f i imgui_widgets.obj
 0001:0005ad10       ??$_Erase_tree@V?$allocator@U?$_Tree_node@U?$pair@$$CBIUImVec4@@@std@@PAX@std@@@std@@@?$_Tree_val@U?$_Tree_simple_types@U?$pair@$$CBIUImVec4@@@std@@@std@@@std@@QAEXAAV?$allocator@U?$_Tree_node@U?$pair@$$CBIUImVec4@@@std@@PAX@std@@@1@PAU?$_Tree_node@U?$pair@$$CBIUImVec4@@@std@@PAX@1@@Z 1005bd10 f i imgui_widgets.obj
 0001:0005ad50       ??1?$_Alloc_construct_ptr@V?$allocator@U?$_Tree_node@U?$pair@$$CBIUarrow_anim@@@std@@PAX@std@@@std@@@std@@QAE@XZ 1005bd50 f i imgui_widgets.obj
 0001:0005ad70       ??1?$_Alloc_construct_ptr@V?$allocator@U?$_Tree_node@U?$pair@$$CBIUImVec4@@@std@@PAX@std@@@std@@@std@@QAE@XZ 1005bd70 f i imgui_widgets.obj
 0001:0005ad90       _FreeBuffer                1005bd90 f   buffer.obj
 0001:0005ae10       _hde32_disasm              1005be10 f   hde32.obj
 0001:0005b9c0       _MH_Initialize@0           1005c9c0 f   hook.obj
 0001:0005ba00       _MH_CreateHook@12          1005ca00 f   hook.obj
 0001:0005bc90       _MH_EnableHook@4           1005cc90 f   hook.obj
 0001:0005bcc0       _CreateTrampolineFunction  1005ccc0 f   trampoline.obj
 0001:0005c000       ?work_loop@thread_t@c_thread_pool@sdk@@SAXVstop_token@std@@@Z 1005d000 f   thread_pool.obj
 0001:0005c250       ??1?$unique_lock@Vmutex@std@@@std@@QAE@XZ 1005d250 f i thread_pool.obj
 0001:0005c260       ?abs@@YAMM@Z               1005d260 f i aim_bot.obj
 0001:0005c270       ?what@bad_optional_access@std@@UBEPBDXZ 1005d270 f i aim_bot.obj
 0001:0005c280       ?_Throw_bad_optional_access@std@@YAXXZ 1005d280 f i aim_bot.obj
 0001:0005c2c0       ??0bad_optional_access@std@@QAE@XZ 1005d2c0 f i aim_bot.obj
 0001:0005c2d0       ??HImVec3@@QBE?AU0@ABU0@@Z 1005d2d0 f i aim_bot.obj
 0001:0005c310       ??GImVec3@@QBE?AU0@ABU0@@Z 1005d310 f i aim_bot.obj
 0001:0005c350       ??DImVec3@@QBE?AU0@M@Z     1005d350 f i aim_bot.obj
 0001:0005c380       ??ZImVec3@@QAEAAU0@ABU0@@Z 1005d380 f i aim_bot.obj
 0001:0005c3c0       ?length@ImVec3@@QBEMXZ     1005d3c0 f i aim_bot.obj
 0001:0005c400       ?length_sqr@ImVec3@@QBEMXZ 1005d400 f i aim_bot.obj
 0001:0005c440       ?length_2d@ImVec3@@QBEMXZ  1005d440 f i aim_bot.obj
 0001:0005c470       ?normalize@ImVec3@@QAEAAU1@XZ 1005d470 f i aim_bot.obj
 0001:0005c500       ?should_hit_entity@trace_filter_world_only_t@valve@nem@@UBE_NQAVc_entity@23@W4e_mask@23@@Z 1005d500 f i aim_bot.obj
 0001:0005c510       ?type@trace_filter_world_only_t@valve@nem@@UBEHXZ 1005d510 f i aim_bot.obj
 0001:0005c520       ?get_float@cvar_t@valve@nem@@QAEMXZ 1005d520 f i aim_bot.obj
 0001:0005c540       ?get_int@cvar_t@valve@nem@@QAEHXZ 1005d540 f i aim_bot.obj
 0001:0005c550       ?calc_points_count@c_aim_bot@hacks@nem@@ABEIHH@Z 1005d550 f   aim_bot.obj
 0001:0005c680       ?get_stop_type@hacks@nem@@YAHXZ 1005d680 f   aim_bot.obj
 0001:0005cc50       ?get_min_dmg_to_set_up@hacks@nem@@YAHXZ 1005dc50 f   aim_bot.obj
 0001:0005d240       ?get_hitgroups_to_set@hacks@nem@@YAHXZ 1005e240 f   aim_bot.obj
 0001:0005d800       ?get_head_scale@hacks@nem@@YAHXZ 1005e800 f   aim_bot.obj
 0001:0005ddf0       ?get_body_scale@hacks@nem@@YAHXZ 1005edf0 f   aim_bot.obj
 0001:0005e3e0       ?get_multi_points_to_set@hacks@nem@@YAHXZ 1005f3e0 f   aim_bot.obj
 0001:0005e9a0       ?should_static_point_scale@hacks@nem@@YA_NXZ 1005f9a0 f   aim_bot.obj
 0001:0005efb0       ?scan_point@c_aim_bot@hacks@nem@@QBEXABUaim_target_t@23@AAUaim_point_t@23@_NUImVec3@@@Z 1005ffb0 f   aim_bot.obj
 0001:0005fcb0       ?scan_center_points@c_aim_bot@hacks@nem@@QBEXAAUaim_target_t@23@HUImVec3@@@Z 10060cb0 f   aim_bot.obj
 0001:000602d0       ?calc_capsule_points@c_aim_bot@hacks@nem@@ABEXAAUaim_target_t@23@PAUstudio_hitbox_t@valve@3@HAAUmat3x4_t@@M@Z 100612d0 f   aim_bot.obj
 0001:000608e0       ?calc_point_scale@c_aim_bot@hacks@nem@@ABEMMMMABUImVec3@@00@Z 100618e0 f   aim_bot.obj
 0001:00060ae0       ?calc_multi_points@c_aim_bot@hacks@nem@@ABEXAAUaim_target_t@23@PAUstudio_hitbox_t@valve@3@HAAUmat3x4_t@@M@Z 10061ae0 f   aim_bot.obj
 0001:00061d50       ?scan_points@c_aim_bot@hacks@nem@@QBEXAAUaim_target_t@23@HH_NUImVec3@@@Z 10062d50 f   aim_bot.obj
 0001:00063080       ?get_hit_chance_to_set_up@c_aim_bot@hacks@nem@@AAEMXZ 10064080 f   aim_bot.obj
 0001:00063660       ?player_move@c_aim_bot@hacks@nem@@ABEXAAUextrapolation_data_t@23@@Z 10064660 f   aim_bot.obj
 0001:00064040       ?select_points@c_aim_bot@hacks@nem@@QBE_NAAUaim_target_t@23@_N@Z 10065040 f   aim_bot.obj
 0001:00065060       ?extrapolate@c_aim_bot@hacks@nem@@ABE?AV?$optional@Uaim_record_t@hacks@nem@@@std@@ABUplayer_entry_t@23@@Z 10066060 f   aim_bot.obj
 0001:00065650       ??1?$optional@Uaim_record_t@hacks@nem@@@std@@QAE@XZ 10066650 f i aim_bot.obj
 0001:00065690       ?select_latest_record@c_aim_bot@hacks@nem@@ABE?AV?$optional@Uaim_record_t@hacks@nem@@@std@@ABUplayer_entry_t@23@@Z 10066690 f   aim_bot.obj
 0001:00065a10       ?select_record@c_aim_bot@hacks@nem@@ABE?AV?$optional@Uaim_record_t@hacks@nem@@@std@@AAUplayer_entry_t@23@@Z 10066a10 f   aim_bot.obj
 0001:00066c80       ?select_point@c_aim_bot@hacks@nem@@ABEPAUaim_point_t@23@ABUaim_target_t@23@H@Z 10067c80 f   aim_bot.obj
 0001:00067a50       ?find_targets@c_aim_bot@hacks@nem@@AAEXXZ 10068a50 f   aim_bot.obj
 0001:000683b0       ?select_target@c_aim_bot@hacks@nem@@AAEPAUaim_target_t@23@H@Z 100693b0 f   aim_bot.obj
 0001:000687a0       ?calc_spread_angle@c_aim_bot@hacks@nem@@QBE?AUImVec2@@HW4e_item_index@valve@3@MI@Z 100697a0 f   aim_bot.obj
 0001:00068a20       ?get_hitbox_data@c_aim_bot@hacks@nem@@QAEXPAVc_hitbox_@23@PAVc_player@valve@3@HAAV?$array@Umat3x4_t@@$0IA@@std@@@Z 10069a20 f   aim_bot.obj
 0001:000693c0       ?calc_hit_chance@c_aim_bot@hacks@nem@@AAEHQBUaim_target_t@23@ABUImVec3@@QBUaim_point_t@23@@Z 1006a3c0 f   aim_bot.obj
 0001:0006aa60       ?on_create_move@c_aim_bot@hacks@nem@@QAEXAAUuser_cmd_t@valve@3@AA_N@Z 1006ba60 f   aim_bot.obj
 0001:0006c690       ??$clamp@M@std@@YAABMABM00@Z 1006d690 f i aim_bot.obj
 0001:0006c6b0       ??$__builtin_array_init_helper@Uanim_side_t@lag_record_t@hacks@nem@@@@YAXPAUanim_side_t@lag_record_t@hacks@nem@@I@Z 1006d6b0 f i aim_bot.obj
 0001:0006c750       ??$clamp@H@std@@YAABHABH00@Z 1006d750 f i aim_bot.obj
 0001:0006c770       ??4aim_target_t@hacks@nem@@QAEAAU012@$$QAU012@@Z 1006d770 f i aim_bot.obj
 0001:0006c810       ??1?$vector@V?$optional@Uaim_record_t@hacks@nem@@@std@@V?$allocator@V?$optional@Uaim_record_t@hacks@nem@@@std@@@2@@std@@QAE@XZ 1006d810 f i aim_bot.obj
 0001:0006c880       ??1?$vector@V?$future@V?$optional@Uaim_record_t@hacks@nem@@@std@@@std@@V?$allocator@V?$future@V?$optional@Uaim_record_t@hacks@nem@@@std@@@std@@@2@@std@@QAE@XZ 1006d880 f i aim_bot.obj
 0001:0006c920       ?reserve@?$vector@Uaim_point_t@hacks@nem@@V?$allocator@Uaim_point_t@hacks@nem@@@std@@@std@@QAEXI@Z 1006d920 f i aim_bot.obj
 0001:0006c9a0       ?back@?$deque@V?$shared_ptr@Ulag_record_t@hacks@nem@@@std@@V?$allocator@V?$shared_ptr@Ulag_record_t@hacks@nem@@@std@@@2@@std@@QBEABV?$shared_ptr@Ulag_record_t@hacks@nem@@@2@XZ 1006d9a0 f i aim_bot.obj
 0001:0006c9d0       ??$_Assign_counted_range@PAUaim_point_t@hacks@nem@@@?$vector@Uaim_point_t@hacks@nem@@V?$allocator@Uaim_point_t@hacks@nem@@@std@@@std@@AAEXPAUaim_point_t@hacks@nem@@I@Z 1006d9d0 f i aim_bot.obj
 0001:0006cb80       ?_Xran@?$array@I$0CD@@std@@CAXXZ 1006db80 f i skins.obj
 0001:0006cb80       ?_Xran@?$array@PAUaim_point_t@hacks@nem@@$0L@@std@@CAXXZ 1006db80 f i aim_bot.obj
 0001:0006cb80       ?_Xran@?$array@UImVec3@@$0EB@@std@@CAXXZ 1006db80 f i visuals.obj
 0001:0006cb80       ?_Xran@?$array@Uanim_side_t@lag_anim_data_t@hacks@nem@@$02@std@@CAXXZ 1006db80 f i anim_sync.obj
 0001:0006cb80       ?_Xran@?$array@Uanim_side_t@lag_record_t@hacks@nem@@$02@std@@CAXXZ 1006db80 f i aim_bot.obj
 0001:0006cb80       ?_Xran@?$array@Udormant_data_t@hacks@nem@@$0EB@@std@@CAXXZ 1006db80 f i shots.obj
 0001:0006cb80       ?_Xran@?$array@Ulocal_data_t@c_eng_pred@hacks@nem@@$0JG@@std@@CAXXZ 1006db80 f i anim_sync.obj
 0001:0006cb80       ?_Xran@?$array@Umat3x4_t@@$0IA@@std@@CAXXZ 1006db80 f i aim_bot.obj
 0001:0006cb80       ?_Xran@?$array@Unet_vars_t@c_eng_pred@hacks@nem@@$0JG@@std@@CAXXZ 1006db80 f i hooks.obj
 0001:0006cb80       ?_Xran@?$array@Uplayer_entry_t@hacks@nem@@$0EA@@std@@CAXXZ 1006db80 f i aim_bot.obj
 0001:0006cb80       ?_Xran@?$array@Uweapon_t@c_skins@hacks@nem@@$0BE@@std@@CAXXZ 1006db80 f i skins.obj
 0001:0006cb80       ?_Xran@?$array@Uweapon_t@c_skins@hacks@nem@@$0CD@@std@@CAXXZ 1006db80 f i SkinsBlock.obj
 0001:0006cb80       ?_Xran@?$array@V?$basic_string@DU?$char_traits@D@std@@V?$allocator@D@2@@std@@$0BD@@std@@CAXXZ 1006db80 f i skins.obj
 0001:0006cb80       ?_Xran@?$array@V?$vector@HV?$allocator@H@std@@@std@@$05@std@@CAXXZ 1006db80 f i aim_bot.obj
 0001:0006cb80       ?_Xran@?$array@_N$0IA@@std@@CAXXZ 1006db80 f i aim_bot.obj
 0001:0006cb90       ??_E?$_Ref_count_obj2@Ulag_record_t@hacks@nem@@@std@@UAEPAXI@Z 1006db90 f i * CIL library *:* CIL module *
 0001:0006cb90       ??_G?$_Ref_count_obj2@Ulag_record_t@hacks@nem@@@std@@UAEPAXI@Z 1006db90 f i aim_bot.obj
 0001:0006cbc0       ??$_Emplace_reallocate@AAUImVec3@@_NAAHAAHH@?$vector@Uaim_point_t@hacks@nem@@V?$allocator@Uaim_point_t@hacks@nem@@@std@@@std@@AAEPAUaim_point_t@hacks@nem@@QAU234@AAUImVec3@@$$QA_NAAH3$$QAH@Z 1006dbc0 f i aim_bot.obj
 0001:0006cbc0       ??$_Emplace_reallocate@UImVec3@@_NABHAAHH@?$vector@Uaim_point_t@hacks@nem@@V?$allocator@Uaim_point_t@hacks@nem@@@std@@@std@@AAEPAUaim_point_t@hacks@nem@@QAU234@$$QAUImVec3@@$$QA_NABHAAH$$QAH@Z 1006dbc0 f i aim_bot.obj
 0001:0006cd40       ??$_Construct_in_place@Ulag_record_t@hacks@nem@@$$V@std@@YAXAAUlag_record_t@hacks@nem@@@Z 1006dd40 f i aim_bot.obj
 0001:0006cf00       ??$_Emplace_reallocate@V?$optional@Uaim_record_t@hacks@nem@@@std@@@?$vector@V?$optional@Uaim_record_t@hacks@nem@@@std@@V?$allocator@V?$optional@Uaim_record_t@hacks@nem@@@std@@@2@@std@@AAEPAV?$optional@Uaim_record_t@hacks@nem@@@1@QAV21@$$QAV21@@Z 1006df00 f i aim_bot.obj
 0001:0006d0a0       ??$_Emplace_reallocate@ABUaim_record_t@hacks@nem@@@?$vector@Uaim_target_t@hacks@nem@@V?$allocator@Uaim_target_t@hacks@nem@@@std@@@std@@AAEPAUaim_target_t@hacks@nem@@QAU234@ABUaim_record_t@34@@Z 1006e0a0 f i aim_bot.obj
 0001:0006d200       ??$_Emplace_reallocate@MMM@?$vector@V?$tuple@MMM@std@@V?$allocator@V?$tuple@MMM@std@@@2@@std@@AAEPAV?$tuple@MMM@1@QAV21@$$QAM11@Z 1006e200 f i aim_bot.obj
 0001:0006d420       ??$_Uninitialized_move@PAUaim_target_t@hacks@nem@@V?$allocator@Uaim_target_t@hacks@nem@@@std@@@std@@YAPAUaim_target_t@hacks@nem@@QAU123@0PAU123@AAV?$allocator@Uaim_target_t@hacks@nem@@@0@@Z 1006e420 f i aim_bot.obj
 0001:0006d4e0       ??$_Allocate_at_least_helper@V?$allocator@Uaim_point_t@hacks@nem@@@std@@@std@@YAPAUaim_point_t@hacks@nem@@AAV?$allocator@Uaim_point_t@hacks@nem@@@0@AAI@Z 1006e4e0 f i aim_bot.obj
 0001:0006d540       ??$_Destroy_range@V?$allocator@V?$optional@Uaim_record_t@hacks@nem@@@std@@@std@@@std@@YAXPAV?$optional@Uaim_record_t@hacks@nem@@@0@QAV10@AAV?$allocator@V?$optional@Uaim_record_t@hacks@nem@@@std@@@0@@Z 1006e540 f i aim_bot.obj
 0001:0006d590       ?_Change_array@?$vector@Uaim_target_t@hacks@nem@@V?$allocator@Uaim_target_t@hacks@nem@@@std@@@std@@AAEXQAUaim_target_t@hacks@nem@@II@Z 1006e590 f i aim_bot.obj
 0001:0006d610       ?_Change_array@?$vector@Uaim_point_t@hacks@nem@@V?$allocator@Uaim_point_t@hacks@nem@@@std@@@std@@AAEXQAUaim_point_t@hacks@nem@@II@Z 1006e610 f i aim_bot.obj
 0001:0006d6b0       ??$construct@Uaim_point_t@hacks@nem@@AAUImVec3@@_NAAHAAHH@?$_Default_allocator_traits@V?$allocator@Uaim_point_t@hacks@nem@@@std@@@std@@SAXAAV?$allocator@Uaim_point_t@hacks@nem@@@1@QAUaim_point_t@hacks@nem@@AAUImVec3@@$$QA_NAAH4$$QAH@Z 1006e6b0 f i aim_bot.obj
 0001:0006d6b0       ??$construct@Uaim_point_t@hacks@nem@@UImVec3@@_NABHAAHH@?$_Default_allocator_traits@V?$allocator@Uaim_point_t@hacks@nem@@@std@@@std@@SAXAAV?$allocator@Uaim_point_t@hacks@nem@@@1@QAUaim_point_t@hacks@nem@@$$QAUImVec3@@$$QA_NABHAAH$$QAH@Z 1006e6b0 f i aim_bot.obj
 0001:0006d730       ??$_Uninitialized_move@PAV?$optional@Uaim_record_t@hacks@nem@@@std@@V?$allocator@V?$optional@Uaim_record_t@hacks@nem@@@std@@@2@@std@@YAPAV?$optional@Uaim_record_t@hacks@nem@@@0@QAV10@0PAV10@AAV?$allocator@V?$optional@Uaim_record_t@hacks@nem@@@std@@@0@@Z 1006e730 f i aim_bot.obj
 0001:0006d7a0       _atanf                     1006e7a0 f i knife_bot.obj
 0001:0006d7c0       ?handle_knife_bot@c_knife_bot@hacks@nem@@QAEXAAUuser_cmd_t@valve@3@@Z 1006e7c0 f   knife_bot.obj
 0001:0006eda0       ?select_target@c_knife_bot@hacks@nem@@QAE_NXZ 1006fda0 f   knife_bot.obj
 0001:0006f580       ?set_int@cvar_t@valve@nem@@QAEXH@Z 10070580 f i anim_sync.obj
 0001:0006f590       ?interp_air_data@c_anim_sync@hacks@nem@@ABEXAAUplayer_entry_t@23@V?$c_crypt_container@PAUlag_record_t@hacks@nem@@@@V?$c_crypt_container@PAUlag_anim_data_t@hacks@nem@@@@@Z 10070590 f   anim_sync.obj
 0001:00070a70       ?process_air_interp@c_anim_sync@hacks@nem@@ABEXAAUplayer_entry_t@23@QAUlag_record_t@23@QBUlag_anim_data_t@23@H@Z 10071a70 f   anim_sync.obj
 0001:00070bd0       ?interp_anim_data@c_anim_sync@hacks@nem@@ABEXAAUplayer_entry_t@23@V?$c_crypt_container@PAUlag_record_t@hacks@nem@@@@V?$c_crypt_container@PAUlag_anim_data_t@hacks@nem@@@@@Z 10071bd0 f   anim_sync.obj
 0001:00071100       ?update@c_anim_sync@hacks@nem@@ABEXAAUplayer_entry_t@23@V?$c_crypt_container@PAUlag_record_t@hacks@nem@@@@V?$c_crypt_container@PAUlag_anim_data_t@hacks@nem@@@@H@Z 10072100 f   anim_sync.obj
 0001:00074320       ?select_anim_side@c_anim_sync@hacks@nem@@ABEXAAUplayer_entry_t@23@QAUlag_record_t@23@QBUlag_anim_data_t@23@@Z 10075320 f   anim_sync.obj
 0001:000748a0       ?find_server_foot_yaw@c_anim_sync@hacks@nem@@ABEXAAUplayer_entry_t@23@QAUlag_record_t@23@QBUlag_anim_data_t@23@@Z 100758a0 f   anim_sync.obj
 0001:00074de0       ?setup_local_bones@c_anim_sync@hacks@nem@@QAEXXZ 10075de0 f   anim_sync.obj
 0001:00076a50       ?setup_bones@c_anim_sync@hacks@nem@@QBE_NQAVc_player@valve@3@AAV?$array@Umat3x4_t@@$0IA@@std@@MH@Z 10077a50 f   anim_sync.obj
 0001:000772e0       ?on_net_update@c_anim_sync@hacks@nem@@QBEXAAUplayer_entry_t@23@V?$c_crypt_container@PAUlag_record_t@hacks@nem@@@@V?$c_crypt_container@PAUlag_anim_data_t@hacks@nem@@@@@Z 100782e0 f   anim_sync.obj
 0001:00078320       ?update_local@c_anim_sync@hacks@nem@@QAEXABUImVec3@@_N_N@Z 10079320 f   anim_sync.obj
 0001:00079100       ??0anim_state_t@valve@nem@@QAE@XZ 1007a100 f i anim_sync.obj
 0001:00079480       ?update_local_real@c_anim_sync@hacks@nem@@QAEXAAUuser_cmd_t@valve@3@_N@Z 1007a480 f   anim_sync.obj
 0001:0007be20       ?at@?$array@Ulocal_data_t@c_eng_pred@hacks@nem@@$0JG@@std@@QAEAAUlocal_data_t@c_eng_pred@hacks@nem@@I@Z 1007ce20 f i anim_sync.obj
 0001:0007be40       ?at@?$array@Uanim_side_t@lag_anim_data_t@hacks@nem@@$02@std@@QAEAAUanim_side_t@lag_anim_data_t@hacks@nem@@I@Z 1007ce40 f i anim_sync.obj
 0001:0007be60       ?at@?$array@Uanim_layer_t@valve@nem@@$0N@@std@@QAEAAUanim_layer_t@valve@nem@@I@Z 1007ce60 f i anim_sync.obj
 0001:0007be80       ??$max@M@std@@YAABMABM0@Z  1007ce80 f i anti_aim.obj
 0001:0007be90       ?at_target@c_anti_aim@hacks@nem@@ABEXAAM@Z 1007ce90 f   anti_aim.obj
 0001:0007c9a0       ?auto_direction@c_anti_aim@hacks@nem@@AAE_NAAM@Z 1007d9a0 f   anti_aim.obj
 0001:0007d720       ?select_side@c_anti_aim@hacks@nem@@QAEHXZ 1007e720 f   anti_aim.obj
 0001:0007d960       ?choke@c_anti_aim@hacks@nem@@QAEXQAUuser_cmd_t@valve@3@@Z 1007e960 f   anti_aim.obj
 0001:0007e1d0       ?select_yaw@c_anti_aim@hacks@nem@@QAEXAAMHAAUuser_cmd_t@valve@3@@Z 1007f1d0 f   anti_aim.obj
 0001:0007e2c0       ?set_pitch@c_anti_aim@hacks@nem@@QAEXAAUuser_cmd_t@valve@3@@Z 1007f2c0 f   anti_aim.obj
 0001:0007e970       ?process@c_anti_aim@hacks@nem@@QAEXAAUuser_cmd_t@valve@3@MHH@Z 1007f970 f   anti_aim.obj
 0001:0007f540       ?trace_to_exit@c_auto_wall@hacks@nem@@ABE_NABUImVec3@@0ABUtrace_t@valve@3@AAU563@@Z 10080540 f   auto_wall.obj
 0001:0007fa30       ?clip_trace_to_player@c_auto_wall@hacks@nem@@ABEXABUImVec3@@0AAUtrace_t@valve@3@QAVc_player@63@ABQ6A_NQAVc_entity@63@W4e_mask@63@@Z@Z 10080a30 f   auto_wall.obj
 0001:00080140       ?handle_bullet_penetration@c_auto_wall@hacks@nem@@ABE_NQAVc_player@valve@3@QBUweapon_data_t@53@ABUtrace_t@53@AAUImVec3@@ABU8@AAHAAMM@Z 10081140 f   auto_wall.obj
 0001:000806b0       ?is_armored@hacks@nem@@YA_NPAVc_player@valve@2@H@Z 100816b0 f   auto_wall.obj
 0001:00080aa0       ?scale_dmg@c_auto_wall@hacks@nem@@QBEXQAVc_player@valve@3@AAMMMH@Z 10081aa0 f   auto_wall.obj
 0001:00081400       ?fire_bullet@c_auto_wall@hacks@nem@@QBE?AUpen_data_t@23@QAVc_player@valve@3@0QBUweapon_data_t@63@_NUImVec3@@ABU8@@Z 10082400 f   auto_wall.obj
 0001:00081bc0       ?fire_emulated@c_auto_wall@hacks@nem@@QBE?AUpen_data_t@23@QAVc_player@valve@3@0UImVec3@@ABU7@@Z 10082bc0 f   auto_wall.obj
 0001:00082000       ?prepare@c_eng_pred@hacks@nem@@QAEXXZ 10083000 f   eng_pred.obj
 0001:00082200       ?process@c_eng_pred@hacks@nem@@QAEXQAUuser_cmd_t@valve@3@_N@Z 10083200 f   eng_pred.obj
 0001:000834e0       ?predict@c_eng_pred@hacks@nem@@QAEXV?$c_crypt_container@PAUuser_cmd_t@valve@nem@@@@_N@Z 100844e0 f   eng_pred.obj
 0001:00085d60       ?update_shoot_pos@c_eng_pred@hacks@nem@@QBEXABUuser_cmd_t@valve@3@@Z 10086d60 f   eng_pred.obj
 0001:00086950       ?is_peeking@c_exploits@hacks@nem@@QAE_NAAUImVec3@@M@Z 10087950 f   exploits.obj
 0001:000876e0       ??0player_entry_t@hacks@nem@@QAE@ABU012@@Z 100886e0 f i exploits.obj
 0001:00087890       ?manage_wpn@c_exploits@hacks@nem@@QAEXAAUuser_cmd_t@valve@3@@Z 10088890 f   exploits.obj
 0001:00088550       ?skip_lag_interpolation@c_exploits@hacks@nem@@QAEX_N@Z 10089550 f   exploits.obj
 0001:00088b80       ?try_to_recharge@c_exploits@hacks@nem@@QAE_NXZ 10089b80 f   exploits.obj
 0001:00088f70       ?calc_correction_ticks@c_exploits@hacks@nem@@QBEHXZ 10089f70 f   exploits.obj
 0001:00089000       ?adjust_tick_base@c_exploits@hacks@nem@@QBEHHHH@Z 1008a000 f   exploits.obj
 0001:00089480       ?handle_break_lc@c_exploits@hacks@nem@@QAEXIIHV?$c_crypt_container@PAUbf_write_t@valve@nem@@@@AAH1PAUmove_msg_t@valve@3@@Z 1008a480 f   exploits.obj
 0001:000896d0       ?process_real_cmds@c_exploits@hacks@nem@@QAEXIIHV?$c_crypt_container@PAUbf_write_t@valve@nem@@@@AAH1V?$c_crypt_container@PAUmove_msg_t@valve@nem@@@@@Z 1008a6d0 f   exploits.obj
 0001:0008a580       ??0?$deque@V?$shared_ptr@Ulag_record_t@hacks@nem@@@std@@V?$allocator@V?$shared_ptr@Ulag_record_t@hacks@nem@@@std@@@2@@std@@QAE@ABV01@@Z 1008b580 f i exploits.obj
 0001:0008a700       ??1?$_Container_proxy_ptr12@V?$allocator@U_Container_proxy@std@@@std@@@std@@QAE@XZ 1008b700 f i exploits.obj
 0001:0008a720       ??1?$_Tidy_guard@V?$deque@V?$shared_ptr@Ulag_record_t@hacks@nem@@@std@@V?$allocator@V?$shared_ptr@Ulag_record_t@hacks@nem@@@std@@@2@@std@@@std@@QAE@XZ 1008b720 f i exploits.obj
 0001:0008a730       ?_Growmap@?$deque@Uout_cmds_data_t@c_context@nem@@V?$allocator@Uout_cmds_data_t@c_context@nem@@@std@@@std@@AAEXI@Z 1008b730 f i exploits.obj
 0001:0008a900       ?_Growmap@?$deque@V?$shared_ptr@Ulag_record_t@hacks@nem@@@std@@V?$allocator@V?$shared_ptr@Ulag_record_t@hacks@nem@@@std@@@2@@std@@AAEXI@Z 1008b900 f i exploits.obj
 0001:0008aad0       ?_Xlen@?$deque@Ubullet_trace_t@c_visuals@hacks@nem@@V?$allocator@Ubullet_trace_t@c_visuals@hacks@nem@@@std@@@std@@CAXXZ 1008bad0 f i shots.obj
 0001:0008aad0       ?_Xlen@?$deque@Ucallback_t@c_lua@nem@@V?$allocator@Ucallback_t@c_lua@nem@@@std@@@std@@CAXXZ 1008bad0 f i lua.obj
 0001:0008aad0       ?_Xlen@?$deque@Uhit_marker_data_t@c_hit_marker@hacks@nem@@V?$allocator@Uhit_marker_data_t@c_hit_marker@hacks@nem@@@std@@@std@@CAXXZ 1008bad0 f i visuals.obj
 0001:0008aad0       ?_Xlen@?$deque@Ulog_data_t@hacks@nem@@V?$allocator@Ulog_data_t@hacks@nem@@@std@@@std@@CAXXZ 1008bad0 f i shots.obj
 0001:0008aad0       ?_Xlen@?$deque@Uout_cmds_data_t@c_context@nem@@V?$allocator@Uout_cmds_data_t@c_context@nem@@@std@@@std@@CAXXZ 1008bad0 f i exploits.obj
 0001:0008aad0       ?_Xlen@?$deque@Ushot_t@hacks@nem@@V?$allocator@Ushot_t@hacks@nem@@@std@@@std@@CAXXZ 1008bad0 f i hooks.obj
 0001:0008aad0       ?_Xlen@?$deque@V?$shared_ptr@Ulag_record_t@hacks@nem@@@std@@V?$allocator@V?$shared_ptr@Ulag_record_t@hacks@nem@@@std@@@2@@std@@CAXXZ 1008bad0 f i exploits.obj
 0001:0008aae0       ?on_net_update@c_lag_comp@hacks@nem@@QAEXXZ 1008bae0 f   lag_comp.obj
 0001:0008f5d0       ??$__builtin_array_init_helper@Uanim_side_t@lag_anim_data_t@hacks@nem@@@@YAXPAUanim_side_t@lag_anim_data_t@hacks@nem@@I@Z 100905d0 f i lag_comp.obj
 0001:0008f680       ??$emplace_back@V?$shared_ptr@Ulag_record_t@hacks@nem@@@std@@@?$deque@V?$shared_ptr@Ulag_record_t@hacks@nem@@@std@@V?$allocator@V?$shared_ptr@Ulag_record_t@hacks@nem@@@std@@@2@@std@@QAEAAV?$shared_ptr@Ulag_record_t@hacks@nem@@@1@$$QAV21@@Z 10090680 f i lag_comp.obj
 0001:0008f760       ??$_Construct_in_place@Ulag_record_t@hacks@nem@@ABQAVc_player@valve@3@@std@@YAXAAUlag_record_t@hacks@nem@@ABQAVc_player@valve@3@@Z 10090760 f i lag_comp.obj
 0001:00090250       ?accelerate@c_movement@hacks@nem@@ABEXABUuser_cmd_t@valve@3@ABUImVec3@@MAAU6@M@Z 10091250 f   movement.obj
 0001:00090ce0       ?walk_move@c_movement@hacks@nem@@ABEXABUuser_cmd_t@valve@3@AAUImVec3@@111@Z 10091ce0 f   movement.obj
 0001:00090f70       ?full_walk_move@c_movement@hacks@nem@@ABEXABUuser_cmd_t@valve@3@AAUImVec3@@111@Z 10091f70 f   movement.obj
 0001:00091210       ?modify_move@c_movement@hacks@nem@@ABEXAAUuser_cmd_t@valve@3@AAUImVec3@@@Z 10092210 f   movement.obj
 0001:000913e0       ?predict_move@c_movement@hacks@nem@@ABEXABUuser_cmd_t@valve@3@AAUImVec3@@@Z 100923e0 f   movement.obj
 0001:000915b0       ?auto_strafe@c_movement@hacks@nem@@AAEXAAUuser_cmd_t@valve@3@@Z 100925b0 f   movement.obj
 0001:00091de0       ?should_pred_auto_stop@hacks@nem@@YA_NXZ 10092de0 f   movement.obj
 0001:000923d0       ?stop@c_movement@hacks@nem@@QAE_NAAUuser_cmd_t@valve@3@@Z 100933d0 f   movement.obj
 0001:000944c0       ?fast_stop@c_movement@hacks@nem@@QAEXAAUuser_cmd_t@valve@3@@Z 100954c0 f   movement.obj
 0001:000952a0       ?normalize@c_movement@hacks@nem@@QBEXAAUuser_cmd_t@valve@3@@Z 100962a0 f   movement.obj
 0001:000956e0       ?rotate@c_movement@hacks@nem@@QBEXAAUuser_cmd_t@valve@3@ABUImVec3@@W4e_ent_flags@53@W4e_move_type@53@@Z 100966e0 f   movement.obj
 0001:00096000       ?auto_peek@c_movement@hacks@nem@@QAEXAAUImVec3@@AAUuser_cmd_t@valve@3@@Z 10097000 f   movement.obj
 0001:00097990       ?on_create_move@c_movement@hacks@nem@@QAEXAAUuser_cmd_t@valve@3@@Z 10098990 f   movement.obj
 0001:000987c0       ?_Throw_format_error@std@@YAXPBD@Z 100997c0 f i shots.obj
 0001:00098800       ??0format_error@std@@QAE@PBD@Z 10099800 f i shots.obj
 0001:00098820       ?__decimalLength9@std@@YAII@Z 10099820 f i shots.obj
 0001:00098890       ?__multipleOfPowerOf5@std@@YA_N_KI@Z 10099890 f i shots.obj
 0001:00098950       ?__mulShift_mod1e9@std@@YAI_KQB_KH@Z 10099950 f i shots.obj
 0001:00098c10       ?__append_d_digits@std@@YAXIIQAD@Z 10099c10 f i shots.obj
 0001:00098cf0       ?__d2exp_buffered_n@std@@YA?AUto_chars_result@1@PADQADNI@Z 10099cf0 f i shots.obj
 0001:00099330       ?__f2d@std@@YA?AU__floating_decimal_32@1@II@Z 1009a330 f i shots.obj
 0001:00099960       ?__d2d@std@@YA?AU__floating_decimal_64@1@_KI@Z 1009a960 f i shots.obj
 0001:0009aad0       ?to_chars@std@@YA?AUto_chars_result@1@QAD0IH@Z 1009bad0 f i shots.obj
 0001:0009ac40       ?to_chars@std@@YA?AUto_chars_result@1@QAD0M@Z 1009bc40 f i shots.obj
 0001:0009ad60       ?_Decode_utf@std@@YA?AU?$_Decode_result@D@1@PBD0AA_U@Z 1009bd60 f i shots.obj
 0001:0009af20       ?_Count_separators@std@@YAHIV?$basic_string_view@DU?$char_traits@D@std@@@1@@Z 1009bf20 f i shots.obj
 0001:0009af80       ?who_tf_asked@c_player@valve@nem@@QAE?AUImVec3@@HV?$array@Umat3x4_t@@$0IA@@std@@@Z 1009bf80 f i shots.obj
 0001:0009b2e0       ?on_net_update@c_shots@hacks@nem@@QAEXXZ 1009c2e0 f   shots.obj
 0001:0009cb00       ?register_self@c_shots@hacks@nem@@QAEXXZ 1009db00 f   shots.obj
 0001:0009cbd0       ?fire_game_event@c_shots@hacks@nem@@UAEXQAUgame_event_t@valve@3@@Z 1009dbd0 f   shots.obj
 0001:0009e600       ?draw_data@c_logs@hacks@nem@@QAEXXZ 1009f600 f   shots.obj
 0001:0009eaf0       ?push_log@c_logs@hacks@nem@@QAEXV?$basic_string@DU?$char_traits@D@std@@V?$allocator@D@2@@std@@0Ucol_t@@@Z 1009faf0 f   shots.obj
 0001:0009ed10       ??$__append_nine_digits@D@std@@YAXIQAD@Z 1009fd10 f i shots.obj
 0001:0009eda0       ??$__append_c_digits@D@std@@YAXIIQAD@Z 1009fda0 f i shots.obj
 0001:0009ee30       ??$_Integer_to_chars@H@std@@YA?AUto_chars_result@0@PADQADHH@Z 1009fe30 f i shots.obj
 0001:0009efb0       ??$_Integer_to_chars@_J@std@@YA?AUto_chars_result@0@PADQAD_JH@Z 1009ffb0 f i shots.obj
 0001:0009f2b0       ??$_Integer_to_chars@_K@std@@YA?AUto_chars_result@0@PADQAD_KH@Z 100a02b0 f i shots.obj
 0001:0009f580       ??$_Floating_to_chars@$0A@N@std@@YA?AUto_chars_result@0@PADQADNW4chars_format@0@H@Z 100a0580 f i shots.obj
 0001:0009f680       ??$_Floating_to_chars@$00N@std@@YA?AUto_chars_result@0@PADQADNW4chars_format@0@H@Z 100a0680 f i shots.obj
 0001:0009f7a0       ??$_Floating_to_chars@$01M@std@@YA?AUto_chars_result@0@PADQADMW4chars_format@0@H@Z 100a07a0 f i shots.obj
 0001:0009f940       ??$_Floating_to_chars@$01N@std@@YA?AUto_chars_result@0@PADQADNW4chars_format@0@H@Z 100a0940 f i shots.obj
 0001:0009fae0       ??$find_if@V?$_Deque_iterator@V?$_Deque_val@U?$_Deque_simple_types@Ushot_t@hacks@nem@@@std@@@std@@@std@@V<lambda_1>@?1??last_unprocessed@c_shots@hacks@nem@@QAEPAUshot_t@67@XZ@@std@@YA?AV?$_Deque_iterator@V?$_Deque_val@U?$_Deque_simple_types@Ushot_t@hacks@nem@@@std@@@std@@@0@V10@V10@V<lambda_1>@?1??last_unprocessed@c_shots@hacks@nem@@QAEPAUshot_t@56@XZ@@Z 100a0ae0 f i shots.obj
 0001:0009fd60       ??4shot_t@hacks@nem@@QAEAAU012@$$QAU012@@Z 100a0d60 f i shots.obj
 0001:000a0010       ??$format@AAV?$basic_string@DU?$char_traits@D@std@@V?$allocator@D@2@@std@@PBDH@std@@YA?AV?$basic_string@DU?$char_traits@D@std@@V?$allocator@D@2@@0@U?$basic_format_string@DAAV?$basic_string@DU?$char_traits@D@std@@V?$allocator@D@2@@std@@PBDH@0@AAV10@$$QAPBD$$QAH@Z 100a1010 f i shots.obj
 0001:000a0160       ?erase@?$deque@Ushot_t@hacks@nem@@V?$allocator@Ushot_t@hacks@nem@@@std@@@std@@QAE?AV?$_Deque_iterator@V?$_Deque_val@U?$_Deque_simple_types@Ushot_t@hacks@nem@@@std@@@std@@@2@V?$_Deque_const_iterator@V?$_Deque_val@U?$_Deque_simple_types@Ushot_t@hacks@nem@@@std@@@std@@@2@0@Z 100a1160 f i shots.obj
 0001:000a0370       ?pop_front@?$deque@Ushot_t@hacks@nem@@V?$allocator@Ushot_t@hacks@nem@@@std@@@std@@QAEXXZ 100a1370 f i shots.obj
 0001:000a03d0       ?do_truename@?$numpunct@D@std@@MBE?AV?$basic_string@DU?$char_traits@D@std@@V?$allocator@D@2@@2@XZ 100a13d0 f i shots.obj
 0001:000a0420       ?do_falsename@?$numpunct@D@std@@MBE?AV?$basic_string@DU?$char_traits@D@std@@V?$allocator@D@2@@2@XZ 100a1420 f i shots.obj
 0001:000a0470       ?do_grouping@?$numpunct@D@std@@MBE?AV?$basic_string@DU?$char_traits@D@std@@V?$allocator@D@2@@2@XZ 100a1470 f i shots.obj
 0001:000a04c0       ?do_thousands_sep@?$numpunct@D@std@@MBEDXZ 100a14c0 f i shots.obj
 0001:000a04d0       ?do_decimal_point@?$numpunct@D@std@@MBEDXZ 100a14d0 f i shots.obj
 0001:000a04e0       ??B?$basic_string@DU?$char_traits@D@std@@V?$allocator@D@2@@std@@QBE?AV?$basic_string_view@DU?$char_traits@D@std@@@1@XZ 100a14e0 f i shots.obj
 0001:000a0500       ?end@?$basic_string@DU?$char_traits@D@std@@V?$allocator@D@2@@std@@QAE?AV?$_String_iterator@V?$_String_val@U?$_Simple_types@D@std@@@std@@@2@XZ 100a1500 f i shots.obj
 0001:000a0520       ?begin@?$basic_string@DU?$char_traits@D@std@@V?$allocator@D@2@@std@@QAE?AV?$_String_iterator@V?$_String_val@U?$_Simple_types@D@std@@@std@@@2@XZ 100a1520 f i shots.obj
 0001:000a0540       ??_E?$numpunct@D@std@@MAEPAXI@Z 100a1540 f i * CIL library *:* CIL module *
 0001:000a0540       ??_G?$numpunct@D@std@@MAEPAXI@Z 100a1540 f i shots.obj
 0001:000a0590       ??$_Floating_to_chars_ryu@M@std@@YA?AUto_chars_result@0@QAD0MW4chars_format@0@@Z 100a1590 f i shots.obj
 0001:000a0670       ??$_Floating_to_chars_hex_shortest@M@std@@YA?AUto_chars_result@0@PADQADM@Z 100a1670 f i shots.obj
 0001:000a0790       ??$_Floating_to_chars_hex_shortest@N@std@@YA?AUto_chars_result@0@PADQADN@Z 100a1790 f i shots.obj
 0001:000a0910       ??$_Floating_to_chars_general_precision@M@std@@YA?AUto_chars_result@0@PADQADMH@Z 100a1910 f i shots.obj
 0001:000a0b30       ??$_Floating_to_chars_hex_precision@M@std@@YA?AUto_chars_result@0@PADQADMH@Z 100a1b30 f i shots.obj
 0001:000a0d00       ??$_Floating_to_chars_general_precision@N@std@@YA?AUto_chars_result@0@PADQADNH@Z 100a1d00 f i shots.obj
 0001:000a0f90       ??$_Floating_to_chars_hex_precision@N@std@@YA?AUto_chars_result@0@PADQADNH@Z 100a1f90 f i shots.obj
 0001:000a11e0       ??$vformat@$0A@@std@@YA?AV?$basic_string@DU?$char_traits@D@std@@V?$allocator@D@2@@0@V?$basic_string_view@DU?$char_traits@D@std@@@0@V?$basic_format_args@V?$basic_format_context@V?$back_insert_iterator@V?$_Fmt_buffer@D@std@@@std@@D@std@@@0@@Z 100a21e0 f i shots.obj
 0001:000a13d0       ??$_Parse_nonnegative_integer@D@std@@YAPBDPBD0AAI@Z 100a23d0 f i shots.obj
 0001:000a1430       ??$use_facet@V?$numpunct@D@std@@@std@@YAABV?$numpunct@D@0@ABVlocale@0@@Z 100a2430 f i shots.obj
 0001:000a1540       ?erase@?$deque@Ulog_data_t@hacks@nem@@V?$allocator@Ulog_data_t@hacks@nem@@@std@@@std@@QAE?AV?$_Deque_iterator@V?$_Deque_val@U?$_Deque_simple_types@Ulog_data_t@hacks@nem@@@std@@@std@@@2@V?$_Deque_const_iterator@V?$_Deque_val@U?$_Deque_simple_types@Ulog_data_t@hacks@nem@@@std@@@std@@@2@0@Z 100a2540 f i shots.obj
 0001:000a1710       ??$__d2s_buffered_n@D@std@@YA?AU?$pair@PADW4errc@std@@@0@QAD0NW4chars_format@0@@Z 100a2710 f i shots.obj
 0001:000a1940       ??$__d2fixed_buffered_n@D@std@@YA?AU?$pair@PADW4errc@std@@@0@PADQADNI@Z 100a2940 f i shots.obj
 0001:000a1dd0       ??$_Emplace_reallocate@AAMAAUImVec3@@AAU1@@?$vector@Ubullet_impact_t@c_visuals@hacks@nem@@V?$allocator@Ubullet_impact_t@c_visuals@hacks@nem@@@std@@@std@@AAEPAUbullet_impact_t@c_visuals@hacks@nem@@QAU2345@AAMAAUImVec3@@2@Z 100a2dd0 f i shots.obj
 0001:000a1f60       ?_Growmap@?$deque@Ubullet_trace_t@c_visuals@hacks@nem@@V?$allocator@Ubullet_trace_t@c_visuals@hacks@nem@@@std@@@std@@AAEXI@Z 100a2f60 f i shots.obj
 0001:000a2120       ?_Growmap@?$deque@Ulog_data_t@hacks@nem@@V?$allocator@Ulog_data_t@hacks@nem@@@std@@@std@@AAEXI@Z 100a3120 f i shots.obj
 0001:000a22f0       ?_Getcat@?$numpunct@D@std@@SAIPAPBVfacet@locale@2@PBV42@@Z 100a32f0 f i shots.obj
 0001:000a24a0       ??$_Large_integer_to_chars@D@std@@YA?AU?$pair@PADW4errc@std@@@0@QAD0IH@Z 100a34a0 f i shots.obj
 0001:000a26b0       ??$__to_chars@D@std@@YA?AU?$pair@PADW4errc@std@@@0@QAD0U__floating_decimal_32@0@W4chars_format@0@II@Z 100a36b0 f i shots.obj
 0001:000a29e0       ??$__to_chars@D@std@@YA?AU?$pair@PADW4errc@std@@@0@QAD0U__floating_decimal_64@0@W4chars_format@0@N@Z 100a39e0 f i shots.obj
 0001:000a30b0       ??$__append_n_digits@D@std@@YAXIIQAD@Z 100a40b0 f i shots.obj
 0001:000a3180       ??4log_data_t@hacks@nem@@QAEAAU012@$$QAU012@@Z 100a4180 f i shots.obj
 0001:000a3240       ??$_Parse_format_string@DAAU?$_Format_handler@D@std@@@std@@YAXV?$basic_string_view@DU?$char_traits@D@std@@@0@AAU?$_Format_handler@D@0@@Z 100a4240 f i shots.obj
 0001:000a3360       ??1?$_Fmt_iterator_buffer@V?$back_insert_iterator@V?$basic_string@DU?$char_traits@D@std@@V?$allocator@D@2@@std@@@std@@DU_Fmt_buffer_traits@2@@std@@QAE@XZ 100a4360 f i shots.obj
 0001:000a33e0       ?_Grow@?$_Fmt_iterator_buffer@V?$back_insert_iterator@V?$basic_string@DU?$char_traits@D@std@@V?$allocator@D@2@@std@@@std@@DU_Fmt_buffer_traits@2@@std@@EAEXI@Z 100a43e0 f i shots.obj
 0001:000a3430       ??$_Parse_replacement_field@DAAU?$_Format_handler@D@std@@@std@@YAPBDPBD0AAU?$_Format_handler@D@0@@Z 100a4430 f i shots.obj
 0001:000a3700       ??1?$_Tidy_guard@V?$numpunct@D@std@@@std@@QAE@XZ 100a4700 f i shots.obj
 0001:000a3730       ??$_Visit@U?$_Arg_formatter@V?$back_insert_iterator@V?$_Fmt_buffer@D@std@@@std@@D@std@@@?$basic_format_arg@V?$basic_format_context@V?$back_insert_iterator@V?$_Fmt_buffer@D@std@@@std@@D@std@@@std@@QAE?A_T$$QAU?$_Arg_formatter@V?$back_insert_iterator@V?$_Fmt_buffer@D@std@@@std@@D@1@@Z 100a4730 f i shots.obj
 0001:000a3b40       ??$_Visit@U?$_Default_arg_formatter@V?$back_insert_iterator@V?$_Fmt_buffer@D@std@@@std@@D@std@@@?$basic_format_arg@V?$basic_format_context@V?$back_insert_iterator@V?$_Fmt_buffer@D@std@@@std@@D@std@@@std@@QAE?A_T$$QAU?$_Default_arg_formatter@V?$back_insert_iterator@V?$_Fmt_buffer@D@std@@@std@@D@1@@Z 100a4b40 f i shots.obj
 0001:000a4050       ??$_Get_arg@V?$basic_format_context@V?$back_insert_iterator@V?$_Fmt_buffer@D@std@@@std@@D@std@@@std@@YA?AV?$basic_format_arg@V?$basic_format_context@V?$back_insert_iterator@V?$_Fmt_buffer@D@std@@@std@@D@std@@@0@ABV?$basic_format_context@V?$back_insert_iterator@V?$_Fmt_buffer@D@std@@@std@@D@0@I@Z 100a5050 f i shots.obj
 0001:000a41e0       ??$_Parse_format_specs@DAAV?$_Specs_checker@V?$_Specs_handler@V?$basic_format_parse_context@D@std@@V?$basic_format_context@V?$back_insert_iterator@V?$_Fmt_buffer@D@std@@@std@@D@2@@std@@@std@@@std@@YAPBDPBD0AAV?$_Specs_checker@V?$_Specs_handler@V?$basic_format_parse_context@D@std@@V?$basic_format_context@V?$back_insert_iterator@V?$_Fmt_buffer@D@std@@@std@@D@2@@std@@@0@@Z 100a51e0 f i shots.obj
 0001:000a4530       ??$_On_type@D@?$_Specs_checker@V?$_Specs_handler@V?$basic_format_parse_context@D@std@@V?$basic_format_context@V?$back_insert_iterator@V?$_Fmt_buffer@D@std@@@std@@D@2@@std@@@std@@QAEXD@Z 100a5530 f i shots.obj
 0001:000a4790       ??$_Parse_precision@DAAV?$_Specs_checker@V?$_Specs_handler@V?$basic_format_parse_context@D@std@@V?$basic_format_context@V?$back_insert_iterator@V?$_Fmt_buffer@D@std@@@std@@D@2@@std@@@std@@@std@@YAPBDPBD0AAV?$_Specs_checker@V?$_Specs_handler@V?$basic_format_parse_context@D@std@@V?$basic_format_context@V?$back_insert_iterator@V?$_Fmt_buffer@D@std@@@std@@D@2@@std@@@0@@Z 100a5790 f i shots.obj
 0001:000a4910       ??$_Fmt_write@DV?$back_insert_iterator@V?$_Fmt_buffer@D@std@@@std@@@std@@YA?AV?$back_insert_iterator@V?$_Fmt_buffer@D@std@@@0@V10@_NU?$_Basic_format_specs@D@0@V_Lazy_locale@0@@Z 100a5910 f i shots.obj
 0001:000a4ae0       ??$_Fmt_write@DV?$back_insert_iterator@V?$_Fmt_buffer@D@std@@@std@@@std@@YA?AV?$back_insert_iterator@V?$_Fmt_buffer@D@std@@@0@V10@DU?$_Basic_format_specs@D@0@V_Lazy_locale@0@@Z 100a5ae0 f i shots.obj
 0001:000a4b40       ??$_Fmt_write@DV?$back_insert_iterator@V?$_Fmt_buffer@D@std@@@std@@M@std@@YA?AV?$back_insert_iterator@V?$_Fmt_buffer@D@std@@@0@V10@MABU?$_Basic_format_specs@D@0@V_Lazy_locale@0@@Z 100a5b40 f i shots.obj
 0001:000a5260       ??R<lambda_1>@?1???$_Fmt_write@DV?$back_insert_iterator@V?$_Fmt_buffer@D@std@@@std@@M@std@@YA?AV?$back_insert_iterator@V?$_Fmt_buffer@D@std@@@1@V21@MABU?$_Basic_format_specs@D@1@V_Lazy_locale@1@@Z@QBE@0@Z 100a6260 f i shots.obj
 0001:000a5260       ??R<lambda_1>@?1???$_Fmt_write@DV?$back_insert_iterator@V?$_Fmt_buffer@D@std@@@std@@N@std@@YA?AV?$back_insert_iterator@V?$_Fmt_buffer@D@std@@@1@V21@NABU?$_Basic_format_specs@D@1@V_Lazy_locale@1@@Z@QBE@0@Z 100a6260 f i shots.obj
 0001:000a5260       ??R<lambda_1>@?1???$_Fmt_write@DV?$back_insert_iterator@V?$_Fmt_buffer@D@std@@@std@@O@std@@YA?AV?$back_insert_iterator@V?$_Fmt_buffer@D@std@@@1@V21@OABU?$_Basic_format_specs@D@1@V_Lazy_locale@1@@Z@QBE@0@Z 100a6260 f i shots.obj
 0001:000a5520       ??$_Fmt_write@DV?$back_insert_iterator@V?$_Fmt_buffer@D@std@@@std@@N@std@@YA?AV?$back_insert_iterator@V?$_Fmt_buffer@D@std@@@0@V10@NABU?$_Basic_format_specs@D@0@V_Lazy_locale@0@@Z 100a6520 f i shots.obj
 0001:000a5b30       ??$_Fmt_write@DV?$back_insert_iterator@V?$_Fmt_buffer@D@std@@@std@@O@std@@YA?AV?$back_insert_iterator@V?$_Fmt_buffer@D@std@@@0@V10@OABU?$_Basic_format_specs@D@0@V_Lazy_locale@0@@Z 100a6b30 f i shots.obj
 0001:000a6140       ??R<lambda_1>@?1???$_Fmt_write@DV?$back_insert_iterator@V?$_Fmt_buffer@D@std@@@std@@@std@@YA?AV?$back_insert_iterator@V?$_Fmt_buffer@D@std@@@1@V21@QBXABU?$_Basic_format_specs@D@1@V_Lazy_locale@1@@Z@QBE@0@Z 100a7140 f i shots.obj
 0001:000a61f0       ??$_Fmt_write@DV?$back_insert_iterator@V?$_Fmt_buffer@D@std@@@std@@@std@@YA?AV?$back_insert_iterator@V?$_Fmt_buffer@D@std@@@0@V10@V?$basic_string_view@DU?$char_traits@D@std@@@0@ABU?$_Basic_format_specs@D@0@V_Lazy_locale@0@@Z 100a71f0 f i shots.obj
 0001:000a63a0       ??$_Fmt_write@DV?$back_insert_iterator@V?$_Fmt_buffer@D@std@@@std@@@std@@YA?AV?$back_insert_iterator@V?$_Fmt_buffer@D@std@@@0@V10@PBD@Z 100a73a0 f i shots.obj
 0001:000a6410       ??$_Write_integral@DV?$back_insert_iterator@V?$_Fmt_buffer@D@std@@@std@@E@std@@YA?AV?$back_insert_iterator@V?$_Fmt_buffer@D@std@@@0@V10@EU?$_Basic_format_specs@D@0@V_Lazy_locale@0@@Z 100a7410 f i shots.obj
 0001:000a6980       ??R<lambda_1>@?1???$_Write_integral@DV?$back_insert_iterator@V?$_Fmt_buffer@D@std@@@std@@E@std@@YA?AV?$back_insert_iterator@V?$_Fmt_buffer@D@std@@@1@V21@EU?$_Basic_format_specs@D@1@V_Lazy_locale@1@@Z@QBE@0@Z 100a7980 f i shots.obj
 0001:000a6980       ??R<lambda_1>@?1???$_Write_integral@DV?$back_insert_iterator@V?$_Fmt_buffer@D@std@@@std@@I@std@@YA?AV?$back_insert_iterator@V?$_Fmt_buffer@D@std@@@1@V21@IU?$_Basic_format_specs@D@1@V_Lazy_locale@1@@Z@QBE@0@Z 100a7980 f i shots.obj
 0001:000a6980       ??R<lambda_1>@?1???$_Write_integral@DV?$back_insert_iterator@V?$_Fmt_buffer@D@std@@@std@@_K@std@@YA?AV?$back_insert_iterator@V?$_Fmt_buffer@D@std@@@1@V21@_KU?$_Basic_format_specs@D@1@V_Lazy_locale@1@@Z@QBE@0@Z 100a7980 f i shots.obj
 0001:000a6af0       ??$_Write_integral@DV?$back_insert_iterator@V?$_Fmt_buffer@D@std@@@std@@H@std@@YA?AV?$back_insert_iterator@V?$_Fmt_buffer@D@std@@@0@V10@HU?$_Basic_format_specs@D@0@V_Lazy_locale@0@@Z 100a7af0 f i shots.obj
 0001:000a6f20       ??R<lambda_1>@?1???$_Write_integral@DV?$back_insert_iterator@V?$_Fmt_buffer@D@std@@@std@@H@std@@YA?AV?$back_insert_iterator@V?$_Fmt_buffer@D@std@@@1@V21@HU?$_Basic_format_specs@D@1@V_Lazy_locale@1@@Z@QBE@0@Z 100a7f20 f i shots.obj
 0001:000a7090       ??$_Write_integral@DV?$back_insert_iterator@V?$_Fmt_buffer@D@std@@@std@@I@std@@YA?AV?$back_insert_iterator@V?$_Fmt_buffer@D@std@@@0@V10@IU?$_Basic_format_specs@D@0@V_Lazy_locale@0@@Z 100a8090 f i shots.obj
 0001:000a74b0       ??$_Write_integral@DV?$back_insert_iterator@V?$_Fmt_buffer@D@std@@@std@@_J@std@@YA?AV?$back_insert_iterator@V?$_Fmt_buffer@D@std@@@0@V10@_JU?$_Basic_format_specs@D@0@V_Lazy_locale@0@@Z 100a84b0 f i shots.obj
 0001:000a7910       ??R<lambda_1>@?1???$_Write_integral@DV?$back_insert_iterator@V?$_Fmt_buffer@D@std@@@std@@_J@std@@YA?AV?$back_insert_iterator@V?$_Fmt_buffer@D@std@@@1@V21@_JU?$_Basic_format_specs@D@1@V_Lazy_locale@1@@Z@QBE@0@Z 100a8910 f i shots.obj
 0001:000a7a90       ??$_Write_integral@DV?$back_insert_iterator@V?$_Fmt_buffer@D@std@@@std@@_K@std@@YA?AV?$back_insert_iterator@V?$_Fmt_buffer@D@std@@@0@V10@_KU?$_Basic_format_specs@D@0@V_Lazy_locale@0@@Z 100a8a90 f i shots.obj
 0001:000a7ec0       ??$_Write_sign@V?$back_insert_iterator@V?$_Fmt_buffer@D@std@@@std@@@std@@YA?AV?$back_insert_iterator@V?$_Fmt_buffer@D@std@@@0@V10@W4_Fmt_sign@0@_N@Z 100a8ec0 f i shots.obj
 0001:000a7f60       ??$?RDV?$back_insert_iterator@V?$_Fmt_buffer@D@std@@@std@@@_Fill_n_fn@ranges@std@@SA?AV?$back_insert_iterator@V?$_Fmt_buffer@D@std@@@2@V32@HABD@Z 100a8f60 f i shots.obj
 0001:000a7fd0       ??$_Write_separated_integer@DV?$back_insert_iterator@V?$_Fmt_buffer@D@std@@@std@@@std@@YA?AV?$back_insert_iterator@V?$_Fmt_buffer@D@std@@@0@PBDQBDV?$basic_string_view@DU?$char_traits@D@std@@@0@DHV10@@Z 100a8fd0 f i shots.obj
 0001:000a8140       ??$_Widen_and_copy@DV?$back_insert_iterator@V?$_Fmt_buffer@D@std@@@std@@@std@@YA?AV?$back_insert_iterator@V?$_Fmt_buffer@D@std@@@0@PBDQBDV10@@Z 100a9140 f i shots.obj
 0001:000a8190       ??$_Write_aligned@V?$back_insert_iterator@V?$_Fmt_buffer@D@std@@@std@@U?$_Basic_format_specs@D@2@AAV<lambda_1>@?1???$_Fmt_write@DV?$back_insert_iterator@V?$_Fmt_buffer@D@std@@@std@@M@2@YA?AV12@V12@MABU32@V_Lazy_locale@2@@Z@@std@@YA?AV?$back_insert_iterator@V?$_Fmt_buffer@D@std@@@0@V10@HABU?$_Basic_format_specs@D@0@W4_Fmt_align@0@AAV<lambda_1>@?1???$_Fmt_write@DV?$back_insert_iterator@V?$_Fmt_buffer@D@std@@@std@@M@0@YA?AV10@0M1V_Lazy_locale@0@@Z@@Z 100a9190 f i shots.obj
 0001:000a8190       ??$_Write_aligned@V?$back_insert_iterator@V?$_Fmt_buffer@D@std@@@std@@U?$_Basic_format_specs@D@2@AAV<lambda_1>@?1???$_Fmt_write@DV?$back_insert_iterator@V?$_Fmt_buffer@D@std@@@std@@N@2@YA?AV12@V12@NABU32@V_Lazy_locale@2@@Z@@std@@YA?AV?$back_insert_iterator@V?$_Fmt_buffer@D@std@@@0@V10@HABU?$_Basic_format_specs@D@0@W4_Fmt_align@0@AAV<lambda_1>@?1???$_Fmt_write@DV?$back_insert_iterator@V?$_Fmt_buffer@D@std@@@std@@N@0@YA?AV10@0N1V_Lazy_locale@0@@Z@@Z 100a9190 f i shots.obj
 0001:000a8190       ??$_Write_aligned@V?$back_insert_iterator@V?$_Fmt_buffer@D@std@@@std@@U?$_Basic_format_specs@D@2@AAV<lambda_1>@?1???$_Fmt_write@DV?$back_insert_iterator@V?$_Fmt_buffer@D@std@@@std@@O@2@YA?AV12@V12@OABU32@V_Lazy_locale@2@@Z@@std@@YA?AV?$back_insert_iterator@V?$_Fmt_buffer@D@std@@@0@V10@HABU?$_Basic_format_specs@D@0@W4_Fmt_align@0@AAV<lambda_1>@?1???$_Fmt_write@DV?$back_insert_iterator@V?$_Fmt_buffer@D@std@@@std@@O@0@YA?AV10@0O1V_Lazy_locale@0@@Z@@Z 100a9190 f i shots.obj
 0001:000a82e0       ??$_Write_aligned@V?$back_insert_iterator@V?$_Fmt_buffer@D@std@@@std@@U?$_Basic_format_specs@D@2@AAV<lambda_1>@?1???$_Fmt_write@DV?$back_insert_iterator@V?$_Fmt_buffer@D@std@@@std@@@2@YA?AV12@V12@QBXABU32@V_Lazy_locale@2@@Z@@std@@YA?AV?$back_insert_iterator@V?$_Fmt_buffer@D@std@@@0@V10@HABU?$_Basic_format_specs@D@0@W4_Fmt_align@0@AAV<lambda_1>@?1???$_Fmt_write@DV?$back_insert_iterator@V?$_Fmt_buffer@D@std@@@std@@@0@YA?AV10@0QBX1V_Lazy_locale@0@@Z@@Z 100a92e0 f i shots.obj
 0001:000a8430       ??$_Write_aligned@V?$back_insert_iterator@V?$_Fmt_buffer@D@std@@@std@@U?$_Basic_format_specs@D@2@V<lambda_1>@?1???$_Fmt_write@DV?$back_insert_iterator@V?$_Fmt_buffer@D@std@@@std@@@2@YA?AV12@V12@V?$basic_string_view@DU?$char_traits@D@std@@@2@ABU32@V_Lazy_locale@2@@Z@@std@@YA?AV?$back_insert_iterator@V?$_Fmt_buffer@D@std@@@0@V10@HABU?$_Basic_format_specs@D@0@W4_Fmt_align@0@$$QAV<lambda_1>@?1???$_Fmt_write@DV?$back_insert_iterator@V?$_Fmt_buffer@D@std@@@std@@@0@YA?AV10@0V?$basic_string_view@DU?$char_traits@D@std@@@0@1V_Lazy_locale@0@@Z@@Z 100a9430 f i shots.obj
 0001:000a85d0       ??$_Write_aligned@V?$back_insert_iterator@V?$_Fmt_buffer@D@std@@@std@@U?$_Basic_format_specs@D@2@AAV<lambda_1>@?1???$_Write_integral@DV?$back_insert_iterator@V?$_Fmt_buffer@D@std@@@std@@E@2@YA?AV12@V12@EU32@V_Lazy_locale@2@@Z@@std@@YA?AV?$back_insert_iterator@V?$_Fmt_buffer@D@std@@@0@V10@HABU?$_Basic_format_specs@D@0@W4_Fmt_align@0@AAV<lambda_1>@?1???$_Write_integral@DV?$back_insert_iterator@V?$_Fmt_buffer@D@std@@@std@@E@0@YA?AV10@0EU20@V_Lazy_locale@0@@Z@@Z 100a95d0 f i shots.obj
 0001:000a85d0       ??$_Write_aligned@V?$back_insert_iterator@V?$_Fmt_buffer@D@std@@@std@@U?$_Basic_format_specs@D@2@AAV<lambda_1>@?1???$_Write_integral@DV?$back_insert_iterator@V?$_Fmt_buffer@D@std@@@std@@I@2@YA?AV12@V12@IU32@V_Lazy_locale@2@@Z@@std@@YA?AV?$back_insert_iterator@V?$_Fmt_buffer@D@std@@@0@V10@HABU?$_Basic_format_specs@D@0@W4_Fmt_align@0@AAV<lambda_1>@?1???$_Write_integral@DV?$back_insert_iterator@V?$_Fmt_buffer@D@std@@@std@@I@0@YA?AV10@0IU20@V_Lazy_locale@0@@Z@@Z 100a95d0 f i shots.obj
 0001:000a85d0       ??$_Write_aligned@V?$back_insert_iterator@V?$_Fmt_buffer@D@std@@@std@@U?$_Basic_format_specs@D@2@AAV<lambda_1>@?1???$_Write_integral@DV?$back_insert_iterator@V?$_Fmt_buffer@D@std@@@std@@_K@2@YA?AV12@V12@_KU32@V_Lazy_locale@2@@Z@@std@@YA?AV?$back_insert_iterator@V?$_Fmt_buffer@D@std@@@0@V10@HABU?$_Basic_format_specs@D@0@W4_Fmt_align@0@AAV<lambda_1>@?1???$_Write_integral@DV?$back_insert_iterator@V?$_Fmt_buffer@D@std@@@std@@_K@0@YA?AV10@0_KU20@V_Lazy_locale@0@@Z@@Z 100a95d0 f i shots.obj
 0001:000a8720       ??$_Write_aligned@V?$back_insert_iterator@V?$_Fmt_buffer@D@std@@@std@@U?$_Basic_format_specs@D@2@AAV<lambda_1>@?1???$_Write_integral@DV?$back_insert_iterator@V?$_Fmt_buffer@D@std@@@std@@H@2@YA?AV12@V12@HU32@V_Lazy_locale@2@@Z@@std@@YA?AV?$back_insert_iterator@V?$_Fmt_buffer@D@std@@@0@V10@HABU?$_Basic_format_specs@D@0@W4_Fmt_align@0@AAV<lambda_1>@?1???$_Write_integral@DV?$back_insert_iterator@V?$_Fmt_buffer@D@std@@@std@@H@0@YA?AV10@0HU20@V_Lazy_locale@0@@Z@@Z 100a9720 f i shots.obj
 0001:000a8870       ??$_Write_aligned@V?$back_insert_iterator@V?$_Fmt_buffer@D@std@@@std@@U?$_Basic_format_specs@D@2@AAV<lambda_1>@?1???$_Write_integral@DV?$back_insert_iterator@V?$_Fmt_buffer@D@std@@@std@@_J@2@YA?AV12@V12@_JU32@V_Lazy_locale@2@@Z@@std@@YA?AV?$back_insert_iterator@V?$_Fmt_buffer@D@std@@@0@V10@HABU?$_Basic_format_specs@D@0@W4_Fmt_align@0@AAV<lambda_1>@?1???$_Write_integral@DV?$back_insert_iterator@V?$_Fmt_buffer@D@std@@@std@@_J@0@YA?AV10@0_JU20@V_Lazy_locale@0@@Z@@Z 100a9870 f i shots.obj
 0001:000a89c0       ??E?$_Grapheme_break_property_iterator@D@std@@QAEAAV01@XZ 100a99c0 f i shots.obj
 0001:000a8b30       ??$_Get_dynamic_specs@V_Width_checker@std@@V?$basic_format_arg@V?$basic_format_context@V?$back_insert_iterator@V?$_Fmt_buffer@D@std@@@std@@D@std@@@2@@std@@YAHV?$basic_format_arg@V?$basic_format_context@V?$back_insert_iterator@V?$_Fmt_buffer@D@std@@@std@@D@std@@@0@@Z 100a9b30 f i shots.obj
 0001:000a8c20       ?_Get_property_for_codepoint@?$_Unicode_property_data@W4_Extended_Pictographic_property_values@std@@$0EO@$00@std@@QBE?AW4_Extended_Pictographic_property_values@2@I@Z 100a9c20 f i shots.obj
 0001:000a8c90       ?_Get_property_for_codepoint@?$_Unicode_property_data@W4_Grapheme_Break_property_values@std@@$0FFL@$0A@@std@@QBE?AW4_Grapheme_Break_property_values@2@I@Z 100a9c90 f i shots.obj
 0001:000a8d00       ??$?RUmonostate@std@@@_Width_checker@std@@SA_KUmonostate@1@@Z 100a9d00 f i shots.obj
 0001:000a8d10       ??$?RD@_Width_checker@std@@SA_KD@Z 100a9d10 f i shots.obj
 0001:000a8d10       ??$?RM@_Width_checker@std@@SA_KM@Z 100a9d10 f i shots.obj
 0001:000a8d10       ??$?RN@_Width_checker@std@@SA_KN@Z 100a9d10 f i shots.obj
 0001:000a8d10       ??$?RO@_Width_checker@std@@SA_KO@Z 100a9d10 f i shots.obj
 0001:000a8d10       ??$?RPBD@_Width_checker@std@@SA_KQBD@Z 100a9d10 f i shots.obj
 0001:000a8d10       ??$?RPBX@_Width_checker@std@@SA_KQBX@Z 100a9d10 f i shots.obj
 0001:000a8d10       ??$?RV?$basic_string_view@DU?$char_traits@D@std@@@std@@@_Width_checker@std@@SA_KV?$basic_string_view@DU?$char_traits@D@std@@@1@@Z 100a9d10 f i shots.obj
 0001:000a8d10       ??$?RVhandle@?$basic_format_arg@V?$basic_format_context@V?$back_insert_iterator@V?$_Fmt_buffer@D@std@@@std@@D@std@@@std@@@_Width_checker@std@@SA_KVhandle@?$basic_format_arg@V?$basic_format_context@V?$back_insert_iterator@V?$_Fmt_buffer@D@std@@@std@@D@std@@@1@@Z 100a9d10 f i shots.obj
 0001:000a8d10       ??$?R_N@_Width_checker@std@@SA_K_N@Z 100a9d10 f i shots.obj
 0001:000a8d20       ??$_Get_dynamic_specs@V_Precision_checker@std@@V?$basic_format_arg@V?$basic_format_context@V?$back_insert_iterator@V?$_Fmt_buffer@D@std@@@std@@D@std@@@2@@std@@YAHV?$basic_format_arg@V?$basic_format_context@V?$back_insert_iterator@V?$_Fmt_buffer@D@std@@@std@@D@std@@@0@@Z 100a9d20 f i shots.obj
 0001:000a8e10       ??$?RUmonostate@std@@@_Precision_checker@std@@SA_KUmonostate@1@@Z 100a9e10 f i shots.obj
 0001:000a8e20       ??$?RD@_Precision_checker@std@@SA_KD@Z 100a9e20 f i shots.obj
 0001:000a8e20       ??$?RM@_Precision_checker@std@@SA_KM@Z 100a9e20 f i shots.obj
 0001:000a8e20       ??$?RN@_Precision_checker@std@@SA_KN@Z 100a9e20 f i shots.obj
 0001:000a8e20       ??$?RO@_Precision_checker@std@@SA_KO@Z 100a9e20 f i shots.obj
 0001:000a8e20       ??$?RPBD@_Precision_checker@std@@SA_KQBD@Z 100a9e20 f i shots.obj
 0001:000a8e20       ??$?RPBX@_Precision_checker@std@@SA_KQBX@Z 100a9e20 f i shots.obj
 0001:000a8e20       ??$?RV?$basic_string_view@DU?$char_traits@D@std@@@std@@@_Precision_checker@std@@SA_KV?$basic_string_view@DU?$char_traits@D@std@@@1@@Z 100a9e20 f i shots.obj
 0001:000a8e20       ??$?RVhandle@?$basic_format_arg@V?$basic_format_context@V?$back_insert_iterator@V?$_Fmt_buffer@D@std@@@std@@D@std@@@std@@@_Precision_checker@std@@SA_KVhandle@?$basic_format_arg@V?$basic_format_context@V?$back_insert_iterator@V?$_Fmt_buffer@D@std@@@std@@D@std@@@1@@Z 100a9e20 f i shots.obj
 0001:000a8e20       ??$?R_N@_Precision_checker@std@@SA_K_N@Z 100a9e20 f i shots.obj
 0001:000a8e30       ?init@c_skins@hacks@nem@@QAEXXZ 100a9e30 f   skins.obj
 0001:000a9810       ?correct_sequence@c_skins@hacks@nem@@QBEHW4e_item_index@valve@3@H@Z 100aa810 f   skins.obj
 0001:000a9a80       ?set_paint_kit@c_skins@hacks@nem@@AAE_NQAVc_weapon@valve@3@_N@Z 100aaa80 f   skins.obj
 0001:000ab2b0       ?on_frame_stage@c_skins@hacks@nem@@QAEXW4e_frame_stage@valve@3@@Z 100ac2b0 f   skins.obj
 0001:000abf00       ??0?$basic_string_view@_WU?$char_traits@_W@std@@@std@@QAE@QB_W@Z 100acf00 f i skins.obj
 0001:000abf40       ??0?$basic_ifstream@DU?$char_traits@D@std@@@std@@QAE@PBDHH@Z 100acf40 f i skins.obj
 0001:000ac110       ??$_Construct_from_iter@V?$istreambuf_iterator@DU?$char_traits@D@std@@@std@@V12@$$T@?$basic_string@DU?$char_traits@D@std@@V?$allocator@D@2@@std@@AAEXV?$istreambuf_iterator@DU?$char_traits@D@std@@@1@V21@$$T@Z 100ad110 f i skins.obj
 0001:000ac350       ?insert@?$basic_string@DU?$char_traits@D@std@@V?$allocator@D@2@@std@@QAEAAV12@IID@Z 100ad350 f i skins.obj
 0001:000ac490       ??$_Emplace_reallocate@AAHV?$basic_string@DU?$char_traits@D@std@@V?$allocator@D@2@@std@@@?$vector@Upaint_kit_t@c_skins@hacks@nem@@V?$allocator@Upaint_kit_t@c_skins@hacks@nem@@@std@@@std@@AAEPAUpaint_kit_t@c_skins@hacks@nem@@QAU2345@AAH$$QAV?$basic_string@DU?$char_traits@D@std@@V?$allocator@D@2@@1@@Z 100ad490 f i skins.obj
 0001:000ac6c0       ??1?$_Tidy_deallocate_guard@V?$basic_string@DU?$char_traits@D@std@@V?$allocator@D@2@@std@@@std@@QAE@XZ 100ad6c0 f i skins.obj
 0001:000ac6d0       ??$_Uninitialized_move@PAUpaint_kit_t@c_skins@hacks@nem@@V?$allocator@Upaint_kit_t@c_skins@hacks@nem@@@std@@@std@@YAPAUpaint_kit_t@c_skins@hacks@nem@@QAU1234@0PAU1234@AAV?$allocator@Upaint_kit_t@c_skins@hacks@nem@@@0@@Z 100ad6d0 f i skins.obj
 0001:000ac750       ??1_Reallocation_guard@?$vector@Upaint_kit_t@c_skins@hacks@nem@@V?$allocator@Upaint_kit_t@c_skins@hacks@nem@@@std@@@std@@QAE@XZ 100ad750 f i skins.obj
 0001:000ac7c0       __vscprintf_l              100ad7c0 f i visuals.obj
 0001:000ac800       _sprintf_s                 100ad800 f i visuals.obj
 0001:000ac820       __scprintf                 100ad820 f i visuals.obj
 0001:000ac840       ?lerp@std@@YAMMMM@Z        100ad840 f i visuals.obj
 0001:000aca00       ??1protected_function_result@sol@@QAE@XZ 100ada00 f i visuals.obj
 0001:000aca90       ?set_float@cvar_t@valve@nem@@QAEXM@Z 100ada90 f i visuals.obj
 0001:000acab0       ?set_str@cvar_t@valve@nem@@QAEXPBD@Z 100adab0 f i visuals.obj
 0001:000acac0       ??0s_shape@hacks@nem@@QAE@_NMW4e_shape_type@12@Ucol_t@@@Z 100adac0 f i visuals.obj
 0001:000acbd0       ?predict@grenade_simulation_t@c_visuals@hacks@nem@@QAEXABUImVec3@@0MH@Z 100adbd0 f   visuals.obj
 0001:000ace10       ?physics_simulate@grenade_simulation_t@c_visuals@hacks@nem@@QAE_NXZ 100ade10 f   visuals.obj
 0001:000ad1f0       ?physics_trace_entity@grenade_simulation_t@c_visuals@hacks@nem@@QAEXABUImVec3@@0W4e_mask@valve@4@AAUtrace_t@74@@Z 100ae1f0 f   visuals.obj
 0001:000ad590       ?physics_push_entity@grenade_simulation_t@c_visuals@hacks@nem@@QAEXABUImVec3@@AAUtrace_t@valve@4@@Z 100ae590 f   visuals.obj
 0001:000ad7f0       ?perform_fly_collision_resolution@grenade_simulation_t@c_visuals@hacks@nem@@QAEXAAUtrace_t@valve@4@@Z 100ae7f0 f   visuals.obj
 0001:000adc60       ?think@grenade_simulation_t@c_visuals@hacks@nem@@QAEXXZ 100aec60 f   visuals.obj
 0001:000adda0       ?add_grenade_simulation@c_visuals@hacks@nem@@QBE_NABUgrenade_simulation_t@123@_N@Z 100aeda0 f   visuals.obj
 0001:000aebd0       ?calc_bbox@c_visuals@hacks@nem@@ABE_NQAVc_player@valve@3@AAUbbox_t@123@@Z 100afbd0 f   visuals.obj
 0001:000af060       ?try_to_lerp_bones@c_visuals@hacks@nem@@ABE?AV?$optional@V?$array@Umat3x4_t@@$0IA@@std@@@std@@H@Z 100b0060 f   visuals.obj
 0001:000af740       ?create_material@c_visuals@hacks@nem@@ABEPAUmaterial_t@valve@3@V?$basic_string_view@DU?$char_traits@D@std@@@std@@00@Z 100b0740 f   visuals.obj
 0001:000af7d0       ?override_material@c_visuals@hacks@nem@@ABEXH_NMMMM@Z 100b07d0 f   visuals.obj
 0001:000afac0       ?bloom_modulation@c_visuals@hacks@nem@@QAEXPAVc_entity@valve@3@@Z 100b0ac0 f   visuals.obj
 0001:000b0200       ?handle_player@c_visuals@hacks@nem@@ABEXQAVc_player@valve@3@@Z 100b1200 f   visuals.obj
 0001:000b0950       ?molly@hacks@nem@@YAXPAVc_entity@valve@2@@Z 100b1950 f   visuals.obj
 0001:000b0c30       ?handle_projectile@c_visuals@hacks@nem@@QAEXQAVc_entity@valve@3@W4e_class_id@53@@Z 100b1c30 f   visuals.obj
 0001:000b1a10       ?third_person@c_visuals@hacks@nem@@AAEXXZ 100b2a10 f   visuals.obj
 0001:000b2330       ?draw_auto_peek@c_visuals@hacks@nem@@QAEXXZ 100b3330 f   visuals.obj
 0001:000b34b0       ?change_sky_box@c_visuals@hacks@nem@@QAEXXZ 100b44b0 f   visuals.obj
 0001:000b3cc0       ?handle_weapon@c_visuals@hacks@nem@@QBEXQAVc_weapon@valve@3@@Z 100b4cc0 f   visuals.obj
 0001:000b5210       ?on_paint@c_visuals@hacks@nem@@QAEXXZ 100b6210 f   visuals.obj
 0001:000b54f0       ?draw_c4_status@c_visuals@hacks@nem@@QAEX_N@Z 100b64f0 f   visuals.obj
 0001:000b6310       ?draw_spectators@c_visuals@hacks@nem@@QAEX_N@Z 100b7310 f   visuals.obj
 0001:000b6f10       ?draw_key_binds@c_visuals@hacks@nem@@QAEX_N@Z 100b7f10 f   visuals.obj
 0001:000b76e0       ?draw_watermark@c_visuals@hacks@nem@@QAEXXZ 100b86e0 f   visuals.obj
 0001:000b7f00       ?motion_blur@c_visuals@hacks@nem@@QAEXPAUview_setup_t@valve@3@@Z 100b8f00 f   visuals.obj
 0001:000b86e0       ?on_render_start@c_visuals@hacks@nem@@QAEXXZ 100b96e0 f   visuals.obj
 0001:000b9bf0       ?on_create_move@c_visuals@hacks@nem@@QAEXABUuser_cmd_t@valve@3@@Z 100babf0 f   visuals.obj
 0001:000ba830       ?on_override_view@c_visuals@hacks@nem@@QAEXQAUview_setup_t@valve@3@@Z 100bb830 f   visuals.obj
 0001:000bb020       ??4s_shape@hacks@nem@@QAEAAU012@$$QAU012@@Z 100bc020 f i visuals.obj
 0001:000bb0f0       ?render@c_cached_renderer@hacks@nem@@QAEXXZ 100bc0f0 f   visuals.obj
 0001:000bb880       ?on_post_screen_effects@c_visuals@hacks@nem@@QAEXXZ 100bc880 f   visuals.obj
 0001:000bbbb0       ?on_draw_model@c_visuals@hacks@nem@@QBE_NQAUstudio_render_t@valve@3@IIABUdraw_model_info_t@53@QAUmat3x4_t@@QAM3ABUImVec3@@H@Z 100bcbb0 f   visuals.obj
 0001:000bcb70       ?on_calc_view@c_visuals@hacks@nem@@QAEXQAVc_player@valve@3@IAAUImVec3@@1AAM22@Z 100bdb70 f   visuals.obj
 0001:000bd400       ?add_shot_mdl@c_visuals@hacks@nem@@QAEXQAVc_player@valve@3@ABV?$shared_ptr@Ulag_record_t@hacks@nem@@@std@@@Z 100be400 f   visuals.obj
 0001:000bd9c0       ?start@c_dormant_esp@hacks@nem@@QAEXXZ 100be9c0 f   visuals.obj
 0001:000bdfd0       ?setup_adjust@c_dormant_esp@hacks@nem@@QAEXPAVc_player@valve@3@AAUsnd_info_t@53@@Z 100befd0 f   visuals.obj
 0001:000be380       ?adjust_sound@c_dormant_esp@hacks@nem@@QAE_NPAVc_player@valve@3@@Z 100bf380 f   visuals.obj
 0001:000be660       ?draw_data@c_player_esp@hacks@nem@@QAEXXZ 100bf660 f   visuals.obj
 0001:000bf3f0       ?draw_box@c_player_esp@hacks@nem@@IAEXPAVc_player@valve@3@AAUtagRECT@@@Z 100c03f0 f   visuals.obj
 0001:000bf650       ?draw_avatar@c_player_esp@hacks@nem@@IAEXPAVc_player@valve@3@AAUtagRECT@@@Z 100c0650 f   visuals.obj
 0001:000bf850       ?oof_indicate@c_player_esp@hacks@nem@@IAEXPAVc_player@valve@3@@Z 100c0850 f   visuals.obj
 0001:000bff20       ?draw_skeletons@c_player_esp@hacks@nem@@IAEXPAVc_player@valve@3@AAUtagRECT@@@Z 100c0f20 f   visuals.obj
 0001:000c0300       ?draw_ammo@c_player_esp@hacks@nem@@IAEXPAVc_player@valve@3@AAUtagRECT@@@Z 100c1300 f   visuals.obj
 0001:000c1090       ?draw_name@c_player_esp@hacks@nem@@IAEXPAVc_player@valve@3@AAUtagRECT@@@Z 100c2090 f   visuals.obj
 0001:000c13b0       ?draw_flags@c_player_esp@hacks@nem@@IAEXPAVc_player@valve@3@AAUtagRECT@@@Z 100c23b0 f   visuals.obj
 0001:000c2990       ?draw_weapon@c_player_esp@hacks@nem@@IAEXPAVc_player@valve@3@AAUtagRECT@@@Z 100c3990 f   visuals.obj
 0001:000c3d50       ?draw_health@c_player_esp@hacks@nem@@IAEXPAVc_player@valve@3@AAUtagRECT@@@Z 100c4d50 f   visuals.obj
 0001:000c4510       ?get_bbox@c_player_esp@hacks@nem@@IAE?AUtagRECT@@PAVc_entity@valve@3@@Z 100c5510 f   visuals.obj
 0001:000c54c0       ?handle_dmg_render@c_hit_marker@hacks@nem@@QAEXAAUhit_marker_data_t@123@ABUImVec3@@@Z 100c64c0 f   visuals.obj
 0001:000c5810       ?handle_draw@c_hit_marker@hacks@nem@@QAEXXZ 100c6810 f   visuals.obj
 0001:000c58f0       ?world_to_screen@render@@YA_NABUImVec3@@AAU2@@Z 100c68f0 f   visuals.obj
 0001:000c5a70       ?text@render@@YAXV?$basic_string_view@DU?$char_traits@D@std@@@std@@UImVec2@@ABUcol_t@@PAUImFont@@U?$bit_flag_t@E@@@Z 100c6a70 f   visuals.obj
 0001:000c5d30       ?draw_line@render@@YAXMMMMUcol_t@@M@Z 100c6d30 f   visuals.obj
 0001:000c5da0       ?rect@render@@YAXABUImVec2@@0ABUcol_t@@M_N@Z 100c6da0 f   visuals.obj
 0001:000c5ec0       ?rect_filled@render@@YAXABUImVec2@@0ABUcol_t@@M_N@Z 100c6ec0 f   visuals.obj
 0001:000c5f60       ?draw_rect_filled@render@@YAXMMMMUcol_t@@MH@Z 100c6f60 f   visuals.obj
 0001:000c5fe0       ?draw_rect@render@@YAXMMMMUcol_t@@@Z 100c6fe0 f   visuals.obj
 0001:000c60d0       ??4ImDrawList@@QAEAAU0@ABU0@@Z 100c70d0 f i visuals.obj
 0001:000c6340       ?render_3d_circle@render@@YAXABUImVec3@@MUcol_t@@@Z 100c7340 f   visuals.obj
 0001:000c6560       ?handle_drawings@render@@YAXXZ 100c7560 f   visuals.obj
 0001:000c6f60       ??$format@H@std@@YA?AV?$basic_string@DU?$char_traits@D@std@@V?$allocator@D@2@@0@U?$basic_format_string@DH@0@$$QAH@Z 100c7f60 f i visuals.obj
 0001:000c6ff0       ??$emplace@ABUpiecewise_construct_t@std@@V?$tuple@ABW4e_ent_handle@valve@nem@@@2@V?$tuple@$$QAPAVc_player@valve@nem@@$$QAW4e_item_index@23@AAUImVec3@@AAU5@AAM$$QAH@2@@?$_Hash@V?$_Umap_traits@W4e_ent_handle@valve@nem@@Ugrenade_simulation_t@c_visuals@hacks@3@V?$_Uhash_compare@W4e_ent_handle@valve@nem@@U?$hash@W4e_ent_handle@valve@nem@@@std@@U?$equal_to@W4e_ent_handle@valve@nem@@@5@@std@@V?$allocator@U?$pair@$$CBW4e_ent_handle@valve@nem@@Ugrenade_simulation_t@c_visuals@hacks@3@@std@@@8@$0A@@std@@@std@@QAE?AU?$pair@V?$_List_iterator@V?$_List_val@U?$_List_simple_types@U?$pair@$$CBW4e_ent_handle@valve@nem@@Ugrenade_simulation_t@c_visuals@hacks@3@@std@@@std@@@std@@@std@@_N@1@ABUpiecewise_construct_t@1@$$QAV?$tuple@ABW4e_ent_handle@valve@nem@@@1@$$QAV?$tuple@$$QAPAVc_player@valve@nem@@$$QAW4e_item_index@23@AAUImVec3@@AAU5@AAM$$QAH@1@@Z 100c7ff0 f i visuals.obj
 0001:000c7310       ??$transform@V?$_String_iterator@V?$_String_val@U?$_Simple_types@D@std@@@std@@@std@@V12@P6AHH@Z@std@@YA?AV?$_String_iterator@V?$_String_val@U?$_Simple_types@D@std@@@std@@@0@V10@0V10@P6AHH@Z@Z 100c8310 f i visuals.obj
 0001:000c7360       ??$?6U?$char_traits@D@std@@@std@@YAAAV?$basic_ostream@DU?$char_traits@D@std@@@0@AAV10@PBD@Z 100c8360 f i visuals.obj
 0001:000c7540       ??1?$vector@Uflags_data_t@c_player_esp@hacks@nem@@V?$allocator@Uflags_data_t@c_player_esp@hacks@nem@@@std@@@std@@QAE@XZ 100c8540 f i visuals.obj
 0001:000c75c0       ?clear@?$_Hash@V?$_Umap_traits@W4e_ent_handle@valve@nem@@Ugrenade_simulation_t@c_visuals@hacks@3@V?$_Uhash_compare@W4e_ent_handle@valve@nem@@U?$hash@W4e_ent_handle@valve@nem@@@std@@U?$equal_to@W4e_ent_handle@valve@nem@@@5@@std@@V?$allocator@U?$pair@$$CBW4e_ent_handle@valve@nem@@Ugrenade_simulation_t@c_visuals@hacks@3@@std@@@8@$0A@@std@@@std@@QAEXXZ 100c85c0 f i visuals.obj
 0001:000c7630       ?erase@?$_Hash@V?$_Umap_traits@W4e_ent_handle@valve@nem@@Ugrenade_simulation_t@c_visuals@hacks@3@V?$_Uhash_compare@W4e_ent_handle@valve@nem@@U?$hash@W4e_ent_handle@valve@nem@@@std@@U?$equal_to@W4e_ent_handle@valve@nem@@@5@@std@@V?$allocator@U?$pair@$$CBW4e_ent_handle@valve@nem@@Ugrenade_simulation_t@c_visuals@hacks@3@@std@@@8@$0A@@std@@@std@@QAEIABW4e_ent_handle@valve@nem@@@Z 100c8630 f i visuals.obj
 0001:000c7700       ??1?$vector@UImVec2@@V?$allocator@UImVec2@@@std@@@std@@QAE@XZ 100c8700 f i visuals.obj
 0001:000c7760       ??A?$unordered_map@V?$basic_string@DU?$char_traits@D@std@@V?$allocator@D@2@@std@@V?$deque@Ucallback_t@c_lua@nem@@V?$allocator@Ucallback_t@c_lua@nem@@@std@@@2@U?$hash@V?$basic_string@DU?$char_traits@D@std@@V?$allocator@D@2@@std@@@2@U?$equal_to@V?$basic_string@DU?$char_traits@D@std@@V?$allocator@D@2@@std@@@2@V?$allocator@U?$pair@$$CBV?$basic_string@DU?$char_traits@D@std@@V?$allocator@D@2@@std@@V?$deque@Ucallback_t@c_lua@nem@@V?$allocator@Ucallback_t@c_lua@nem@@@std@@@2@@std@@@2@@std@@QAEAAV?$deque@Ucallback_t@c_lua@nem@@V?$allocator@Ucallback_t@c_lua@nem@@@std@@@1@$$QAV?$basic_string@DU?$char_traits@D@std@@V?$allocator@D@2@@1@@Z 100c8760 f i visuals.obj
 0001:000c7780       ?_Unchecked_end@?$deque@Ucallback_t@c_lua@nem@@V?$allocator@Ucallback_t@c_lua@nem@@@std@@@std@@QBE?AV?$_Deque_unchecked_const_iterator@V?$_Deque_val@U?$_Deque_simple_types@Ucallback_t@c_lua@nem@@@std@@@std@@@2@XZ 100c8780 f i visuals.obj
 0001:000c77a0       ?size@?$vector@UC_BindComboItemProperty@@V?$allocator@UC_BindComboItemProperty@@@std@@@std@@QBEIXZ 100c87a0 f i Animations.obj
 0001:000c77a0       ?size@?$vector@V?$basic_string@DU?$char_traits@D@std@@V?$allocator@D@2@@std@@V?$allocator@V?$basic_string@DU?$char_traits@D@std@@V?$allocator@D@2@@std@@@2@@std@@QBEIXZ 100c87a0 f i visuals.obj
 0001:000c77c0       ??$_Find_last@W4e_ent_handle@valve@nem@@@?$_Hash@V?$_Umap_traits@W4e_ent_handle@valve@nem@@Ugrenade_simulation_t@c_visuals@hacks@3@V?$_Uhash_compare@W4e_ent_handle@valve@nem@@U?$hash@W4e_ent_handle@valve@nem@@@std@@U?$equal_to@W4e_ent_handle@valve@nem@@@5@@std@@V?$allocator@U?$pair@$$CBW4e_ent_handle@valve@nem@@Ugrenade_simulation_t@c_visuals@hacks@3@@std@@@8@$0A@@std@@@std@@IBE?AU?$_Hash_find_last_result@PAU?$_List_node@U?$pair@$$CBW4e_ent_handle@valve@nem@@Ugrenade_simulation_t@c_visuals@hacks@3@@std@@PAX@std@@@1@ABW4e_ent_handle@valve@nem@@I@Z 100c87c0 f i visuals.obj
 0001:000c7830       ??$_Emplace_one_at_back@V?$basic_string@DU?$char_traits@D@std@@V?$allocator@D@2@@std@@@?$vector@V?$basic_string@DU?$char_traits@D@std@@V?$allocator@D@2@@std@@V?$allocator@V?$basic_string@DU?$char_traits@D@std@@V?$allocator@D@2@@std@@@2@@std@@AAEAAV?$basic_string@DU?$char_traits@D@std@@V?$allocator@D@2@@1@$$QAV21@@Z 100c8830 f i visuals.obj
 0001:000c78a0       ??$_Try_emplace@ABV?$basic_string@DU?$char_traits@D@std@@V?$allocator@D@2@@std@@$$V@?$map@V?$basic_string@DU?$char_traits@D@std@@V?$allocator@D@2@@std@@Ubinds_data_t@c_visuals@hacks@nem@@U?$less@V?$basic_string@DU?$char_traits@D@std@@V?$allocator@D@2@@std@@@2@V?$allocator@U?$pair@$$CBV?$basic_string@DU?$char_traits@D@std@@V?$allocator@D@2@@std@@Ubinds_data_t@c_visuals@hacks@nem@@@std@@@2@@std@@AAE?AU?$pair@PAU?$_Tree_node@U?$pair@$$CBV?$basic_string@DU?$char_traits@D@std@@V?$allocator@D@2@@std@@Ubinds_data_t@c_visuals@hacks@nem@@@std@@PAX@std@@_N@1@ABV?$basic_string@DU?$char_traits@D@std@@V?$allocator@D@2@@1@@Z 100c88a0 f i visuals.obj
 0001:000c7a70       ??$_Try_emplace@V?$basic_string@DU?$char_traits@D@std@@V?$allocator@D@2@@std@@$$V@?$_Hash@V?$_Umap_traits@V?$basic_string@DU?$char_traits@D@std@@V?$allocator@D@2@@std@@V?$deque@Ucallback_t@c_lua@nem@@V?$allocator@Ucallback_t@c_lua@nem@@@std@@@2@V?$_Uhash_compare@V?$basic_string@DU?$char_traits@D@std@@V?$allocator@D@2@@std@@U?$hash@V?$basic_string@DU?$char_traits@D@std@@V?$allocator@D@2@@std@@@2@U?$equal_to@V?$basic_string@DU?$char_traits@D@std@@V?$allocator@D@2@@std@@@2@@2@V?$allocator@U?$pair@$$CBV?$basic_string@DU?$char_traits@D@std@@V?$allocator@D@2@@std@@V?$deque@Ucallback_t@c_lua@nem@@V?$allocator@Ucallback_t@c_lua@nem@@@std@@@2@@std@@@2@$0A@@std@@@std@@IAE?AU?$pair@PAU?$_List_node@U?$pair@$$CBV?$basic_string@DU?$char_traits@D@std@@V?$allocator@D@2@@std@@V?$deque@Ucallback_t@c_lua@nem@@V?$allocator@Ucallback_t@c_lua@nem@@@std@@@2@@std@@PAX@std@@_N@1@$$QAV?$basic_string@DU?$char_traits@D@std@@V?$allocator@D@2@@1@@Z 100c8a70 f i visuals.obj
 0001:000c7cc0       ??1?$_List_node_emplace_op2@V?$allocator@U?$_List_node@U?$pair@$$CBW4e_ent_handle@valve@nem@@Ugrenade_simulation_t@c_visuals@hacks@3@@std@@PAX@std@@@std@@@std@@QAE@XZ 100c8cc0 f i visuals.obj
 0001:000c7cf0       ??1?$protected_handler@$00V?$basic_reference@$0A@@sol@@@detail@sol@@QAE@XZ 100c8cf0 f i visuals.obj
 0001:000c7cf0       ??1?$protected_handler@$0A@V?$basic_reference@$0A@@sol@@@detail@sol@@QAE@XZ 100c8cf0 f i visuals.obj
 0001:000c7d10       ?erase@?$deque@Uhit_marker_data_t@c_hit_marker@hacks@nem@@V?$allocator@Uhit_marker_data_t@c_hit_marker@hacks@nem@@@std@@@std@@QAE?AV?$_Deque_iterator@V?$_Deque_val@U?$_Deque_simple_types@Uhit_marker_data_t@c_hit_marker@hacks@nem@@@std@@@std@@@2@V?$_Deque_const_iterator@V?$_Deque_val@U?$_Deque_simple_types@Uhit_marker_data_t@c_hit_marker@hacks@nem@@@std@@@std@@@2@0@Z 100c8d10 f i visuals.obj
 0001:000c7f30       ?erase@?$deque@Ubullet_trace_t@c_visuals@hacks@nem@@V?$allocator@Ubullet_trace_t@c_visuals@hacks@nem@@@std@@@std@@QAE?AV?$_Deque_iterator@V?$_Deque_val@U?$_Deque_simple_types@Ubullet_trace_t@c_visuals@hacks@nem@@@std@@@std@@@2@V?$_Deque_const_iterator@V?$_Deque_val@U?$_Deque_simple_types@Ubullet_trace_t@c_visuals@hacks@nem@@@std@@@std@@@2@0@Z 100c8f30 f i visuals.obj
 0001:000c80e0       ?_Unchecked_erase@?$_Hash@V?$_Umap_traits@W4e_ent_handle@valve@nem@@Ugrenade_simulation_t@c_visuals@hacks@3@V?$_Uhash_compare@W4e_ent_handle@valve@nem@@U?$hash@W4e_ent_handle@valve@nem@@@std@@U?$equal_to@W4e_ent_handle@valve@nem@@@5@@std@@V?$allocator@U?$pair@$$CBW4e_ent_handle@valve@nem@@Ugrenade_simulation_t@c_visuals@hacks@3@@std@@@8@$0A@@std@@@std@@AAEPAU?$_List_node@U?$pair@$$CBW4e_ent_handle@valve@nem@@Ugrenade_simulation_t@c_visuals@hacks@3@@std@@PAX@2@PAU32@QAU32@@Z 100c90e0 f i visuals.obj
 0001:000c82a0       ??$_Emplace_reallocate@AAPAVc_entity@valve@nem@@@?$vector@PAVc_entity@valve@nem@@V?$allocator@PAVc_entity@valve@nem@@@std@@@std@@AAEPAPAVc_entity@valve@nem@@QAPAV234@AAPAV234@@Z 100c92a0 f i visuals.obj
 0001:000c8420       ??$_Emplace_reallocate@AAUImVec3@@AB_N@?$vector@U?$pair@UImVec3@@_N@std@@V?$allocator@U?$pair@UImVec3@@_N@std@@@2@@std@@AAEPAU?$pair@UImVec3@@_N@1@QAU21@AAUImVec3@@AB_N@Z 100c9420 f i visuals.obj
 0001:000c85a0       ??$_Emplace_reallocate@V?$basic_string@DU?$char_traits@D@std@@V?$allocator@D@2@@std@@@?$vector@V?$basic_string@DU?$char_traits@D@std@@V?$allocator@D@2@@std@@V?$allocator@V?$basic_string@DU?$char_traits@D@std@@V?$allocator@D@2@@std@@@2@@std@@AAEPAV?$basic_string@DU?$char_traits@D@std@@V?$allocator@D@2@@1@QAV21@$$QAV21@@Z 100c95a0 f i visuals.obj
 0001:000c86e0       ??$_Emplace_reallocate@$$V@?$vector@Ushot_mdl_t@c_visuals@hacks@nem@@V?$allocator@Ushot_mdl_t@c_visuals@hacks@nem@@@std@@@std@@AAEPAUshot_mdl_t@c_visuals@hacks@nem@@QAU2345@@Z 100c96e0 f i visuals.obj
 0001:000c88a0       ??$_Emplace_reallocate@Uflags_data_t@c_player_esp@hacks@nem@@@?$vector@Uflags_data_t@c_player_esp@hacks@nem@@V?$allocator@Uflags_data_t@c_player_esp@hacks@nem@@@std@@@std@@AAEPAUflags_data_t@c_player_esp@hacks@nem@@QAU2345@$$QAU2345@@Z 100c98a0 f i visuals.obj
 0001:000c8a50       ??$_Emplace_reallocate@ABUImVec3@@@?$vector@UImVec3@@V?$allocator@UImVec3@@@std@@@std@@AAEPAUImVec3@@QAU2@ABU2@@Z 100c9a50 f i visuals.obj
 0001:000c8bc0       ??$_Emplace_reallocate@UImVec2@@@?$vector@UImVec2@@V?$allocator@UImVec2@@@std@@@std@@AAEPAUImVec2@@QAU2@$$QAU2@@Z 100c9bc0 f i visuals.obj
 0001:000c8d30       ??1?$_List_node_emplace_op2@V?$allocator@U?$_List_node@U?$pair@$$CBV?$basic_string@DU?$char_traits@D@std@@V?$allocator@D@2@@std@@V?$deque@Ucallback_t@c_lua@nem@@V?$allocator@Ucallback_t@c_lua@nem@@@std@@@2@@std@@PAX@std@@@std@@@std@@QAE@XZ 100c9d30 f i visuals.obj
 0001:000c8d80       ??1?$_Alloc_construct_ptr@V?$allocator@U?$_List_node@U?$pair@$$CBW4e_ent_handle@valve@nem@@Ugrenade_simulation_t@c_visuals@hacks@3@@std@@PAX@std@@@std@@@std@@QAE@XZ 100c9d80 f i visuals.obj
 0001:000c8da0       ?_Growmap@?$deque@Uhit_marker_data_t@c_hit_marker@hacks@nem@@V?$allocator@Uhit_marker_data_t@c_hit_marker@hacks@nem@@@std@@@std@@AAEXI@Z 100c9da0 f i visuals.obj
 0001:000c8f60       ?_Forced_rehash@?$_Hash@V?$_Umap_traits@W4e_ent_handle@valve@nem@@Ugrenade_simulation_t@c_visuals@hacks@3@V?$_Uhash_compare@W4e_ent_handle@valve@nem@@U?$hash@W4e_ent_handle@valve@nem@@@std@@U?$equal_to@W4e_ent_handle@valve@nem@@@5@@std@@V?$allocator@U?$pair@$$CBW4e_ent_handle@valve@nem@@Ugrenade_simulation_t@c_visuals@hacks@3@@std@@@8@$0A@@std@@@std@@IAEXI@Z 100c9f60 f i visuals.obj
 0001:000c90d0       ??1?$_Alloc_construct_ptr@V?$allocator@U?$_Tree_node@U?$pair@$$CBV?$basic_string@DU?$char_traits@D@std@@V?$allocator@D@2@@std@@Ubinds_data_t@c_visuals@hacks@nem@@@std@@PAX@std@@@std@@@std@@QAE@XZ 100ca0d0 f i visuals.obj
 0001:000c90d0       ??1?$_Tree_temp_node_alloc@V?$allocator@U?$_Tree_node@U?$pair@$$CBV?$basic_string@DU?$char_traits@D@std@@V?$allocator@D@2@@std@@Ubinds_data_t@c_visuals@hacks@nem@@@std@@PAX@std@@@std@@@std@@QAE@XZ 100ca0d0 f i visuals.obj
 0001:000c90f0       ??$_Uninitialized_move@PAV?$basic_string@DU?$char_traits@D@std@@V?$allocator@D@2@@std@@V?$allocator@V?$basic_string@DU?$char_traits@D@std@@V?$allocator@D@2@@std@@@2@@std@@YAPAV?$basic_string@DU?$char_traits@D@std@@V?$allocator@D@2@@0@QAV10@0PAV10@AAV?$allocator@V?$basic_string@DU?$char_traits@D@std@@V?$allocator@D@2@@std@@@0@@Z 100ca0f0 f i visuals.obj
 0001:000c9150       ??$construct@Ushot_mdl_t@c_visuals@hacks@nem@@$$V@?$_Default_allocator_traits@V?$allocator@Ushot_mdl_t@c_visuals@hacks@nem@@@std@@@std@@SAXAAV?$allocator@Ushot_mdl_t@c_visuals@hacks@nem@@@1@QAUshot_mdl_t@c_visuals@hacks@nem@@@Z 100ca150 f i visuals.obj
 0001:000c9270       ??$_Uninitialized_move@PAUflags_data_t@c_player_esp@hacks@nem@@V?$allocator@Uflags_data_t@c_player_esp@hacks@nem@@@std@@@std@@YAPAUflags_data_t@c_player_esp@hacks@nem@@QAU1234@0PAU1234@AAV?$allocator@Uflags_data_t@c_player_esp@hacks@nem@@@0@@Z 100ca270 f i visuals.obj
 0001:000c92e0       ??1?$_Alloc_construct_ptr@V?$allocator@U?$_List_node@U?$pair@$$CBV?$basic_string@DU?$char_traits@D@std@@V?$allocator@D@2@@std@@V?$deque@Ucallback_t@c_lua@nem@@V?$allocator@Ucallback_t@c_lua@nem@@@std@@@2@@std@@PAX@std@@@std@@@std@@QAE@XZ 100ca2e0 f i visuals.obj
 0001:000c92e0       ??1?$_Alloc_construct_ptr@V?$allocator@U?$_Tree_node@U?$pair@$$CBIVC_KeybindInfo@@@std@@PAX@std@@@std@@@std@@QAE@XZ 100ca2e0 f i Keybinds.obj
 0001:000c92e0       ??1?$_Tree_temp_node_alloc@V?$allocator@U?$_Tree_node@U?$pair@$$CBIVC_KeybindInfo@@@std@@PAX@std@@@std@@@std@@QAE@XZ 100ca2e0 f i Keybinds.obj
 0001:000c9300       ?_Forced_rehash@?$_Hash@V?$_Umap_traits@V?$basic_string@DU?$char_traits@D@std@@V?$allocator@D@2@@std@@U?$pair@PAUrecv_prop_t@valve@nem@@I@2@V?$_Uhash_compare@V?$basic_string@DU?$char_traits@D@std@@V?$allocator@D@2@@std@@U?$hash@V?$basic_string@DU?$char_traits@D@std@@V?$allocator@D@2@@std@@@2@U?$equal_to@V?$basic_string@DU?$char_traits@D@std@@V?$allocator@D@2@@std@@@2@@2@V?$allocator@U?$pair@$$CBV?$basic_string@DU?$char_traits@D@std@@V?$allocator@D@2@@std@@U?$pair@PAUrecv_prop_t@valve@nem@@I@2@@std@@@2@$0A@@std@@@std@@IAEXI@Z 100ca300 f i net_vars.obj
 0001:000c9300       ?_Forced_rehash@?$_Hash@V?$_Umap_traits@V?$basic_string@DU?$char_traits@D@std@@V?$allocator@D@2@@std@@V?$deque@Ucallback_t@c_lua@nem@@V?$allocator@Ucallback_t@c_lua@nem@@@std@@@2@V?$_Uhash_compare@V?$basic_string@DU?$char_traits@D@std@@V?$allocator@D@2@@std@@U?$hash@V?$basic_string@DU?$char_traits@D@std@@V?$allocator@D@2@@std@@@2@U?$equal_to@V?$basic_string@DU?$char_traits@D@std@@V?$allocator@D@2@@std@@@2@@2@V?$allocator@U?$pair@$$CBV?$basic_string@DU?$char_traits@D@std@@V?$allocator@D@2@@std@@V?$deque@Ucallback_t@c_lua@nem@@V?$allocator@Ucallback_t@c_lua@nem@@@std@@@2@@std@@@2@$0A@@std@@@std@@IAEXI@Z 100ca300 f i visuals.obj
 0001:000c94e0       ??1_Reallocation_guard@?$vector@V?$basic_string@DU?$char_traits@D@std@@V?$allocator@D@2@@std@@V?$allocator@V?$basic_string@DU?$char_traits@D@std@@V?$allocator@D@2@@std@@@2@@std@@QAE@XZ 100ca4e0 f i visuals.obj
 0001:000c9550       ?_Change_array@?$vector@V?$basic_string@DU?$char_traits@D@std@@V?$allocator@D@2@@std@@V?$allocator@V?$basic_string@DU?$char_traits@D@std@@V?$allocator@D@2@@std@@@2@@std@@AAEXQAV?$basic_string@DU?$char_traits@D@std@@V?$allocator@D@2@@2@II@Z 100ca550 f i visuals.obj
 0001:000c95f0       ??0flags_data_t@c_player_esp@hacks@nem@@QAE@$$QAU0123@@Z 100ca5f0 f i visuals.obj
 0001:000c9640       ?length_sqr_2d@ImVec3@@QBEMXZ 100ca640 f i hooks.obj
 0001:000c9670       ?meta_function_names@sol@@YAABV?$array@V?$basic_string@DU?$char_traits@D@std@@V?$allocator@D@2@@std@@$0CF@@std@@XZ 100ca670 f i hooks.obj
 0001:000c9f90       ?ctti_get_type_name_from_sig@detail@sol@@YA?AV?$basic_string@DU?$char_traits@D@std@@V?$allocator@D@2@@std@@V34@@Z 100caf90 f i hooks.obj
 0001:000ca340       ?property_always_true@detail@sol@@YA_NW4meta_function@2@@Z 100cb340 f i hooks.obj
 0001:000ca340       ___acrt_initialize         100cb340 f i MSVCRT:ucrt_stubs.obj
 0001:000ca340       ___acrt_thread_attach      100cb340 f i MSVCRT:ucrt_stubs.obj
 0001:000ca340       ___acrt_thread_detach      100cb340 f i MSVCRT:ucrt_stubs.obj
 0001:000ca340       ___acrt_uninitialize       100cb340 f i MSVCRT:ucrt_stubs.obj
 0001:000ca340       ___acrt_uninitialize_critical 100cb340 f i MSVCRT:ucrt_stubs.obj
 0001:000ca340       ___scrt_stub_for_acrt_initialize 100cb340 f i MSVCRT:ucrt_stubs.obj
 0001:000ca340       ___scrt_stub_for_acrt_thread_attach 100cb340 f i MSVCRT:ucrt_stubs.obj
 0001:000ca340       ___scrt_stub_for_acrt_thread_detach 100cb340 f i MSVCRT:ucrt_stubs.obj
 0001:000ca340       ___scrt_stub_for_acrt_uninitialize 100cb340 f i MSVCRT:ucrt_stubs.obj
 0001:000ca340       ___scrt_stub_for_acrt_uninitialize_critical 100cb340 f i MSVCRT:ucrt_stubs.obj
 0001:000ca340       ___vcrt_initialize         100cb340 f i MSVCRT:ucrt_stubs.obj
 0001:000ca340       ___vcrt_thread_attach      100cb340 f i MSVCRT:ucrt_stubs.obj
 0001:000ca340       ___vcrt_thread_detach      100cb340 f i MSVCRT:ucrt_stubs.obj
 0001:000ca340       ___vcrt_uninitialize       100cb340 f i MSVCRT:ucrt_stubs.obj
 0001:000ca340       ___vcrt_uninitialize_critical 100cb340 f i MSVCRT:ucrt_stubs.obj
 0001:000ca350       ??Rundefined_metatable@stack_detail@stack@sol@@QBEXXZ 100cb350 f i hooks.obj
 0001:000ca3c0       ?impl_check_metatable@stack_detail@stack@sol@@YA_NPAUlua_State@@HABV?$basic_string@DU?$char_traits@D@std@@V?$allocator@D@2@@std@@_N@Z 100cb3c0 f i hooks.obj
 0001:000ca430       ??0aim_last_target_t@hacks@nem@@QAE@ABU012@@Z 100cb430 f i hooks.obj
 0001:000ca4a0       ?wnd_proc@hooks@nem@@YGJQAUHWND__@@IIJ@Z 100cb4a0 f   hooks.obj
 0001:000ca630       ?d3d9_reset@hooks@nem@@YGJQAUIDirect3DDevice9@@QAU_D3DPRESENT_PARAMETERS_@@@Z 100cb630 f   hooks.obj
 0001:000ca660       ?d3d9_present@hooks@nem@@YGJQAUIDirect3DDevice9@@QAUtagRECT@@1QAUHWND__@@QAU_RGNDATA@@@Z 100cb660 f   hooks.obj
 0001:000cac00       ?paint@hooks@nem@@YIXIIH@Z 100cbc00 f   hooks.obj
 0001:000cacc0       ?sv_cheats_get_int@hooks@nem@@YIHQAUcvar_t@valve@2@I@Z 100cbcc0 f   hooks.obj
 0001:000cad10       ?draw_model@hooks@nem@@YIXQAUstudio_render_t@valve@2@IIABUdraw_model_info_t@42@QAUmat3x4_t@@QAM3ABUImVec3@@H@Z 100cbd10 f   hooks.obj
 0001:000cadb0       ?lock_cursor@hooks@nem@@YIXII@Z 100cbdb0 f   hooks.obj
 0001:000cadd0       ?draw_set_clr@hooks@nem@@YIXQAUc_surface@valve@2@IHHHH@Z 100cbdd0 f   hooks.obj
 0001:000caf10       ?create_move_proxy@hooks@nem@@YGXHM_N@Z 100cbf10 f   hooks.obj
 0001:000caf30       ?draw_mdl_exec@hooks@nem@@YIXIIPAXABUdraw_model_state_t@valve@2@ABUmodel_render_info_t@42@PAUmat3x4_t@@@Z 100cbf30 f   hooks.obj
 0001:000cb5a0       ?cl_move@hooks@nem@@YAXM_N@Z 100cc5a0 f   hooks.obj
 0001:000cb940       ?process_interpolated_list@hooks@nem@@YAHXZ 100cc940 f   hooks.obj
 0001:000cb990       ?create_move@hooks@nem@@YGXHM_NAA_N@Z 100cc990 f   hooks.obj
 0001:000cfca0       ?frame_stage_notify@hooks@nem@@YGXW4e_frame_stage@valve@2@@Z 100d0ca0 f   hooks.obj
 0001:000d18a0       ?update_client_side_anim@hooks@nem@@YIXQAVc_player@valve@2@I@Z 100d28a0 f   hooks.obj
 0001:000d2240       ?setup_bones@hooks@nem@@YI_NIIQAUmat3x4_t@@HHM@Z 100d3240 f   hooks.obj
 0001:000d2810       ?accumulate_layers@hooks@nem@@YIXQAVc_player@valve@2@IHHMH@Z 100d3810 f   hooks.obj
 0001:000d29f0       ?on_latch_interpolated_vars@hooks@nem@@YIXQAVc_player@valve@2@IH@Z 100d39f0 f   hooks.obj
 0001:000d30a0       ?standard_blending_rules@hooks@nem@@YIXQAVc_player@valve@2@IQAUmodel_data_t@42@HHMH@Z 100d40a0 f   hooks.obj
 0001:000d31a0       ?should_skip_anim_frame@hooks@nem@@YI_NII@Z 100d41a0 f   hooks.obj
 0001:000d36b0       ?packet_start@hooks@nem@@YIXIIHH@Z 100d46b0 f   hooks.obj
 0001:000d3b80       ?packet_end@hooks@nem@@YIXII@Z 100d4b80 f   hooks.obj
 0001:000d40c0       ?setup_move@hooks@nem@@YIXIIPAVc_player@valve@2@PAUuser_cmd_t@42@PAVc_move_helper@42@PAUmove_data_t@42@@Z 100d50c0 f   hooks.obj
 0001:000d40d0       ?process_movement@hooks@nem@@YIXIIPAVc_player@valve@2@PAUmove_data_t@42@@Z 100d50d0 f   hooks.obj
 0001:000d4100       ?physics_simulate@hooks@nem@@YIXQAVc_player@valve@2@I@Z 100d5100 f   hooks.obj
 0001:000d8180       ?should_interpolate@hooks@nem@@YI_NQAVc_player@valve@2@I@Z 100d9180 f   hooks.obj
 0001:000d8200       ?write_user_cmd_delta_to_buffer@hooks@nem@@YI_NIIHQAUbf_write_t@valve@2@HH_N@Z 100d9200 f   hooks.obj
 0001:000d8450       ?velocity_modifier@hooks@nem@@YAXQAUrecv_proxy_data_t@valve@2@QAVc_entity@42@QAX@Z 100d9450 f   hooks.obj
 0001:000d84d0       ?sequence@hooks@nem@@YAXQAUrecv_proxy_data_t@valve@2@QAVc_entity@42@QAX@Z 100d94d0 f   hooks.obj
 0001:000d8b10       ?modify_eye_pos@hooks@nem@@YIXQAUanim_state_t@valve@2@IAAUImVec3@@@Z 100d9b10 f   hooks.obj
 0001:000d8b40       ?check_for_seq_change@hooks@nem@@YIXIIIH_N0@Z 100d9b40 f   hooks.obj
 0001:000d8b60       ?process_temp_entities@hooks@nem@@YI_NIII@Z 100d9b60 f   hooks.obj
 0001:000d8bb0       ?level_shutdown@hooks@nem@@YIXII@Z 100d9bb0 f   hooks.obj
 0001:000d8c30       ?glow_effect_spectator@hooks@nem@@YA_NPAVc_player@valve@2@0AAHAAUImVec3@@AAM333AA_N@Z 100d9c30 f   hooks.obj
 0001:000d8f40       ?paint_traverse@hooks@nem@@YIXPAX0I_N1@Z 100d9f40 f   hooks.obj
 0001:000d90a0       ?clamp_bones_in_box@hooks@nem@@YIXPAVc_player@valve@2@PAXPAUmat3x4_t@@H@Z 100da0a0 f   hooks.obj
 0001:000d90b0       ?run_cmd@hooks@nem@@YIXIIPAVc_player@valve@2@PAUuser_cmd_t@42@PAVc_move_helper@42@@Z 100da0b0 f   hooks.obj
 0001:000d90c0       ?get_clr_modulation@hooks@nem@@YIXQAUmaterial_t@valve@2@IQAM11@Z 100da0c0 f   hooks.obj
 0001:000d9150       ?is_depth_something_in_nigga_ass@hooks@nem@@YG_NXZ 100da150 f   hooks.obj
 0001:000d9160       ?is_using_static_prop_debug_modes@hooks@nem@@YG_NXZ 100da160 f   hooks.obj
 0001:000d9190       ?list_leaves_in_box@hooks@nem@@YIHIIABUImVec3@@0QBGH@Z 100da190 f   hooks.obj
 0001:000d92a0       ?override_cfg@hooks@nem@@YI_NQAVc_mat_system@valve@2@IQAUmat_sys_cfg_t@42@_N@Z 100da2a0 f   hooks.obj
 0001:000d92d0       ?fog_enabled@hooks@nem@@YI_NII@Z 100da2d0 f   hooks.obj
 0001:000d92f0       ?override_view@hooks@nem@@YIXIIQAUview_setup_t@valve@2@@Z 100da2f0 f   hooks.obj
 0001:000d9320       ?do_post_screen_space_effects@hooks@nem@@YIHIIQAUview_setup_t@valve@2@@Z 100da320 f   hooks.obj
 0001:000d9350       ?calc_view@hooks@nem@@YIXQAVc_player@valve@2@IAAUImVec3@@1AAM22@Z 100da350 f   hooks.obj
 0001:000d9380       ?in_prediction@hooks@nem@@YG_NXZ 100da380 f   hooks.obj
 0001:000d93d0       ?get_eye_angles@hooks@nem@@YIPAUImVec3@@QAVc_player@valve@2@I@Z 100da3d0 f   hooks.obj
 0001:000d93e0       ?is_paused@hooks@nem@@YI_NII@Z 100da3e0 f   hooks.obj
 0001:000d9430       ?is_hltv@hooks@nem@@YI_NII@Z 100da430 f   hooks.obj
 0001:000d94b0       ?aspect_ratio@hooks@nem@@YGMHH@Z 100da4b0 f   hooks.obj
 0001:000d9500       ?calc_viewmodel_bob@hooks@nem@@YIXPAVc_player@valve@2@IAAUImVec3@@@Z 100da500 f   hooks.obj
 0001:000d9530       ??$emplace_back@ABUImVec3@@ABQBUaim_last_target_t@hacks@nem@@ABHABHABMABM@?$deque@Ushot_t@hacks@nem@@V?$allocator@Ushot_t@hacks@nem@@@std@@@std@@QAEAAUshot_t@hacks@nem@@ABUImVec3@@ABQBUaim_last_target_t@34@ABH2ABM3@Z 100da530 f i hooks.obj
 0001:000d95d0       ??$call@$$V$$ZPAUlua_user_cmd_t@nem@@@?$basic_protected_function@V?$basic_reference@$0A@@sol@@$0A@V12@@sol@@QBE?A_T$$QAPAUlua_user_cmd_t@nem@@@Z 100da5d0 f i hooks.obj
 0001:000d9750       ?replace@?$basic_string@DU?$char_traits@D@std@@V?$allocator@D@2@@std@@QAEAAV12@IIQBDI@Z 100da750 f i hooks.obj
 0001:000d9920       ??$multi_push_reference@PAUlua_user_cmd_t@nem@@$$V@stack@sol@@YAHPAUlua_State@@$$QAPAUlua_user_cmd_t@nem@@@Z 100da920 f i hooks.obj
 0001:000d9a40       ?erase@?$deque@Uout_cmds_data_t@c_context@nem@@V?$allocator@Uout_cmds_data_t@c_context@nem@@@std@@@std@@QAE?AV?$_Deque_iterator@V?$_Deque_val@U?$_Deque_simple_types@Uout_cmds_data_t@c_context@nem@@@std@@@std@@@2@V?$_Deque_const_iterator@V?$_Deque_val@U?$_Deque_simple_types@Uout_cmds_data_t@c_context@nem@@@std@@@std@@@2@0@Z 100daa40 f i hooks.obj
 0001:000d9be0       ?_Growmap@?$deque@Ushot_t@hacks@nem@@V?$allocator@Ushot_t@hacks@nem@@@std@@@std@@AAEXI@Z 100dabe0 f i hooks.obj
 0001:000d9da0       ??$construct_at@Ushot_t@hacks@nem@@ABUImVec3@@ABQBUaim_last_target_t@23@ABHABHABMABM@std@@YAPAUshot_t@hacks@nem@@QAU123@ABUImVec3@@ABQBUaim_last_target_t@23@ABH3ABM4@Z 100dada0 f i hooks.obj
 0001:000d9ff0       ?metatable@?$usertype_traits@PAUlua_user_cmd_t@nem@@@sol@@SAABV?$basic_string@DU?$char_traits@D@std@@V?$allocator@D@2@@std@@XZ 100daff0 f i hooks.obj
 0001:000da0f0       ??$set_undefined_methods_on@PAUlua_user_cmd_t@nem@@@stack_detail@stack@sol@@YAXVstack_reference@2@@Z 100db0f0 f i hooks.obj
 0001:000da260       ??$demangle@PAUlua_user_cmd_t@nem@@@detail@sol@@YAABV?$basic_string@DU?$char_traits@D@std@@V?$allocator@D@2@@std@@XZ 100db260 f i hooks.obj
 0001:000da330       ??$insert_default_registrations@Ulua_user_cmd_t@nem@@AAUindexed_insert@detail@sol@@A6A_NW4meta_function@5@@Z@detail@sol@@YAXAAUindexed_insert@01@A6A_NW4meta_function@1@@Z@Z 100db330 f i hooks.obj
 0001:000da3e0       ??$demangle@Ulua_user_cmd_t@nem@@@detail@sol@@YAABV?$basic_string@DU?$char_traits@D@std@@V?$allocator@D@2@@std@@XZ 100db3e0 f i hooks.obj
 0001:000da4b0       ??$is_check@Ulua_user_cmd_t@nem@@@detail@sol@@YAHPAUlua_State@@@Z 100db4b0 f i hooks.obj
 0001:000da510       ??$comparsion_operator_wrap@Ulua_user_cmd_t@nem@@Uno_comp@detail@sol@@@detail@sol@@YAHPAUlua_State@@@Z 100db510 f i hooks.obj
 0001:000da580       ??$unqualified_check_get@Ulua_user_cmd_t@nem@@@stack@sol@@YA?A_TPAUlua_State@@H@Z 100db580 f i hooks.obj
 0001:000da620       ?pairs_call@?$u_c_launch@U?$as_container_t@Ulua_user_cmd_t@nem@@@sol@@@container_detail@sol@@SAHPAUlua_State@@@Z 100db620 f i hooks.obj
 0001:000da670       ?get_no_lua_nil_from@?$unqualified_getter@U?$as_value_tag@Ulua_user_cmd_t@nem@@@detail@sol@@X@stack@sol@@SAPAUlua_user_cmd_t@nem@@PAUlua_State@@PAXHAAUrecord@23@@Z 100db670 f i hooks.obj
 0001:000da760       ??$demangle@U?$as_container_t@Ulua_user_cmd_t@nem@@@sol@@@detail@sol@@YAABV?$basic_string@DU?$char_traits@D@std@@V?$allocator@D@2@@std@@XZ 100db760 f i hooks.obj
 0001:000da830       ??$check@Ulua_user_cmd_t@nem@@P6AHPAUlua_State@@HW4type@sol@@1PBD@_E@?$unqualified_checker@U?$as_value_tag@Ulua_user_cmd_t@nem@@@detail@sol@@$06X@stack@sol@@SA_NU?$types@Ulua_user_cmd_t@nem@@@2@PAUlua_State@@HW4type@2@$$QAP6AH1H22PBD@_EAAUrecord@12@@Z 100db830 f i hooks.obj
 0001:000daa20       ??$check@Ulua_user_cmd_t@nem@@AAP6AHPAUlua_State@@HW4type@sol@@1PBD@_E@?$unqualified_checker@U?$as_value_tag@Ulua_user_cmd_t@nem@@@detail@sol@@$06X@stack@sol@@SA_NU?$types@Ulua_user_cmd_t@nem@@@2@PAUlua_State@@HW4type@2@AAP6AH1H22PBD@_EAAUrecord@12@@Z 100dba20 f i hooks.obj
 0001:000dac20       ??$check_metatable@U?$as_container_t@Ulua_user_cmd_t@nem@@@sol@@$00@stack_detail@stack@sol@@YA_NPAUlua_State@@H@Z 100dbc20 f i hooks.obj
 0001:000dad30       ?metatable@?$usertype_traits@U?$unique_usertype@Ulua_user_cmd_t@nem@@@detail@sol@@@sol@@SAABV?$basic_string@DU?$char_traits@D@std@@V?$allocator@D@2@@std@@XZ 100dbd30 f i hooks.obj
 0001:000daeb0       ?metatable@?$usertype_traits@Ulua_user_cmd_t@nem@@@sol@@SAABV?$basic_string@DU?$char_traits@D@std@@V?$allocator@D@2@@std@@XZ 100dbeb0 f i hooks.obj
 0001:000dafb0       ?what@bad_variant_access@std@@UBEPBDXZ 100dbfb0 f i lua.obj
 0001:000dafc0       ?_Throw_bad_variant_access@std@@YAXXZ 100dbfc0 f i lua.obj
 0001:000db000       ??0bad_variant_access@std@@QAE@XZ 100dc000 f i lua.obj
 0001:000db010       ?_Find_filename@filesystem@std@@YAPB_WQB_WPB_W@Z 100dc010 f i lua.obj
 0001:000db060       ?filename@path@filesystem@std@@QBE?AV123@XZ 100dc060 f i lua.obj
 0001:000db0c0       ??8col_t@@QBE_NABU0@@Z     100dc0c0 f i lua.obj
 0001:000db290       ?attempt_alloc@detail@sol@@YA_NPAUlua_State@@IIIIIAAPAX1@Z 100dc290 f i lua.obj
 0001:000db320       ?clear@stack@sol@@YAXPAUlua_State@@H@Z 100dc320 f i lua.obj
 0001:000db370       ??_Ebinding_base@u_detail@sol@@UAEPAXI@Z 100dc370 f i * CIL library *:* CIL module *
 0001:000db370       ??_Gbinding_base@u_detail@sol@@UAEPAXI@Z 100dc370 f i lua.obj
 0001:000db3a0       ?index_target_fail@u_detail@sol@@YAHPAUlua_State@@PAX@Z 100dc3a0 f i lua.obj
 0001:000db400       ?new_index_target_fail@u_detail@sol@@YAHPAUlua_State@@PAX@Z 100dc400 f i lua.obj
 0001:000db410       ??Rstring_for_each_metatable_func@u_detail@sol@@QAEXPAUlua_State@@W4submetatable_type@12@AAV?$basic_reference@$0A@@2@@Z 100dc410 f i lua.obj
 0001:000db630       ??0usertype_storage_base@u_detail@sol@@QAE@PAUlua_State@@@Z 100dc630 f i lua.obj
 0001:000db910       ?add_entry@usertype_storage_base@u_detail@sol@@QAEXV?$basic_string_view@DU?$char_traits@D@std@@@std@@Uindex_call_storage@23@@Z 100dc910 f i lua.obj
 0001:000db990       ?clear@usertype_storage_base@u_detail@sol@@QAEXXZ 100dc990 f i lua.obj
 0001:000dbf20       ?change_indexing@usertype_storage_base@u_detail@sol@@QAEXPAUlua_State@@W4submetatable_type@23@PAXAAVstack_reference@3@P6AH0@Z444@Z 100dcf20 f i lua.obj
 0001:000dc0e0       ?new_index_target_set@usertype_storage_base@u_detail@sol@@SAHPAUlua_State@@PAX@Z 100dd0e0 f i lua.obj
 0001:000dc1a0       ??1?$unordered_map@V?$basic_string_view@DU?$char_traits@D@std@@@std@@Uindex_call_storage@u_detail@sol@@U?$hash@V?$basic_string_view@DU?$char_traits@D@std@@@std@@@2@U?$equal_to@V?$basic_string_view@DU?$char_traits@D@std@@@std@@@2@V?$allocator@U?$pair@$$CBV?$basic_string_view@DU?$char_traits@D@std@@@std@@Uindex_call_storage@u_detail@sol@@@std@@@2@@std@@QAE@XZ 100dd1a0 f i lua.obj
 0001:000dc1b0       ??1?$_Hash@V?$_Umap_traits@V?$basic_string_view@DU?$char_traits@D@std@@@std@@Uindex_call_storage@u_detail@sol@@V?$_Uhash_compare@V?$basic_string_view@DU?$char_traits@D@std@@@std@@U?$hash@V?$basic_string_view@DU?$char_traits@D@std@@@std@@@2@U?$equal_to@V?$basic_string_view@DU?$char_traits@D@std@@@std@@@2@@2@V?$allocator@U?$pair@$$CBV?$basic_string_view@DU?$char_traits@D@std@@@std@@Uindex_call_storage@u_detail@sol@@@std@@@2@$0A@@std@@@std@@QAE@XZ 100dd1b0 f i lua.obj
 0001:000dc200       ?create_table@state_view@sol@@QAE?AV?$basic_table_core@$0A@V?$basic_reference@$0A@@sol@@@2@HH@Z 100dd200 f i lua.obj
 0001:000dc250       ?get_str@cvar_t@valve@nem@@QAEPBDXZ 100dd250 f i lua.obj
 0001:000dc260       ??0?$basic_protected_function@V?$basic_reference@$0A@@sol@@$0A@V12@@sol@@QAE@ABV01@@Z 100dd260 f i lua.obj
 0001:000dc300       ?init@c_lua@nem@@QAEXXZ    100dd300 f   lua.obj
 0001:000df810       ??$string@DU?$char_traits@D@std@@V?$allocator@D@2@$0A@@path@filesystem@std@@QBE?AV?$basic_string@DU?$char_traits@D@std@@V?$allocator@D@2@@2@ABV?$allocator@D@2@@Z 100e0810 f i lua.obj
 0001:000df930       ??$set_field@$0A@$00W4meta_function@sol@@U?$closure@$$TAAPAXAAPAX$$TABH@2@@stack@sol@@YAXPAUlua_State@@$$QAW4meta_function@1@$$QAU?$closure@$$TAAPAXAAPAX$$TABH@1@H@Z 100e0930 f i lua.obj
 0001:000df9f0       ??$set@XV?$basic_reference@$0A@@sol@@V12@@usertype_storage_base@u_detail@sol@@QAEXPAUlua_State@@$$QAV?$basic_reference@$0A@@2@1@Z 100e09f0 f i lua.obj
 0001:000dfcb0       ??$open_libraries@W4lib@sol@@W412@W412@W412@W412@W412@W412@W412@@state_view@sol@@QAEX$$QAW4lib@1@0000000@Z 100e0cb0 f i lua.obj
 0001:000e0500       ??$?4AAV?$basic_table_core@$0A@V?$basic_reference@$0A@@sol@@@sol@@@?$table_proxy@AAV?$basic_table_core@$00V?$basic_reference@$0A@@sol@@@sol@@V?$tuple@AAY04$$CBD@std@@@sol@@QHAE$$QAU01@AAV?$basic_table_core@$0A@V?$basic_reference@$0A@@sol@@@1@@Z 100e1500 f i lua.obj
 0001:000e0500       ??$?4AAV?$basic_table_core@$0A@V?$basic_reference@$0A@@sol@@@sol@@@?$table_proxy@AAV?$basic_table_core@$00V?$basic_reference@$0A@@sol@@@sol@@V?$tuple@AAY06$$CBD@std@@@sol@@QHAE$$QAU01@AAV?$basic_table_core@$0A@V?$basic_reference@$0A@@sol@@@1@@Z 100e1500 f i lua.obj
 0001:000e0500       ??$?4AAV?$basic_table_core@$0A@V?$basic_reference@$0A@@sol@@@sol@@@?$table_proxy@AAV?$basic_table_core@$00V?$basic_reference@$0A@@sol@@@sol@@V?$tuple@AAY07$$CBD@std@@@sol@@QHAE$$QAU01@AAV?$basic_table_core@$0A@V?$basic_reference@$0A@@sol@@@1@@Z 100e1500 f i lua.obj
 0001:000e0500       ??$?4AAV?$basic_table_core@$0A@V?$basic_reference@$0A@@sol@@@sol@@@?$table_proxy@AAV?$basic_table_core@$00V?$basic_reference@$0A@@sol@@@sol@@V?$tuple@AAY09$$CBD@std@@@sol@@QHAE$$QAU01@AAV?$basic_table_core@$0A@V?$basic_reference@$0A@@sol@@@1@@Z 100e1500 f i lua.obj
 0001:000e1040       ??$tuple_cat@V?$tuple@AAY05$$CBD@std@@V?$tuple@AAY07$$CBD@2@@std@@YA?AV?$tuple@AAY05$$CBDAAY07$$CBD@0@$$QAV?$tuple@AAY05$$CBD@0@$$QAV?$tuple@AAY07$$CBD@0@@Z 100e2040 f i lua.obj
 0001:000e1ce0       ??4?$deque@Ucallback_t@c_lua@nem@@V?$allocator@Ucallback_t@c_lua@nem@@@std@@@std@@QAEAAV01@V?$initializer_list@Ucallback_t@c_lua@nem@@@1@@Z 100e2ce0 f i lua.obj
 0001:000e1d00       ??1?$push_popper@$0A@AAV?$basic_table_core@$0A@V?$basic_reference@$0A@@sol@@@sol@@X@stack@sol@@QAE@XZ 100e2d00 f i lua.obj
 0001:000e1d00       ??1?$push_popper@$0A@ABV?$basic_table_core@$0A@V?$basic_reference@$0A@@sol@@@sol@@X@stack@sol@@QAE@XZ 100e2d00 f i lua.obj
 0001:000e1d10       ??1?$list@U?$pair@$$CBV?$basic_reference@$0A@@sol@@V12@@std@@V?$allocator@U?$pair@$$CBV?$basic_reference@$0A@@sol@@V12@@std@@@2@@std@@QAE@XZ 100e2d10 f i lua.obj
 0001:000e1d30       ??1?$list@U?$pair@$$CBV?$basic_string_view@DU?$char_traits@D@std@@@std@@Uindex_call_storage@u_detail@sol@@@std@@V?$allocator@U?$pair@$$CBV?$basic_string_view@DU?$char_traits@D@std@@@std@@Uindex_call_storage@u_detail@sol@@@std@@@2@@std@@QAE@XZ 100e2d30 f i lua.obj
 0001:000e1d70       ?clear@?$_Hash@V?$_Umap_traits@V?$basic_string_view@DU?$char_traits@D@std@@@std@@Uindex_call_storage@u_detail@sol@@V?$_Uhash_compare@V?$basic_string_view@DU?$char_traits@D@std@@@std@@U?$hash@V?$basic_string_view@DU?$char_traits@D@std@@@std@@@2@U?$equal_to@V?$basic_string_view@DU?$char_traits@D@std@@@std@@@2@@2@V?$allocator@U?$pair@$$CBV?$basic_string_view@DU?$char_traits@D@std@@@std@@Uindex_call_storage@u_detail@sol@@@std@@@2@$0A@@std@@@std@@QAEXXZ 100e2d70 f i lua.obj
 0001:000e1ef0       ??1?$vector@V?$unique_ptr@$$BY0A@DU?$default_delete@$$BY0A@D@std@@@std@@V?$allocator@V?$unique_ptr@$$BY0A@DU?$default_delete@$$BY0A@D@std@@@std@@@2@@std@@QAE@XZ 100e2ef0 f i lua.obj
 0001:000e1f70       ??1?$vector@V?$unique_ptr@Ubinding_base@u_detail@sol@@U?$default_delete@Ubinding_base@u_detail@sol@@@std@@@std@@V?$allocator@V?$unique_ptr@Ubinding_base@u_detail@sol@@U?$default_delete@Ubinding_base@u_detail@sol@@@std@@@std@@@2@@std@@QAE@XZ 100e2f70 f i lua.obj
 0001:000e1ff0       ??4?$basic_reference@$0A@@sol@@QAEAAV01@$$QAV01@@Z 100e2ff0 f i lua.obj
 0001:000e20c0       ??$_Convert_Source_to_wide@V?$basic_string_view@_WU?$char_traits@_W@std@@@std@@U_Normal_conversion@filesystem@2@@filesystem@std@@YA?AV?$basic_string@_WU?$char_traits@_W@std@@V?$allocator@_W@2@@1@ABV?$basic_string_view@_WU?$char_traits@_W@std@@@1@U_Normal_conversion@01@@Z 100e30c0 f i lua.obj
 0001:000e2190       ??$_Insert_or_assign@V?$basic_string_view@DU?$char_traits@D@std@@@std@@Uindex_call_storage@u_detail@sol@@@?$unordered_map@V?$basic_string_view@DU?$char_traits@D@std@@@std@@Uindex_call_storage@u_detail@sol@@U?$hash@V?$basic_string_view@DU?$char_traits@D@std@@@std@@@2@U?$equal_to@V?$basic_string_view@DU?$char_traits@D@std@@@std@@@2@V?$allocator@U?$pair@$$CBV?$basic_string_view@DU?$char_traits@D@std@@@std@@Uindex_call_storage@u_detail@sol@@@std@@@2@@std@@AAE?AU?$pair@V?$_List_iterator@V?$_List_val@U?$_List_simple_types@U?$pair@$$CBV?$basic_string_view@DU?$char_traits@D@std@@@std@@Uindex_call_storage@u_detail@sol@@@std@@@std@@@std@@@std@@_N@1@$$QAV?$basic_string_view@DU?$char_traits@D@std@@@1@$$QAUindex_call_storage@u_detail@sol@@@Z 100e3190 f i lua.obj
 0001:000e2350       ??$set@XAAV?$basic_string@DU?$char_traits@D@std@@V?$allocator@D@2@@std@@V?$basic_reference@$0A@@sol@@@usertype_storage_base@u_detail@sol@@QAEXPAUlua_State@@AAV?$basic_string@DU?$char_traits@D@std@@V?$allocator@D@2@@std@@$$QAV?$basic_reference@$0A@@2@@Z 100e3350 f i lua.obj
 0001:000e2930       ??$_Convert_Source_to_wide@V?$basic_string@DU?$char_traits@D@std@@V?$allocator@D@2@@std@@U_Normal_conversion@filesystem@2@@filesystem@std@@YA?AV?$basic_string@_WU?$char_traits@_W@std@@V?$allocator@_W@2@@1@ABV?$basic_string@DU?$char_traits@D@std@@V?$allocator@D@2@@1@U_Normal_conversion@01@@Z 100e3930 f i lua.obj
 0001:000e2960       ??$new_usertype@UImVec3@@ABV?$basic_string@DU?$char_traits@D@std@@V?$allocator@D@2@@std@@U?$constructor_list@$$A6A?AUImVec3@@XZ$$A6A?AU1@MMM@Z@sol@@V?$basic_string_view@DU?$char_traits@D@std@@@3@PQ1@MV63@PQ1@MV63@PQ1@MV63@P81@BEMXZV63@P81@BEMXZV63@P81@BEMXZV63@P81@BEMXZV63@P81@AEAAU1@XZX@?$basic_table_core@$00V?$basic_reference@$0A@@sol@@@sol@@QAE?AV?$basic_usertype@UImVec3@@V?$basic_reference@$0A@@sol@@@1@ABV?$basic_string@DU?$char_traits@D@std@@V?$allocator@D@2@@std@@$$QAU?$constructor_list@$$A6A?AUImVec3@@XZ$$A6A?AU1@MMM@Z@1@$$QAV?$basic_string_view@DU?$char_traits@D@std@@@4@$$QAPQImVec3@@M23232$$QAP87@BEMXZ2424242$$QAP87@AEAAU7@XZ@Z 100e3960 f i lua.obj
 0001:000e2b80       ??$new_usertype@Ucol_t@@ABV?$basic_string@DU?$char_traits@D@std@@V?$allocator@D@2@@std@@U?$constructor_list@$$A6A?AUcol_t@@XZ$$A6A?AU1@HHH@Z$$A6A?AU1@HHHH@Z@sol@@V23@P81@BEHXZV23@P81@BEHXZV23@P81@BEHXZV23@P81@BEHXZX@?$basic_table_core@$00V?$basic_reference@$0A@@sol@@@sol@@QAE?AV?$basic_usertype@Ucol_t@@V?$basic_reference@$0A@@sol@@@1@ABV?$basic_string@DU?$char_traits@D@std@@V?$allocator@D@2@@std@@$$QAU?$constructor_list@$$A6A?AUcol_t@@XZ$$A6A?AU1@HHH@Z$$A6A?AU1@HHHH@Z@1@$$QAV34@$$QAP8col_t@@BEHXZ232323@Z 100e3b80 f i lua.obj
 0001:000e2d70       ??$new_usertype@Ulua_user_cmd_t@nem@@ABV?$basic_string@DU?$char_traits@D@std@@V?$allocator@D@2@@std@@V?$basic_string_view@DU?$char_traits@D@std@@@4@PQ12@HV54@PQ12@HV54@PQ12@MV54@PQ12@MV54@PQ12@MV54@PQ12@MV54@PQ12@_NV54@PQ12@_NV54@PQ12@_NV54@PQ12@_NV54@PQ12@_NV54@PQ12@_NV54@PQ12@_NV54@PQ12@_NV54@PQ12@_NV54@PQ12@_NV54@PQ12@_NV54@PQ12@_NV54@PQ12@_NV54@PQ12@_NV54@PQ12@_NV54@PQ12@_NV54@PQ12@_NV54@PQ12@_NV54@PQ12@_NV54@PQ12@_NV54@PQ12@_NV54@PQ12@_NV54@PQ12@_NV54@PQ12@_NV54@PQ12@_NV54@PQ12@_NX@?$basic_table_core@$00V?$basic_reference@$0A@@sol@@@sol@@QAE?AV?$basic_usertype@Ulua_user_cmd_t@nem@@V?$basic_reference@$0A@@sol@@@1@ABV?$basic_string@DU?$char_traits@D@std@@V?$allocator@D@2@@std@@$$QAV?$basic_string_view@DU?$char_traits@D@std@@@4@$$QAPQlua_user_cmd_t@nem@@H121$$QAPQ67@M1313131$$QAPQ67@_N14141414141414141414141414141414141414141414141414@Z 100e3d70 f i lua.obj
 0001:000e30c0       ??1?$clean@$00@detail@sol@@QAE@XZ 100e40c0 f i lua.obj
 0001:000e30d0       ??$_Emplace_reallocate@PAD@?$vector@V?$unique_ptr@$$BY0A@DU?$default_delete@$$BY0A@D@std@@@std@@V?$allocator@V?$unique_ptr@$$BY0A@DU?$default_delete@$$BY0A@D@std@@@std@@@2@@std@@AAEPAV?$unique_ptr@$$BY0A@DU?$default_delete@$$BY0A@D@std@@@1@QAV21@$$QAPAD@Z 100e40d0 f i lua.obj
 0001:000e3290       ??$_Find_last@V?$basic_string_view@DU?$char_traits@D@std@@@std@@@?$_Hash@V?$_Umap_traits@V?$basic_string_view@DU?$char_traits@D@std@@@std@@Uindex_call_storage@u_detail@sol@@V?$_Uhash_compare@V?$basic_string_view@DU?$char_traits@D@std@@@std@@U?$hash@V?$basic_string_view@DU?$char_traits@D@std@@@std@@@2@U?$equal_to@V?$basic_string_view@DU?$char_traits@D@std@@@std@@@2@@2@V?$allocator@U?$pair@$$CBV?$basic_string_view@DU?$char_traits@D@std@@@std@@Uindex_call_storage@u_detail@sol@@@std@@@2@$0A@@std@@@std@@IBE?AU?$_Hash_find_last_result@PAU?$_List_node@U?$pair@$$CBV?$basic_string_view@DU?$char_traits@D@std@@@std@@Uindex_call_storage@u_detail@sol@@@std@@PAX@std@@@1@ABV?$basic_string_view@DU?$char_traits@D@std@@@1@I@Z 100e4290 f i lua.obj
 0001:000e3330       ??$make_string@AAV?$basic_string@DU?$char_traits@D@std@@V?$allocator@D@2@@std@@@u_detail@sol@@YA?AV?$basic_string@DU?$char_traits@D@std@@V?$allocator@D@2@@std@@AAV23@@Z 100e4330 f i lua.obj
 0001:000e3380       ??$erase@V?$_List_iterator@V?$_List_val@U?$_List_simple_types@U?$pair@$$CBV?$basic_string_view@DU?$char_traits@D@std@@@std@@Uindex_call_storage@u_detail@sol@@@std@@@std@@@std@@@std@@$0A@@?$_Hash@V?$_Umap_traits@V?$basic_string_view@DU?$char_traits@D@std@@@std@@Uindex_call_storage@u_detail@sol@@V?$_Uhash_compare@V?$basic_string_view@DU?$char_traits@D@std@@@std@@U?$hash@V?$basic_string_view@DU?$char_traits@D@std@@@std@@@2@U?$equal_to@V?$basic_string_view@DU?$char_traits@D@std@@@std@@@2@@2@V?$allocator@U?$pair@$$CBV?$basic_string_view@DU?$char_traits@D@std@@@std@@Uindex_call_storage@u_detail@sol@@@std@@@2@$0A@@std@@@std@@QAE?AV?$_List_iterator@V?$_List_val@U?$_List_simple_types@U?$pair@$$CBV?$basic_string_view@DU?$char_traits@D@std@@@std@@Uindex_call_storage@u_detail@sol@@@std@@@std@@@std@@@1@V21@@Z 100e4380 f i lua.obj
 0001:000e33f0       ??$call_with_@$00$00@?$binding@V?$basic_string@DU?$char_traits@D@std@@V?$allocator@D@2@@std@@V?$basic_reference@$0A@@sol@@X@u_detail@sol@@SAHPAUlua_State@@PAX@Z 100e43f0 f i lua.obj
 0001:000e33f0       ??$index_call_with_@$00$00@?$binding@V?$basic_string@DU?$char_traits@D@std@@V?$allocator@D@2@@std@@V?$basic_reference@$0A@@sol@@X@u_detail@sol@@SAHPAUlua_State@@PAX@Z 100e43f0 f i lua.obj
 0001:000e3400       ??$call_with_@$0A@$00@?$binding@V?$basic_string@DU?$char_traits@D@std@@V?$allocator@D@2@@std@@V?$basic_reference@$0A@@sol@@X@u_detail@sol@@SAHPAUlua_State@@PAX@Z 100e4400 f i lua.obj
 0001:000e3400       ??$index_call_with_@$0A@$00@?$binding@V?$basic_string@DU?$char_traits@D@std@@V?$allocator@D@2@@std@@V?$basic_reference@$0A@@sol@@X@u_detail@sol@@SAHPAUlua_State@@PAX@Z 100e4400 f i lua.obj
 0001:000e3460       ??$index_call@$0A@@?$usertype_storage@UImVec3@@@u_detail@sol@@SAHPAUlua_State@@@Z 100e4460 f i lua.obj
 0001:000e3460       ??$index_call@$0A@@?$usertype_storage@Ucol_t@@@u_detail@sol@@SAHPAUlua_State@@@Z 100e4460 f i lua.obj
 0001:000e3460       ??$index_call@$0A@@?$usertype_storage@Ucvar_t@valve@nem@@@u_detail@sol@@SAHPAUlua_State@@@Z 100e4460 f i lua.obj
 0001:000e3460       ??$index_call@$0A@@?$usertype_storage@Ulua_user_cmd_t@nem@@@u_detail@sol@@SAHPAUlua_State@@@Z 100e4460 f i lua.obj
 0001:000e3460       ??$index_call@$0A@@?$usertype_storage@X@u_detail@sol@@SAHPAUlua_State@@@Z 100e4460 f i lua.obj
 0001:000e34a0       ??$index_call@$00@?$usertype_storage@UImVec3@@@u_detail@sol@@SAHPAUlua_State@@@Z 100e44a0 f i lua.obj
 0001:000e34a0       ??$index_call@$00@?$usertype_storage@Ucol_t@@@u_detail@sol@@SAHPAUlua_State@@@Z 100e44a0 f i lua.obj
 0001:000e34a0       ??$index_call@$00@?$usertype_storage@Ucvar_t@valve@nem@@@u_detail@sol@@SAHPAUlua_State@@@Z 100e44a0 f i lua.obj
 0001:000e34a0       ??$index_call@$00@?$usertype_storage@Ulua_user_cmd_t@nem@@@u_detail@sol@@SAHPAUlua_State@@@Z 100e44a0 f i lua.obj
 0001:000e34a0       ??$index_call@$00@?$usertype_storage@X@u_detail@sol@@SAHPAUlua_State@@@Z 100e44a0 f i lua.obj
 0001:000e34e0       ??$meta_index_call@$0A@@?$usertype_storage@UImVec3@@@u_detail@sol@@SAHPAUlua_State@@@Z 100e44e0 f i lua.obj
 0001:000e34e0       ??$meta_index_call@$0A@@?$usertype_storage@Ucol_t@@@u_detail@sol@@SAHPAUlua_State@@@Z 100e44e0 f i lua.obj
 0001:000e34e0       ??$meta_index_call@$0A@@?$usertype_storage@Ucvar_t@valve@nem@@@u_detail@sol@@SAHPAUlua_State@@@Z 100e44e0 f i lua.obj
 0001:000e34e0       ??$meta_index_call@$0A@@?$usertype_storage@Ulua_user_cmd_t@nem@@@u_detail@sol@@SAHPAUlua_State@@@Z 100e44e0 f i lua.obj
 0001:000e34e0       ??$meta_index_call@$0A@@?$usertype_storage@X@u_detail@sol@@SAHPAUlua_State@@@Z 100e44e0 f i lua.obj
 0001:000e3520       ??$meta_index_call@$00@?$usertype_storage@UImVec3@@@u_detail@sol@@SAHPAUlua_State@@@Z 100e4520 f i lua.obj
 0001:000e3520       ??$meta_index_call@$00@?$usertype_storage@Ucol_t@@@u_detail@sol@@SAHPAUlua_State@@@Z 100e4520 f i lua.obj
 0001:000e3520       ??$meta_index_call@$00@?$usertype_storage@Ucvar_t@valve@nem@@@u_detail@sol@@SAHPAUlua_State@@@Z 100e4520 f i lua.obj
 0001:000e3520       ??$meta_index_call@$00@?$usertype_storage@Ulua_user_cmd_t@nem@@@u_detail@sol@@SAHPAUlua_State@@@Z 100e4520 f i lua.obj
 0001:000e3520       ??$meta_index_call@$00@?$usertype_storage@X@u_detail@sol@@SAHPAUlua_State@@@Z 100e4520 f i lua.obj
 0001:000e3560       ??$for_each_table@AAUstring_for_each_metatable_func@u_detail@sol@@@usertype_storage_base@u_detail@sol@@QAEXPAUlua_State@@AAUstring_for_each_metatable_func@12@@Z 100e4560 f i lua.obj
 0001:000e35f0       ??$_Insert_or_assign@V?$basic_reference@$0A@@sol@@V12@@?$unordered_map@V?$basic_reference@$0A@@sol@@V12@Ureference_hash@2@Ureference_equals@2@V?$allocator@U?$pair@$$CBV?$basic_reference@$0A@@sol@@V12@@std@@@std@@@std@@AAE?AU?$pair@V?$_List_iterator@V?$_List_val@U?$_List_simple_types@U?$pair@$$CBV?$basic_reference@$0A@@sol@@V12@@std@@@std@@@std@@@std@@_N@1@$$QAV?$basic_reference@$0A@@sol@@0@Z 100e45f0 f i lua.obj
 0001:000e3810       ??$tuple_set@$0A@$00$01$02$03$04$05$06$$Z$$QAV?$basic_string_view@DU?$char_traits@D@std@@@std@@$$QAPQImVec3@@M$$QAV12@$$QAPQ3@M$$QAV12@$$QAPQ3@M$$QAV12@$$QAP83@BEMXZ$$QAV12@$$QAP83@BEMXZ$$QAV12@$$QAP83@BEMXZ$$QAV12@$$QAP83@BEMXZ$$QAV12@$$QAP83@AEAAU3@XZ@?$basic_usertype@UImVec3@@V?$basic_reference@$0A@@sol@@@sol@@AAEXU?$integer_sequence@I$0A@$00$01$02$03$04$05$06@std@@$$QAV?$tuple@$$QAV?$basic_string_view@DU?$char_traits@D@std@@@std@@$$QAPQImVec3@@M$$QAV12@$$QAPQ3@M$$QAV12@$$QAPQ3@M$$QAV12@$$QAP83@BEMXZ$$QAV12@$$QAP83@BEMXZ$$QAV12@$$QAP83@BEMXZ$$QAV12@$$QAP83@BEMXZ$$QAV12@$$QAP83@AEAAU3@XZ@3@@Z 100e4810 f i lua.obj
 0001:000e39a0       ??$tuple_set@$0A@$00$01$02$$Z$$QAV?$basic_string@DU?$char_traits@D@std@@V?$allocator@D@2@@std@@$$QAP8col_t@@BEHXZ$$QAV12@$$QAP83@BEHXZ$$QAV12@$$QAP83@BEHXZ$$QAV12@$$QAP83@BEHXZ@?$basic_usertype@Ucol_t@@V?$basic_reference@$0A@@sol@@@sol@@AAEXU?$integer_sequence@I$0A@$00$01$02@std@@$$QAV?$tuple@$$QAV?$basic_string@DU?$char_traits@D@std@@V?$allocator@D@2@@std@@$$QAP8col_t@@BEHXZ$$QAV12@$$QAP83@BEHXZ$$QAV12@$$QAP83@BEHXZ$$QAV12@$$QAP83@BEHXZ@3@@Z 100e49a0 f i lua.obj
 0001:000e39f0       ??$tuple_set@$0A@$00$01$02$03$04$$Z$$QAV?$basic_string_view@DU?$char_traits@D@std@@@std@@$$QAP8cvar_t@valve@nem@@AEHXZ$$QAV12@$$QAP8345@AEMXZ$$QAV12@$$QAP8345@AEPBDXZ$$QAV12@$$QAP8345@AEXH@Z$$QAV12@$$QAP8345@AEXM@Z$$QAV12@$$QAP8345@AEXPBD@Z@?$basic_usertype@Ucvar_t@valve@nem@@V?$basic_reference@$0A@@sol@@@sol@@AAEXU?$integer_sequence@I$0A@$00$01$02$03$04@std@@$$QAV?$tuple@$$QAV?$basic_string_view@DU?$char_traits@D@std@@@std@@$$QAP8cvar_t@valve@nem@@AEHXZ$$QAV12@$$QAP8345@AEMXZ$$QAV12@$$QAP8345@AEPBDXZ$$QAV12@$$QAP8345@AEXH@Z$$QAV12@$$QAP8345@AEXM@Z$$QAV12@$$QAP8345@AEXPBD@Z@3@@Z 100e49f0 f i lua.obj
 0001:000e4000       ??$tuple_set@$0A@$00$01$02$03$04$05$06$07$08$09$0L@$0M@$0N@$0O@$0P@$0BA@$0BB@$0BC@$0BD@$0BE@$0BF@$0BG@$0BH@$0BI@$0BJ@$0BK@$0BL@$0BM@$0BN@$0BO@$0BP@$$Z$$QAV?$basic_string_view@DU?$char_traits@D@std@@@std@@$$QAPQlua_user_cmd_t@nem@@H$$QAV12@$$QAPQ34@H$$QAV12@$$QAPQ34@M$$QAV12@$$QAPQ34@M$$QAV12@$$QAPQ34@M$$QAV12@$$QAPQ34@M$$QAV12@$$QAPQ34@_N$$QAV12@$$QAPQ34@_N$$QAV12@$$QAPQ34@_N$$QAV12@$$QAPQ34@_N$$QAV12@$$QAPQ34@_N$$QAV12@$$QAPQ34@_N$$QAV12@$$QAPQ34@_N$$QAV12@$$QAPQ34@_N$$QAV12@$$QAPQ34@_N$$QAV12@$$QAPQ34@_N$$QAV12@$$QAPQ34@_N$$QAV12@$$QAPQ34@_N$$QAV12@$$QAPQ34@_N$$QAV12@$$QAPQ34@_N$$QAV12@$$QAPQ34@_N$$QAV12@$$QAPQ34@_N$$QAV12@$$QAPQ34@_N$$QAV12@$$QAPQ34@_N$$QAV12@$$QAPQ34@_N$$QAV12@$$QAPQ34@_N$$QAV12@$$QAPQ34@_N$$QAV12@$$QAPQ34@_N$$QAV12@$$QAPQ34@_N$$QAV12@$$QAPQ34@_N$$QAV12@$$QAPQ34@_N$$QAV12@$$QAPQ34@_N@?$basic_usertype@Ulua_user_cmd_t@nem@@V?$basic_reference@$0A@@sol@@@sol@@AAEXU?$integer_sequence@I$0A@$00$01$02$03$04$05$06$07$08$09$0L@$0M@$0N@$0O@$0P@$0BA@$0BB@$0BC@$0BD@$0BE@$0BF@$0BG@$0BH@$0BI@$0BJ@$0BK@$0BL@$0BM@$0BN@$0BO@$0BP@@std@@$$QAV?$tuple@$$QAV?$basic_string_view@DU?$char_traits@D@std@@@std@@$$QAPQlua_user_cmd_t@nem@@H$$QAV12@$$QAPQ34@H$$QAV12@$$QAPQ34@M$$QAV12@$$QAPQ34@M$$QAV12@$$QAPQ34@M$$QAV12@$$QAPQ34@M$$QAV12@$$QAPQ34@_N$$QAV12@$$QAPQ34@_N$$QAV12@$$QAPQ34@_N$$QAV12@$$QAPQ34@_N$$QAV12@$$QAPQ34@_N$$QAV12@$$QAPQ34@_N$$QAV12@$$QAPQ34@_N$$QAV12@$$QAPQ34@_N$$QAV12@$$QAPQ34@_N$$QAV12@$$QAPQ34@_N$$QAV12@$$QAPQ34@_N$$QAV12@$$QAPQ34@_N$$QAV12@$$QAPQ34@_N$$QAV12@$$QAPQ34@_N$$QAV12@$$QAPQ34@_N$$QAV12@$$QAPQ34@_N$$QAV12@$$QAPQ34@_N$$QAV12@$$QAPQ34@_N$$QAV12@$$QAPQ34@_N$$QAV12@$$QAPQ34@_N$$QAV12@$$QAPQ34@_N$$QAV12@$$QAPQ34@_N$$QAV12@$$QAPQ34@_N$$QAV12@$$QAPQ34@_N$$QAV12@$$QAPQ34@_N$$QAV12@$$QAPQ34@_N@3@@Z 100e5000 f i lua.obj
 0001:000e4220       ??$_Assign_range@PBUcallback_t@c_lua@nem@@PBU123@@?$deque@Ucallback_t@c_lua@nem@@V?$allocator@Ucallback_t@c_lua@nem@@@std@@@std@@AAEXPBUcallback_t@c_lua@nem@@QBU234@@Z 100e5220 f i lua.obj
 0001:000e43d0       ??$_Free_non_head@V?$allocator@U?$_List_node@U?$pair@$$CBV?$basic_reference@$0A@@sol@@V12@@std@@PAX@std@@@std@@@?$_List_node@U?$pair@$$CBV?$basic_reference@$0A@@sol@@V12@@std@@PAX@std@@SAXAAV?$allocator@U?$_List_node@U?$pair@$$CBV?$basic_reference@$0A@@sol@@V12@@std@@PAX@std@@@1@PAU01@@Z 100e53d0 f i lua.obj
 0001:000e4440       ??1?$unique_ptr@U?$binding@V?$basic_string@DU?$char_traits@D@std@@V?$allocator@D@2@@std@@P8col_t@@BEHXZU3@@u_detail@sol@@U?$default_delete@U?$binding@V?$basic_string@DU?$char_traits@D@std@@V?$allocator@D@2@@std@@P8col_t@@BEHXZU3@@u_detail@sol@@@std@@@std@@QAE@XZ 100e5440 f i lua.obj
 0001:000e4440       ??1?$unique_ptr@U?$binding@V?$basic_string@DU?$char_traits@D@std@@V?$allocator@D@2@@std@@V?$basic_reference@$0A@@sol@@X@u_detail@sol@@U?$default_delete@U?$binding@V?$basic_string@DU?$char_traits@D@std@@V?$allocator@D@2@@std@@V?$basic_reference@$0A@@sol@@X@u_detail@sol@@@std@@@std@@QAE@XZ 100e5440 f i lua.obj
 0001:000e4440       ??1?$unique_ptr@U?$binding@V?$basic_string_view@DU?$char_traits@D@std@@@std@@P8ImVec3@@AEAAU3@XZU3@@u_detail@sol@@U?$default_delete@U?$binding@V?$basic_string_view@DU?$char_traits@D@std@@@std@@P8ImVec3@@AEAAU3@XZU3@@u_detail@sol@@@std@@@std@@QAE@XZ 100e5440 f i lua.obj
 0001:000e4440       ??1?$unique_ptr@U?$binding@V?$basic_string_view@DU?$char_traits@D@std@@@std@@P8ImVec3@@BEMXZU3@@u_detail@sol@@U?$default_delete@U?$binding@V?$basic_string_view@DU?$char_traits@D@std@@@std@@P8ImVec3@@BEMXZU3@@u_detail@sol@@@std@@@std@@QAE@XZ 100e5440 f i lua.obj
 0001:000e4440       ??1?$unique_ptr@U?$binding@V?$basic_string_view@DU?$char_traits@D@std@@@std@@P8cvar_t@valve@nem@@AEHXZU345@@u_detail@sol@@U?$default_delete@U?$binding@V?$basic_string_view@DU?$char_traits@D@std@@@std@@P8cvar_t@valve@nem@@AEHXZU345@@u_detail@sol@@@std@@@std@@QAE@XZ 100e5440 f i lua.obj
 0001:000e4440       ??1?$unique_ptr@U?$binding@V?$basic_string_view@DU?$char_traits@D@std@@@std@@P8cvar_t@valve@nem@@AEMXZU345@@u_detail@sol@@U?$default_delete@U?$binding@V?$basic_string_view@DU?$char_traits@D@std@@@std@@P8cvar_t@valve@nem@@AEMXZU345@@u_detail@sol@@@std@@@std@@QAE@XZ 100e5440 f i lua.obj
 0001:000e4440       ??1?$unique_ptr@U?$binding@V?$basic_string_view@DU?$char_traits@D@std@@@std@@P8cvar_t@valve@nem@@AEPBDXZU345@@u_detail@sol@@U?$default_delete@U?$binding@V?$basic_string_view@DU?$char_traits@D@std@@@std@@P8cvar_t@valve@nem@@AEPBDXZU345@@u_detail@sol@@@std@@@std@@QAE@XZ 100e5440 f i lua.obj
 0001:000e4440       ??1?$unique_ptr@U?$binding@V?$basic_string_view@DU?$char_traits@D@std@@@std@@P8cvar_t@valve@nem@@AEXH@ZU345@@u_detail@sol@@U?$default_delete@U?$binding@V?$basic_string_view@DU?$char_traits@D@std@@@std@@P8cvar_t@valve@nem@@AEXH@ZU345@@u_detail@sol@@@std@@@std@@QAE@XZ 100e5440 f i lua.obj
 0001:000e4440       ??1?$unique_ptr@U?$binding@V?$basic_string_view@DU?$char_traits@D@std@@@std@@P8cvar_t@valve@nem@@AEXM@ZU345@@u_detail@sol@@U?$default_delete@U?$binding@V?$basic_string_view@DU?$char_traits@D@std@@@std@@P8cvar_t@valve@nem@@AEXM@ZU345@@u_detail@sol@@@std@@@std@@QAE@XZ 100e5440 f i lua.obj
 0001:000e4440       ??1?$unique_ptr@U?$binding@V?$basic_string_view@DU?$char_traits@D@std@@@std@@P8cvar_t@valve@nem@@AEXPBD@ZU345@@u_detail@sol@@U?$default_delete@U?$binding@V?$basic_string_view@DU?$char_traits@D@std@@@std@@P8cvar_t@valve@nem@@AEXPBD@ZU345@@u_detail@sol@@@std@@@std@@QAE@XZ 100e5440 f i lua.obj
 0001:000e4440       ??1?$unique_ptr@U?$binding@V?$basic_string_view@DU?$char_traits@D@std@@@std@@PQImVec3@@MU3@@u_detail@sol@@U?$default_delete@U?$binding@V?$basic_string_view@DU?$char_traits@D@std@@@std@@PQImVec3@@MU3@@u_detail@sol@@@std@@@std@@QAE@XZ 100e5440 f i lua.obj
 0001:000e4440       ??1?$unique_ptr@U?$binding@V?$basic_string_view@DU?$char_traits@D@std@@@std@@PQlua_user_cmd_t@nem@@HU34@@u_detail@sol@@U?$default_delete@U?$binding@V?$basic_string_view@DU?$char_traits@D@std@@@std@@PQlua_user_cmd_t@nem@@HU34@@u_detail@sol@@@std@@@std@@QAE@XZ 100e5440 f i lua.obj
 0001:000e4440       ??1?$unique_ptr@U?$binding@V?$basic_string_view@DU?$char_traits@D@std@@@std@@PQlua_user_cmd_t@nem@@MU34@@u_detail@sol@@U?$default_delete@U?$binding@V?$basic_string_view@DU?$char_traits@D@std@@@std@@PQlua_user_cmd_t@nem@@MU34@@u_detail@sol@@@std@@@std@@QAE@XZ 100e5440 f i lua.obj
 0001:000e4440       ??1?$unique_ptr@U?$binding@V?$basic_string_view@DU?$char_traits@D@std@@@std@@PQlua_user_cmd_t@nem@@_NU34@@u_detail@sol@@U?$default_delete@U?$binding@V?$basic_string_view@DU?$char_traits@D@std@@@std@@PQlua_user_cmd_t@nem@@_NU34@@u_detail@sol@@@std@@@std@@QAE@XZ 100e5440 f i lua.obj
 0001:000e4440       ??1?$unique_ptr@U?$binding@W4meta_function@sol@@U?$constructor_list@$$A6A?AUImVec3@@XZ$$A6A?AU1@MMM@Z@2@UImVec3@@@u_detail@sol@@U?$default_delete@U?$binding@W4meta_function@sol@@U?$constructor_list@$$A6A?AUImVec3@@XZ$$A6A?AU1@MMM@Z@2@UImVec3@@@u_detail@sol@@@std@@@std@@QAE@XZ 100e5440 f i lua.obj
 0001:000e4440       ??1?$unique_ptr@U?$binding@W4meta_function@sol@@U?$constructor_list@$$A6A?AUImVec3@@XZ@2@UImVec3@@@u_detail@sol@@U?$default_delete@U?$binding@W4meta_function@sol@@U?$constructor_list@$$A6A?AUImVec3@@XZ@2@UImVec3@@@u_detail@sol@@@std@@@std@@QAE@XZ 100e5440 f i lua.obj
 0001:000e4440       ??1?$unique_ptr@U?$binding@W4meta_function@sol@@U?$constructor_list@$$A6A?AUcol_t@@XZ$$A6A?AU1@HHH@Z$$A6A?AU1@HHHH@Z@2@Ucol_t@@@u_detail@sol@@U?$default_delete@U?$binding@W4meta_function@sol@@U?$constructor_list@$$A6A?AUcol_t@@XZ$$A6A?AU1@HHH@Z$$A6A?AU1@HHHH@Z@2@Ucol_t@@@u_detail@sol@@@std@@@std@@QAE@XZ 100e5440 f i lua.obj
 0001:000e4440       ??1?$unique_ptr@U?$binding@W4meta_function@sol@@U?$constructor_list@$$A6A?AUcol_t@@XZ@2@Ucol_t@@@u_detail@sol@@U?$default_delete@U?$binding@W4meta_function@sol@@U?$constructor_list@$$A6A?AUcol_t@@XZ@2@Ucol_t@@@u_detail@sol@@@std@@@std@@QAE@XZ 100e5440 f i lua.obj
 0001:000e4440       ??1?$unique_ptr@U?$binding@W4meta_function@sol@@U?$constructor_list@$$A6A?AUcvar_t@valve@nem@@XZ@2@Ucvar_t@valve@nem@@@u_detail@sol@@U?$default_delete@U?$binding@W4meta_function@sol@@U?$constructor_list@$$A6A?AUcvar_t@valve@nem@@XZ@2@Ucvar_t@valve@nem@@@u_detail@sol@@@std@@@std@@QAE@XZ 100e5440 f i lua.obj
 0001:000e4440       ??1?$unique_ptr@U?$binding@W4meta_function@sol@@U?$constructor_list@$$A6A?AUlua_user_cmd_t@nem@@XZ@2@Ulua_user_cmd_t@nem@@@u_detail@sol@@U?$default_delete@U?$binding@W4meta_function@sol@@U?$constructor_list@$$A6A?AUlua_user_cmd_t@nem@@XZ@2@Ulua_user_cmd_t@nem@@@u_detail@sol@@@std@@@std@@QAE@XZ 100e5440 f i lua.obj
 0001:000e4440       ??1?$unique_ptr@Ubinding_base@u_detail@sol@@U?$default_delete@Ubinding_base@u_detail@sol@@@std@@@std@@QAE@XZ 100e5440 f i lua.obj
 0001:000e4450       ?_Get@?$_Func_impl_no_alloc@P6AXPAVC_Element@@@ZXPAV1@@std@@EBEPBXXZ 100e5450 f i Initializers.obj
 0001:000e4450       ?data@?$binding@V?$basic_string@DU?$char_traits@D@std@@V?$allocator@D@2@@std@@P8col_t@@BEHXZU3@@u_detail@sol@@UAEPAXXZ 100e5450 f i lua.obj
 0001:000e4450       ?data@?$binding@V?$basic_string@DU?$char_traits@D@std@@V?$allocator@D@2@@std@@V?$basic_reference@$0A@@sol@@X@u_detail@sol@@UAEPAXXZ 100e5450 f i lua.obj
 0001:000e4450       ?data@?$binding@V?$basic_string_view@DU?$char_traits@D@std@@@std@@P8ImVec3@@AEAAU3@XZU3@@u_detail@sol@@UAEPAXXZ 100e5450 f i lua.obj
 0001:000e4450       ?data@?$binding@V?$basic_string_view@DU?$char_traits@D@std@@@std@@P8ImVec3@@BEMXZU3@@u_detail@sol@@UAEPAXXZ 100e5450 f i lua.obj
 0001:000e4450       ?data@?$binding@V?$basic_string_view@DU?$char_traits@D@std@@@std@@P8cvar_t@valve@nem@@AEHXZU345@@u_detail@sol@@UAEPAXXZ 100e5450 f i lua.obj
 0001:000e4450       ?data@?$binding@V?$basic_string_view@DU?$char_traits@D@std@@@std@@P8cvar_t@valve@nem@@AEMXZU345@@u_detail@sol@@UAEPAXXZ 100e5450 f i lua.obj
 0001:000e4450       ?data@?$binding@V?$basic_string_view@DU?$char_traits@D@std@@@std@@P8cvar_t@valve@nem@@AEPBDXZU345@@u_detail@sol@@UAEPAXXZ 100e5450 f i lua.obj
 0001:000e4450       ?data@?$binding@V?$basic_string_view@DU?$char_traits@D@std@@@std@@P8cvar_t@valve@nem@@AEXH@ZU345@@u_detail@sol@@UAEPAXXZ 100e5450 f i lua.obj
 0001:000e4450       ?data@?$binding@V?$basic_string_view@DU?$char_traits@D@std@@@std@@P8cvar_t@valve@nem@@AEXM@ZU345@@u_detail@sol@@UAEPAXXZ 100e5450 f i lua.obj
 0001:000e4450       ?data@?$binding@V?$basic_string_view@DU?$char_traits@D@std@@@std@@P8cvar_t@valve@nem@@AEXPBD@ZU345@@u_detail@sol@@UAEPAXXZ 100e5450 f i lua.obj
 0001:000e4450       ?data@?$binding@V?$basic_string_view@DU?$char_traits@D@std@@@std@@PQImVec3@@MU3@@u_detail@sol@@UAEPAXXZ 100e5450 f i lua.obj
 0001:000e4450       ?data@?$binding@V?$basic_string_view@DU?$char_traits@D@std@@@std@@PQlua_user_cmd_t@nem@@HU34@@u_detail@sol@@UAEPAXXZ 100e5450 f i lua.obj
 0001:000e4450       ?data@?$binding@V?$basic_string_view@DU?$char_traits@D@std@@@std@@PQlua_user_cmd_t@nem@@MU34@@u_detail@sol@@UAEPAXXZ 100e5450 f i lua.obj
 0001:000e4450       ?data@?$binding@V?$basic_string_view@DU?$char_traits@D@std@@@std@@PQlua_user_cmd_t@nem@@_NU34@@u_detail@sol@@UAEPAXXZ 100e5450 f i lua.obj
 0001:000e4450       ?data@?$binding@W4meta_function@sol@@U?$constructor_list@$$A6A?AUImVec3@@XZ$$A6A?AU1@MMM@Z@2@UImVec3@@@u_detail@sol@@UAEPAXXZ 100e5450 f i lua.obj
 0001:000e4450       ?data@?$binding@W4meta_function@sol@@U?$constructor_list@$$A6A?AUImVec3@@XZ@2@UImVec3@@@u_detail@sol@@UAEPAXXZ 100e5450 f i lua.obj
 0001:000e4450       ?data@?$binding@W4meta_function@sol@@U?$constructor_list@$$A6A?AUcol_t@@XZ$$A6A?AU1@HHH@Z$$A6A?AU1@HHHH@Z@2@Ucol_t@@@u_detail@sol@@UAEPAXXZ 100e5450 f i lua.obj
 0001:000e4450       ?data@?$binding@W4meta_function@sol@@U?$constructor_list@$$A6A?AUcol_t@@XZ@2@Ucol_t@@@u_detail@sol@@UAEPAXXZ 100e5450 f i lua.obj
 0001:000e4450       ?data@?$binding@W4meta_function@sol@@U?$constructor_list@$$A6A?AUcvar_t@valve@nem@@XZ@2@Ucvar_t@valve@nem@@@u_detail@sol@@UAEPAXXZ 100e5450 f i lua.obj
 0001:000e4450       ?data@?$binding@W4meta_function@sol@@U?$constructor_list@$$A6A?AUlua_user_cmd_t@nem@@XZ@2@Ulua_user_cmd_t@nem@@@u_detail@sol@@UAEPAXXZ 100e5450 f i lua.obj
 0001:000e4460       ??1?$_Alloc_construct_ptr@V?$allocator@U?$_List_node@U?$pair@$$CBV?$basic_string_view@DU?$char_traits@D@std@@@std@@Uindex_call_storage@u_detail@sol@@@std@@PAX@std@@@std@@@std@@QAE@XZ 100e5460 f i lua.obj
 0001:000e4460       ??1?$_List_node_emplace_op2@V?$allocator@U?$_List_node@U?$pair@$$CBV?$basic_string_view@DU?$char_traits@D@std@@@std@@Uindex_call_storage@u_detail@sol@@@std@@PAX@std@@@std@@@std@@QAE@XZ 100e5460 f i lua.obj
 0001:000e4480       ?_Growmap@?$deque@Ucallback_t@c_lua@nem@@V?$allocator@Ucallback_t@c_lua@nem@@@std@@@std@@AAEXI@Z 100e5480 f i lua.obj
 0001:000e4650       ??$?RV?$basic_reference@$0A@@sol@@@?$_Uhash_compare@V?$basic_reference@$0A@@sol@@Ureference_hash@2@Ureference_equals@2@@std@@QBEIABV?$basic_reference@$0A@@sol@@@Z 100e5650 f i lua.obj
 0001:000e46d0       ??$index_call_@$0A@$0A@@?$usertype_storage@UImVec3@@@u_detail@sol@@SAHPAUlua_State@@@Z 100e56d0 f i lua.obj
 0001:000e46d0       ??$index_call_@$0A@$0A@@?$usertype_storage@Ucol_t@@@u_detail@sol@@SAHPAUlua_State@@@Z 100e56d0 f i lua.obj
 0001:000e46d0       ??$index_call_@$0A@$0A@@?$usertype_storage@Ucvar_t@valve@nem@@@u_detail@sol@@SAHPAUlua_State@@@Z 100e56d0 f i lua.obj
 0001:000e46d0       ??$index_call_@$0A@$0A@@?$usertype_storage@Ulua_user_cmd_t@nem@@@u_detail@sol@@SAHPAUlua_State@@@Z 100e56d0 f i lua.obj
 0001:000e46d0       ??$index_call_@$0A@$0A@@?$usertype_storage@X@u_detail@sol@@SAHPAUlua_State@@@Z 100e56d0 f i lua.obj
 0001:000e4700       ??$index_call_@$00$0A@@?$usertype_storage@UImVec3@@@u_detail@sol@@SAHPAUlua_State@@@Z 100e5700 f i lua.obj
 0001:000e4700       ??$index_call_@$00$0A@@?$usertype_storage@Ucol_t@@@u_detail@sol@@SAHPAUlua_State@@@Z 100e5700 f i lua.obj
 0001:000e4700       ??$index_call_@$00$0A@@?$usertype_storage@Ucvar_t@valve@nem@@@u_detail@sol@@SAHPAUlua_State@@@Z 100e5700 f i lua.obj
 0001:000e4700       ??$index_call_@$00$0A@@?$usertype_storage@Ulua_user_cmd_t@nem@@@u_detail@sol@@SAHPAUlua_State@@@Z 100e5700 f i lua.obj
 0001:000e4700       ??$index_call_@$00$0A@@?$usertype_storage@X@u_detail@sol@@SAHPAUlua_State@@@Z 100e5700 f i lua.obj
 0001:000e4730       ??$index_call_@$0A@$00@?$usertype_storage@UImVec3@@@u_detail@sol@@SAHPAUlua_State@@@Z 100e5730 f i lua.obj
 0001:000e4730       ??$index_call_@$0A@$00@?$usertype_storage@Ucol_t@@@u_detail@sol@@SAHPAUlua_State@@@Z 100e5730 f i lua.obj
 0001:000e4730       ??$index_call_@$0A@$00@?$usertype_storage@Ucvar_t@valve@nem@@@u_detail@sol@@SAHPAUlua_State@@@Z 100e5730 f i lua.obj
 0001:000e4730       ??$index_call_@$0A@$00@?$usertype_storage@Ulua_user_cmd_t@nem@@@u_detail@sol@@SAHPAUlua_State@@@Z 100e5730 f i lua.obj
 0001:000e4730       ??$index_call_@$0A@$00@?$usertype_storage@X@u_detail@sol@@SAHPAUlua_State@@@Z 100e5730 f i lua.obj
 0001:000e4760       ??$index_call_@$00$00@?$usertype_storage@UImVec3@@@u_detail@sol@@SAHPAUlua_State@@@Z 100e5760 f i lua.obj
 0001:000e4760       ??$index_call_@$00$00@?$usertype_storage@Ucol_t@@@u_detail@sol@@SAHPAUlua_State@@@Z 100e5760 f i lua.obj
 0001:000e4760       ??$index_call_@$00$00@?$usertype_storage@Ucvar_t@valve@nem@@@u_detail@sol@@SAHPAUlua_State@@@Z 100e5760 f i lua.obj
 0001:000e4760       ??$index_call_@$00$00@?$usertype_storage@Ulua_user_cmd_t@nem@@@u_detail@sol@@SAHPAUlua_State@@@Z 100e5760 f i lua.obj
 0001:000e4760       ??$index_call_@$00$00@?$usertype_storage@X@u_detail@sol@@SAHPAUlua_State@@@Z 100e5760 f i lua.obj
 0001:000e4790       ??$_Find_last@V?$basic_reference@$0A@@sol@@@?$_Hash@V?$_Umap_traits@V?$basic_reference@$0A@@sol@@V12@V?$_Uhash_compare@V?$basic_reference@$0A@@sol@@Ureference_hash@2@Ureference_equals@2@@std@@V?$allocator@U?$pair@$$CBV?$basic_reference@$0A@@sol@@V12@@std@@@4@$0A@@std@@@std@@IBE?AU?$_Hash_find_last_result@PAU?$_List_node@U?$pair@$$CBV?$basic_reference@$0A@@sol@@V12@@std@@PAX@std@@@1@ABV?$basic_reference@$0A@@sol@@I@Z 100e5790 f i lua.obj
 0001:000e4810       ??$register_usertype@UImVec3@@@u_detail@sol@@YAHPAUlua_State@@Uautomagic_enrollments@1@@Z 100e5810 f i lua.obj
 0001:000e4ba0       ??R<lambda_1>@?1???$register_usertype@UImVec3@@@u_detail@sol@@YAHPAUlua_State@@Uautomagic_enrollments@2@@Z@QBE@0W4submetatable_type@12@AAV?$basic_reference@$0A@@2@@Z 100e5ba0 f i lua.obj
 0001:000e5190       ??R<lambda_1>@?1???R0?1???$register_usertype@UImVec3@@@u_detail@sol@@YAHPAUlua_State@@Uautomagic_enrollments@2@@Z@QBE@0W4submetatable_type@12@AAV?$basic_reference@$0A@@2@@Z@QBE@W4meta_function@2@P6AH0@Z@Z 100e6190 f i lua.obj
 0001:000e5190       ??R<lambda_1>@?1???R0?1???$register_usertype@Ucol_t@@@u_detail@sol@@YAHPAUlua_State@@Uautomagic_enrollments@2@@Z@QBE@0W4submetatable_type@12@AAV?$basic_reference@$0A@@2@@Z@QBE@W4meta_function@2@P6AH0@Z@Z 100e6190 f i lua.obj
 0001:000e5190       ??R<lambda_1>@?1???R0?1???$register_usertype@Ucvar_t@valve@nem@@@u_detail@sol@@YAHPAUlua_State@@Uautomagic_enrollments@2@@Z@QBE@0W4submetatable_type@12@AAV?$basic_reference@$0A@@2@@Z@QBE@W4meta_function@2@P6AH0@Z@Z 100e6190 f i lua.obj
 0001:000e5190       ??R<lambda_1>@?1???R0?1???$register_usertype@Ulua_user_cmd_t@nem@@@u_detail@sol@@YAHPAUlua_State@@Uautomagic_enrollments@2@@Z@QBE@0W4submetatable_type@12@AAV?$basic_reference@$0A@@2@@Z@QBE@W4meta_function@2@P6AH0@Z@Z 100e6190 f i lua.obj
 0001:000e5240       ??$maybe_get_usertype_storage@UImVec3@@@u_detail@sol@@YA?AV?$optional@AAU?$usertype_storage@UImVec3@@@u_detail@sol@@@1@PAUlua_State@@@Z 100e6240 f i lua.obj
 0001:000e52d0       ??$set@V?$basic_string_view@DU?$char_traits@D@std@@@std@@PQImVec3@@M@?$basic_usertype@UImVec3@@V?$basic_reference@$0A@@sol@@@sol@@QAEX$$QAV?$basic_string_view@DU?$char_traits@D@std@@@std@@$$QAPQImVec3@@M@Z 100e62d0 f i lua.obj
 0001:000e53b0       ??$set@V?$basic_string_view@DU?$char_traits@D@std@@@std@@P8ImVec3@@BEMXZ@?$basic_usertype@UImVec3@@V?$basic_reference@$0A@@sol@@@sol@@QAEX$$QAV?$basic_string_view@DU?$char_traits@D@std@@@std@@$$QAP8ImVec3@@BEMXZ@Z 100e63b0 f i lua.obj
 0001:000e54e0       ??$register_usertype@Ucol_t@@@u_detail@sol@@YAHPAUlua_State@@Uautomagic_enrollments@1@@Z 100e64e0 f i lua.obj
 0001:000e5870       ??R<lambda_1>@?1???$register_usertype@Ucol_t@@@u_detail@sol@@YAHPAUlua_State@@Uautomagic_enrollments@2@@Z@QBE@0W4submetatable_type@12@AAV?$basic_reference@$0A@@2@@Z 100e6870 f i lua.obj
 0001:000e5ec0       ??$maybe_get_usertype_storage@Ucol_t@@@u_detail@sol@@YA?AV?$optional@AAU?$usertype_storage@Ucol_t@@@u_detail@sol@@@1@PAUlua_State@@@Z 100e6ec0 f i lua.obj
 0001:000e5f50       ??$set@V?$basic_string@DU?$char_traits@D@std@@V?$allocator@D@2@@std@@P8col_t@@BEHXZ@?$basic_usertype@Ucol_t@@V?$basic_reference@$0A@@sol@@@sol@@QAEX$$QAV?$basic_string@DU?$char_traits@D@std@@V?$allocator@D@2@@std@@$$QAP8col_t@@BEHXZ@Z 100e6f50 f i lua.obj
 0001:000e6060       ??$register_usertype@Ucvar_t@valve@nem@@@u_detail@sol@@YAHPAUlua_State@@Uautomagic_enrollments@1@@Z 100e7060 f i lua.obj
 0001:000e63f0       ??R<lambda_1>@?1???$register_usertype@Ucvar_t@valve@nem@@@u_detail@sol@@YAHPAUlua_State@@Uautomagic_enrollments@2@@Z@QBE@0W4submetatable_type@12@AAV?$basic_reference@$0A@@2@@Z 100e73f0 f i lua.obj
 0001:000e6a40       ??$register_usertype@Ulua_user_cmd_t@nem@@@u_detail@sol@@YAHPAUlua_State@@Uautomagic_enrollments@1@@Z 100e7a40 f i lua.obj
 0001:000e6dd0       ??R<lambda_1>@?1???$register_usertype@Ulua_user_cmd_t@nem@@@u_detail@sol@@YAHPAUlua_State@@Uautomagic_enrollments@2@@Z@QBE@0W4submetatable_type@12@AAV?$basic_reference@$0A@@2@@Z 100e7dd0 f i lua.obj
 0001:000e7420       ??$set@V?$basic_string_view@DU?$char_traits@D@std@@@std@@PQlua_user_cmd_t@nem@@H@?$basic_usertype@Ulua_user_cmd_t@nem@@V?$basic_reference@$0A@@sol@@@sol@@QAEX$$QAV?$basic_string_view@DU?$char_traits@D@std@@@std@@$$QAPQlua_user_cmd_t@nem@@H@Z 100e8420 f i lua.obj
 0001:000e7500       ??$set@V?$basic_string_view@DU?$char_traits@D@std@@@std@@PQlua_user_cmd_t@nem@@M@?$basic_usertype@Ulua_user_cmd_t@nem@@V?$basic_reference@$0A@@sol@@@sol@@QAEX$$QAV?$basic_string_view@DU?$char_traits@D@std@@@std@@$$QAPQlua_user_cmd_t@nem@@M@Z 100e8500 f i lua.obj
 0001:000e75e0       ??$set@V?$basic_string_view@DU?$char_traits@D@std@@@std@@PQlua_user_cmd_t@nem@@_N@?$basic_usertype@Ulua_user_cmd_t@nem@@V?$basic_reference@$0A@@sol@@@sol@@QAEX$$QAV?$basic_string_view@DU?$char_traits@D@std@@@std@@$$QAPQlua_user_cmd_t@nem@@_N@Z 100e85e0 f i lua.obj
 0001:000e76c0       ??$_Find@V?$basic_string_view@DU?$char_traits@D@std@@@std@@@?$_Hash@V?$_Umap_traits@V?$basic_string_view@DU?$char_traits@D@std@@@std@@Uindex_call_storage@u_detail@sol@@V?$_Uhash_compare@V?$basic_string_view@DU?$char_traits@D@std@@@std@@U?$hash@V?$basic_string_view@DU?$char_traits@D@std@@@std@@@2@U?$equal_to@V?$basic_string_view@DU?$char_traits@D@std@@@std@@@2@@2@V?$allocator@U?$pair@$$CBV?$basic_string_view@DU?$char_traits@D@std@@@std@@Uindex_call_storage@u_detail@sol@@@std@@@2@$0A@@std@@@std@@ABEPAU?$_List_node@U?$pair@$$CBV?$basic_string_view@DU?$char_traits@D@std@@@std@@Uindex_call_storage@u_detail@sol@@@std@@PAX@1@ABV?$basic_string_view@DU?$char_traits@D@std@@@1@I@Z 100e86c0 f i lua.obj
 0001:000e76f0       ??1?$_List_node_emplace_op2@V?$allocator@U?$_List_node@U?$pair@$$CBV?$basic_reference@$0A@@sol@@V12@@std@@PAX@std@@@std@@@std@@QAE@XZ 100e86f0 f i lua.obj
 0001:000e7750       ??R?$_Conditionally_enabled_hash@V?$basic_string_view@DU?$char_traits@D@std@@@std@@$00@std@@SAIABV?$basic_string_view@DU?$char_traits@D@std@@@1@@Z 100e8750 f i lua.obj
 0001:000e7790       ?_Forced_rehash@?$_Hash@V?$_Umap_traits@V?$basic_string_view@DU?$char_traits@D@std@@@std@@Uindex_call_storage@u_detail@sol@@V?$_Uhash_compare@V?$basic_string_view@DU?$char_traits@D@std@@@std@@U?$hash@V?$basic_string_view@DU?$char_traits@D@std@@@std@@@2@U?$equal_to@V?$basic_string_view@DU?$char_traits@D@std@@@std@@@2@@2@V?$allocator@U?$pair@$$CBV?$basic_string_view@DU?$char_traits@D@std@@@std@@Uindex_call_storage@u_detail@sol@@@std@@@2@$0A@@std@@@std@@IAEXI@Z 100e8790 f i lua.obj
 0001:000e78f0       ??4?$basic_reference@$0A@@sol@@QAEAAV01@ABV01@@Z 100e88f0 f i lua.obj
 0001:000e79e0       ??_E?$binding@V?$basic_string@DU?$char_traits@D@std@@V?$allocator@D@2@@std@@V?$basic_reference@$0A@@sol@@X@u_detail@sol@@UAEPAXI@Z 100e89e0 f i * CIL library *:* CIL module *
 0001:000e79e0       ??_G?$binding@V?$basic_string@DU?$char_traits@D@std@@V?$allocator@D@2@@std@@V?$basic_reference@$0A@@sol@@X@u_detail@sol@@UAEPAXI@Z 100e89e0 f i lua.obj
 0001:000e7a30       ??$self_index_call@$0A@$0A@$0A@$$V@usertype_storage_base@u_detail@sol@@SAHU?$types@$$V@2@PAUlua_State@@AAU012@@Z 100e8a30 f i lua.obj
 0001:000e7b20       ??$self_index_call@$00$0A@$0A@$$V@usertype_storage_base@u_detail@sol@@SAHU?$types@$$V@2@PAUlua_State@@AAU012@@Z 100e8b20 f i lua.obj
 0001:000e7c70       ??$self_index_call@$0A@$0A@$00$$V@usertype_storage_base@u_detail@sol@@SAHU?$types@$$V@2@PAUlua_State@@AAU012@@Z 100e8c70 f i lua.obj
 0001:000e7d60       ??$self_index_call@$00$0A@$00$$V@usertype_storage_base@u_detail@sol@@SAHU?$types@$$V@2@PAUlua_State@@AAU012@@Z 100e8d60 f i lua.obj
 0001:000e7eb0       ??$?RV?$basic_reference@$0A@@sol@@V01@@?$_Uhash_compare@V?$basic_reference@$0A@@sol@@Ureference_hash@2@Ureference_equals@2@@std@@QBE_NABV?$basic_reference@$0A@@sol@@0@Z 100e8eb0 f i lua.obj
 0001:000e7f40       ??$create_usertype_storage@UImVec3@@@u_detail@sol@@YAAAU?$usertype_storage@UImVec3@@@01@PAUlua_State@@@Z 100e8f40 f i lua.obj
 0001:000e8070       ??$set_field@$0A@$0A@W4submetatable_type@u_detail@sol@@PBD@stack@sol@@YAXPAUlua_State@@$$QAW4submetatable_type@u_detail@1@$$QAPBDH@Z 100e9070 f i lua.obj
 0001:000e80f0       ??$demangle@UImVec3@@@detail@sol@@YAABV?$basic_string@DU?$char_traits@D@std@@V?$allocator@D@2@@std@@XZ 100e90f0 f i lua.obj
 0001:000e81c0       ??$is_check@UImVec3@@@detail@sol@@YAHPAUlua_State@@@Z 100e91c0 f i lua.obj
 0001:000e8220       ??$unique_destruct@UImVec3@@@detail@sol@@YAHPAUlua_State@@@Z 100e9220 f i lua.obj
 0001:000e8220       ??$unique_destruct@Ucol_t@@@detail@sol@@YAHPAUlua_State@@@Z 100e9220 f i lua.obj
 0001:000e8220       ??$unique_destruct@Ucvar_t@valve@nem@@@detail@sol@@YAHPAUlua_State@@@Z 100e9220 f i lua.obj
 0001:000e8220       ??$unique_destruct@Ulua_user_cmd_t@nem@@@detail@sol@@YAHPAUlua_State@@@Z 100e9220 f i lua.obj
 0001:000e8260       ??$insert_default_registrations@UImVec3@@AAV<lambda_1>@?1???R2?1???$register_usertype@UImVec3@@@u_detail@sol@@YAHPAUlua_State@@Uautomagic_enrollments@4@@Z@QBE@0W4submetatable_type@34@AAV?$basic_reference@$0A@@4@@Z@AAUproperties_enrollment_allowed@detail@4@@detail@sol@@YAXAAV<lambda_1>@?1???R2?1???$register_usertype@UImVec3@@@u_detail@1@YAHPAUlua_State@@Uautomagic_enrollments@1@@Z@QBE@0W4submetatable_type@31@AAV?$basic_reference@$0A@@1@@Z@AAUproperties_enrollment_allowed@01@@Z 100e9260 f i lua.obj
 0001:000e8370       ??$set@UImVec3@@W4meta_function@sol@@U?$constructor_list@$$A6A?AUImVec3@@XZ$$A6A?AU1@MMM@Z@3@@usertype_storage_base@u_detail@sol@@QAEXPAUlua_State@@$$QAW4meta_function@2@$$QAU?$constructor_list@$$A6A?AUImVec3@@XZ$$A6A?AU1@MMM@Z@2@@Z 100e9370 f i lua.obj
 0001:000e8950       ??$create_usertype_storage@Ucol_t@@@u_detail@sol@@YAAAU?$usertype_storage@Ucol_t@@@01@PAUlua_State@@@Z 100e9950 f i lua.obj
 0001:000e8a80       ??$demangle@Ucol_t@@@detail@sol@@YAABV?$basic_string@DU?$char_traits@D@std@@V?$allocator@D@2@@std@@XZ 100e9a80 f i lua.obj
 0001:000e8b50       ??$is_check@Ucol_t@@@detail@sol@@YAHPAUlua_State@@@Z 100e9b50 f i lua.obj
 0001:000e8bb0       ??$set@Ucol_t@@W4meta_function@sol@@U?$constructor_list@$$A6A?AUcol_t@@XZ$$A6A?AU1@HHH@Z$$A6A?AU1@HHHH@Z@3@@usertype_storage_base@u_detail@sol@@QAEXPAUlua_State@@$$QAW4meta_function@2@$$QAU?$constructor_list@$$A6A?AUcol_t@@XZ$$A6A?AU1@HHH@Z$$A6A?AU1@HHHH@Z@2@@Z 100e9bb0 f i lua.obj
 0001:000e9190       ??$create_usertype_storage@Ucvar_t@valve@nem@@@u_detail@sol@@YAAAU?$usertype_storage@Ucvar_t@valve@nem@@@01@PAUlua_State@@@Z 100ea190 f i lua.obj
 0001:000e92c0       ??$demangle@Ucvar_t@valve@nem@@@detail@sol@@YAABV?$basic_string@DU?$char_traits@D@std@@V?$allocator@D@2@@std@@XZ 100ea2c0 f i lua.obj
 0001:000e9390       ??$is_check@Ucvar_t@valve@nem@@@detail@sol@@YAHPAUlua_State@@@Z 100ea390 f i lua.obj
 0001:000e93f0       ??$maybe_get_usertype_storage@Ucvar_t@valve@nem@@@u_detail@sol@@YA?AV?$optional@AAU?$usertype_storage@Ucvar_t@valve@nem@@@u_detail@sol@@@1@PAUlua_State@@@Z 100ea3f0 f i lua.obj
 0001:000e9480       ??$create_usertype_storage@Ulua_user_cmd_t@nem@@@u_detail@sol@@YAAAU?$usertype_storage@Ulua_user_cmd_t@nem@@@01@PAUlua_State@@@Z 100ea480 f i lua.obj
 0001:000e95b0       ??$maybe_get_usertype_storage@Ulua_user_cmd_t@nem@@@u_detail@sol@@YA?AV?$optional@AAU?$usertype_storage@Ulua_user_cmd_t@nem@@@u_detail@sol@@@1@PAUlua_State@@@Z 100ea5b0 f i lua.obj
 0001:000e9640       ??$_Emplace_reallocate@V?$unique_ptr@Ubinding_base@u_detail@sol@@U?$default_delete@Ubinding_base@u_detail@sol@@@std@@@std@@@?$vector@V?$unique_ptr@Ubinding_base@u_detail@sol@@U?$default_delete@Ubinding_base@u_detail@sol@@@std@@@std@@V?$allocator@V?$unique_ptr@Ubinding_base@u_detail@sol@@U?$default_delete@Ubinding_base@u_detail@sol@@@std@@@std@@@2@@std@@AAEPAV?$unique_ptr@Ubinding_base@u_detail@sol@@U?$default_delete@Ubinding_base@u_detail@sol@@@std@@@1@QAV21@$$QAV21@@Z 100ea640 f i lua.obj
 0001:000e9800       ?type_cast@?$inheritance@Ulua_user_cmd_t@nem@@@detail@sol@@SAPAXPAXABV?$basic_string_view@DU?$char_traits@D@std@@@std@@@Z 100ea800 f i lua.obj
 0001:000e98a0       ?type_check@?$inheritance@Ulua_user_cmd_t@nem@@@detail@sol@@SA_NABV?$basic_string_view@DU?$char_traits@D@std@@@std@@@Z 100ea8a0 f i lua.obj
 0001:000e9930       ?metatable@?$usertype_traits@PBUlua_user_cmd_t@nem@@@sol@@SAABV?$basic_string@DU?$char_traits@D@std@@V?$allocator@D@2@@std@@XZ 100ea930 f i lua.obj
 0001:000e9ab0       ?metatable@?$usertype_traits@$$CBUlua_user_cmd_t@nem@@@sol@@SAABV?$basic_string@DU?$char_traits@D@std@@V?$allocator@D@2@@std@@XZ 100eaab0 f i lua.obj
 0001:000e9c40       ?gc_table@?$usertype_traits@Ulua_user_cmd_t@nem@@@sol@@SAABV?$basic_string@DU?$char_traits@D@std@@V?$allocator@D@2@@std@@XZ 100eac40 f i lua.obj
 0001:000e9d50       ?user_metatable@?$usertype_traits@Ulua_user_cmd_t@nem@@@sol@@SAABV?$basic_string@DU?$char_traits@D@std@@V?$allocator@D@2@@std@@XZ 100ead50 f i lua.obj
 0001:000e9e60       ?type_cast@?$inheritance@Ucvar_t@valve@nem@@@detail@sol@@SAPAXPAXABV?$basic_string_view@DU?$char_traits@D@std@@@std@@@Z 100eae60 f i lua.obj
 0001:000e9f00       ?type_check@?$inheritance@Ucvar_t@valve@nem@@@detail@sol@@SA_NABV?$basic_string_view@DU?$char_traits@D@std@@@std@@@Z 100eaf00 f i lua.obj
 0001:000e9f90       ?metatable@?$usertype_traits@PBUcvar_t@valve@nem@@@sol@@SAABV?$basic_string@DU?$char_traits@D@std@@V?$allocator@D@2@@std@@XZ 100eaf90 f i lua.obj
 0001:000ea120       ?metatable@?$usertype_traits@PAUcvar_t@valve@nem@@@sol@@SAABV?$basic_string@DU?$char_traits@D@std@@V?$allocator@D@2@@std@@XZ 100eb120 f i lua.obj
 0001:000ea220       ?metatable@?$usertype_traits@U?$unique_usertype@Ucvar_t@valve@nem@@@detail@sol@@@sol@@SAABV?$basic_string@DU?$char_traits@D@std@@V?$allocator@D@2@@std@@XZ 100eb220 f i lua.obj
 0001:000ea3a0       ?metatable@?$usertype_traits@$$CBUcvar_t@valve@nem@@@sol@@SAABV?$basic_string@DU?$char_traits@D@std@@V?$allocator@D@2@@std@@XZ 100eb3a0 f i lua.obj
 0001:000ea520       ?gc_table@?$usertype_traits@Ucvar_t@valve@nem@@@sol@@SAABV?$basic_string@DU?$char_traits@D@std@@V?$allocator@D@2@@std@@XZ 100eb520 f i lua.obj
 0001:000ea630       ?user_metatable@?$usertype_traits@Ucvar_t@valve@nem@@@sol@@SAABV?$basic_string@DU?$char_traits@D@std@@V?$allocator@D@2@@std@@XZ 100eb630 f i lua.obj
 0001:000ea740       ?metatable@?$usertype_traits@Ucvar_t@valve@nem@@@sol@@SAABV?$basic_string@DU?$char_traits@D@std@@V?$allocator@D@2@@std@@XZ 100eb740 f i lua.obj
 0001:000ea840       ?type_cast@?$inheritance@Ucol_t@@@detail@sol@@SAPAXPAXABV?$basic_string_view@DU?$char_traits@D@std@@@std@@@Z 100eb840 f i lua.obj
 0001:000ea8e0       ?type_check@?$inheritance@Ucol_t@@@detail@sol@@SA_NABV?$basic_string_view@DU?$char_traits@D@std@@@std@@@Z 100eb8e0 f i lua.obj
 0001:000ea970       ?metatable@?$usertype_traits@PBUcol_t@@@sol@@SAABV?$basic_string@DU?$char_traits@D@std@@V?$allocator@D@2@@std@@XZ 100eb970 f i lua.obj
 0001:000eaaf0       ?metatable@?$usertype_traits@PAUcol_t@@@sol@@SAABV?$basic_string@DU?$char_traits@D@std@@V?$allocator@D@2@@std@@XZ 100ebaf0 f i lua.obj
 0001:000eac70       ?metatable@?$usertype_traits@U?$unique_usertype@Ucol_t@@@detail@sol@@@sol@@SAABV?$basic_string@DU?$char_traits@D@std@@V?$allocator@D@2@@std@@XZ 100ebc70 f i lua.obj
 0001:000eadf0       ?metatable@?$usertype_traits@$$CBUcol_t@@@sol@@SAABV?$basic_string@DU?$char_traits@D@std@@V?$allocator@D@2@@std@@XZ 100ebdf0 f i lua.obj
 0001:000eaf70       ?gc_table@?$usertype_traits@Ucol_t@@@sol@@SAABV?$basic_string@DU?$char_traits@D@std@@V?$allocator@D@2@@std@@XZ 100ebf70 f i lua.obj
 0001:000eb080       ?user_metatable@?$usertype_traits@Ucol_t@@@sol@@SAABV?$basic_string@DU?$char_traits@D@std@@V?$allocator@D@2@@std@@XZ 100ec080 f i lua.obj
 0001:000eb190       ?metatable@?$usertype_traits@Ucol_t@@@sol@@SAABV?$basic_string@DU?$char_traits@D@std@@V?$allocator@D@2@@std@@XZ 100ec190 f i lua.obj
 0001:000eb290       ?type_cast@?$inheritance@UImVec3@@@detail@sol@@SAPAXPAXABV?$basic_string_view@DU?$char_traits@D@std@@@std@@@Z 100ec290 f i lua.obj
 0001:000eb330       ?type_check@?$inheritance@UImVec3@@@detail@sol@@SA_NABV?$basic_string_view@DU?$char_traits@D@std@@@std@@@Z 100ec330 f i lua.obj
 0001:000eb3c0       ?metatable@?$usertype_traits@PBUImVec3@@@sol@@SAABV?$basic_string@DU?$char_traits@D@std@@V?$allocator@D@2@@std@@XZ 100ec3c0 f i lua.obj
 0001:000eb550       ?metatable@?$usertype_traits@PAUImVec3@@@sol@@SAABV?$basic_string@DU?$char_traits@D@std@@V?$allocator@D@2@@std@@XZ 100ec550 f i lua.obj
 0001:000eb650       ?metatable@?$usertype_traits@U?$unique_usertype@UImVec3@@@detail@sol@@@sol@@SAABV?$basic_string@DU?$char_traits@D@std@@V?$allocator@D@2@@std@@XZ 100ec650 f i lua.obj
 0001:000eb7d0       ?metatable@?$usertype_traits@$$CBUImVec3@@@sol@@SAABV?$basic_string@DU?$char_traits@D@std@@V?$allocator@D@2@@std@@XZ 100ec7d0 f i lua.obj
 0001:000eb950       ?gc_table@?$usertype_traits@UImVec3@@@sol@@SAABV?$basic_string@DU?$char_traits@D@std@@V?$allocator@D@2@@std@@XZ 100ec950 f i lua.obj
 0001:000eba60       ?user_metatable@?$usertype_traits@UImVec3@@@sol@@SAABV?$basic_string@DU?$char_traits@D@std@@V?$allocator@D@2@@std@@XZ 100eca60 f i lua.obj
 0001:000ebb70       ?metatable@?$usertype_traits@UImVec3@@@sol@@SAABV?$basic_string@DU?$char_traits@D@std@@V?$allocator@D@2@@std@@XZ 100ecb70 f i lua.obj
 0001:000ebc70       ?_Forced_rehash@?$_Hash@V?$_Umap_traits@V?$basic_reference@$0A@@sol@@V12@V?$_Uhash_compare@V?$basic_reference@$0A@@sol@@Ureference_hash@2@Ureference_equals@2@@std@@V?$allocator@U?$pair@$$CBV?$basic_reference@$0A@@sol@@V12@@std@@@4@$0A@@std@@@std@@IAEXI@Z 100ecc70 f i lua.obj
 0001:000ebdc0       ??0?$basic_reference@$0A@@sol@@QAE@PAUlua_State@@ABVstack_reference@1@@Z 100ecdc0 f i lua.obj
 0001:000ebea0       ??$push@U?$closure@$$V@sol@@$$V@stack@sol@@YAHPAUlua_State@@$$QAU?$closure@$$V@1@@Z 100ecea0 f i lua.obj
 0001:000ebec0       ??$destruct_usertype_storage@UImVec3@@@u_detail@sol@@YAHPAUlua_State@@@Z 100ecec0 f i lua.obj
 0001:000ebec0       ??$destruct_usertype_storage@Ucol_t@@@u_detail@sol@@YAHPAUlua_State@@@Z 100ecec0 f i lua.obj
 0001:000ebec0       ??$destruct_usertype_storage@Ucvar_t@valve@nem@@@u_detail@sol@@YAHPAUlua_State@@@Z 100ecec0 f i lua.obj
 0001:000ebec0       ??$destruct_usertype_storage@Ulua_user_cmd_t@nem@@@u_detail@sol@@YAHPAUlua_State@@@Z 100ecec0 f i lua.obj
 0001:000ebef0       ??$comparsion_operator_wrap@UImVec3@@U?$less@X@std@@@detail@sol@@YAHPAUlua_State@@@Z 100ecef0 f i lua.obj
 0001:000ebfa0       ??$unqualified_check_get@UImVec3@@@stack@sol@@YA?A_TPAUlua_State@@H@Z 100ecfa0 f i lua.obj
 0001:000ec040       ??$comparsion_operator_wrap@UImVec3@@U?$less_equal@X@std@@@detail@sol@@YAHPAUlua_State@@@Z 100ed040 f i lua.obj
 0001:000ec110       ??$comparsion_operator_wrap@UImVec3@@Uno_comp@detail@sol@@@detail@sol@@YAHPAUlua_State@@@Z 100ed110 f i lua.obj
 0001:000ec180       ??$set@UImVec3@@W4meta_function@sol@@U?$constructor_list@$$A6A?AUImVec3@@XZ@3@@usertype_storage_base@u_detail@sol@@QAEXPAUlua_State@@$$QAW4meta_function@2@$$QAU?$constructor_list@$$A6A?AUImVec3@@XZ@2@@Z 100ed180 f i lua.obj
 0001:000ec780       ??$call_with_@$00$0A@@?$binding@W4meta_function@sol@@U?$constructor_list@$$A6A?AUImVec3@@XZ$$A6A?AU1@MMM@Z@2@UImVec3@@@u_detail@sol@@SAHPAUlua_State@@PAX@Z 100ed780 f i lua.obj
 0001:000ec780       ??$call_with_@$0A@$0A@@?$binding@W4meta_function@sol@@U?$constructor_list@$$A6A?AUImVec3@@XZ$$A6A?AU1@MMM@Z@2@UImVec3@@@u_detail@sol@@SAHPAUlua_State@@PAX@Z 100ed780 f i lua.obj
 0001:000ec8d0       ??$index_call_with_@$00$0A@@?$binding@W4meta_function@sol@@U?$constructor_list@$$A6A?AUImVec3@@XZ$$A6A?AU1@MMM@Z@2@UImVec3@@@u_detail@sol@@SAHPAUlua_State@@PAX@Z 100ed8d0 f i lua.obj
 0001:000ec8d0       ??$index_call_with_@$0A@$0A@@?$binding@W4meta_function@sol@@U?$constructor_list@$$A6A?AUImVec3@@XZ$$A6A?AU1@MMM@Z@2@UImVec3@@@u_detail@sol@@SAHPAUlua_State@@PAX@Z 100ed8d0 f i lua.obj
 0001:000ec910       ??$call@$00$0A@@?$binding@W4meta_function@sol@@U?$constructor_list@$$A6A?AUImVec3@@XZ$$A6A?AU1@MMM@Z@2@UImVec3@@@u_detail@sol@@SAHPAUlua_State@@@Z 100ed910 f i lua.obj
 0001:000ec910       ??$call@$0A@$0A@@?$binding@W4meta_function@sol@@U?$constructor_list@$$A6A?AUImVec3@@XZ$$A6A?AU1@MMM@Z@2@UImVec3@@@u_detail@sol@@SAHPAUlua_State@@@Z 100ed910 f i lua.obj
 0001:000ec960       ??$set@UImVec3@@V?$basic_string_view@DU?$char_traits@D@std@@@std@@PQ1@M@usertype_storage_base@u_detail@sol@@QAEXPAUlua_State@@$$QAV?$basic_string_view@DU?$char_traits@D@std@@@std@@$$QAPQImVec3@@M@Z 100ed960 f i lua.obj
 0001:000ecf50       ??$set@UImVec3@@V?$basic_string_view@DU?$char_traits@D@std@@@std@@P81@BEMXZ@usertype_storage_base@u_detail@sol@@QAEXPAUlua_State@@$$QAV?$basic_string_view@DU?$char_traits@D@std@@@std@@$$QAP8ImVec3@@BEMXZ@Z 100edf50 f i lua.obj
 0001:000ed540       ??$set@UImVec3@@V?$basic_string_view@DU?$char_traits@D@std@@@std@@P81@AEAAU1@XZ@usertype_storage_base@u_detail@sol@@QAEXPAUlua_State@@$$QAV?$basic_string_view@DU?$char_traits@D@std@@@std@@$$QAP8ImVec3@@AEAAU6@XZ@Z 100ee540 f i lua.obj
 0001:000edb30       ??$comparsion_operator_wrap@Ucol_t@@U?$equal_to@X@std@@@detail@sol@@YAHPAUlua_State@@@Z 100eeb30 f i lua.obj
 0001:000edba0       ??$unqualified_check_get@Ucol_t@@@stack@sol@@YA?A_TPAUlua_State@@H@Z 100eeba0 f i lua.obj
 0001:000edc40       ??$set@Ucol_t@@W4meta_function@sol@@U?$constructor_list@$$A6A?AUcol_t@@XZ@3@@usertype_storage_base@u_detail@sol@@QAEXPAUlua_State@@$$QAW4meta_function@2@$$QAU?$constructor_list@$$A6A?AUcol_t@@XZ@2@@Z 100eec40 f i lua.obj
 0001:000ee240       ??$call_with_@$00$0A@@?$binding@W4meta_function@sol@@U?$constructor_list@$$A6A?AUcol_t@@XZ$$A6A?AU1@HHH@Z$$A6A?AU1@HHHH@Z@2@Ucol_t@@@u_detail@sol@@SAHPAUlua_State@@PAX@Z 100ef240 f i lua.obj
 0001:000ee240       ??$call_with_@$0A@$0A@@?$binding@W4meta_function@sol@@U?$constructor_list@$$A6A?AUcol_t@@XZ$$A6A?AU1@HHH@Z$$A6A?AU1@HHHH@Z@2@Ucol_t@@@u_detail@sol@@SAHPAUlua_State@@PAX@Z 100ef240 f i lua.obj
 0001:000ee3a0       ??$index_call_with_@$00$0A@@?$binding@W4meta_function@sol@@U?$constructor_list@$$A6A?AUcol_t@@XZ$$A6A?AU1@HHH@Z$$A6A?AU1@HHHH@Z@2@Ucol_t@@@u_detail@sol@@SAHPAUlua_State@@PAX@Z 100ef3a0 f i lua.obj
 0001:000ee3a0       ??$index_call_with_@$0A@$0A@@?$binding@W4meta_function@sol@@U?$constructor_list@$$A6A?AUcol_t@@XZ$$A6A?AU1@HHH@Z$$A6A?AU1@HHHH@Z@2@Ucol_t@@@u_detail@sol@@SAHPAUlua_State@@PAX@Z 100ef3a0 f i lua.obj
 0001:000ee3e0       ??$call@$00$0A@@?$binding@W4meta_function@sol@@U?$constructor_list@$$A6A?AUcol_t@@XZ$$A6A?AU1@HHH@Z$$A6A?AU1@HHHH@Z@2@Ucol_t@@@u_detail@sol@@SAHPAUlua_State@@@Z 100ef3e0 f i lua.obj
 0001:000ee3e0       ??$call@$0A@$0A@@?$binding@W4meta_function@sol@@U?$constructor_list@$$A6A?AUcol_t@@XZ$$A6A?AU1@HHH@Z$$A6A?AU1@HHHH@Z@2@Ucol_t@@@u_detail@sol@@SAHPAUlua_State@@@Z 100ef3e0 f i lua.obj
 0001:000ee430       ??$set@Ucol_t@@V?$basic_string@DU?$char_traits@D@std@@V?$allocator@D@2@@std@@P81@BEHXZ@usertype_storage_base@u_detail@sol@@QAEXPAUlua_State@@$$QAV?$basic_string@DU?$char_traits@D@std@@V?$allocator@D@2@@std@@$$QAP8col_t@@BEHXZ@Z 100ef430 f i lua.obj
 0001:000eea30       ??$comparsion_operator_wrap@Ucvar_t@valve@nem@@Uno_comp@detail@sol@@@detail@sol@@YAHPAUlua_State@@@Z 100efa30 f i lua.obj
 0001:000eeaa0       ??$unqualified_check_get@Ucvar_t@valve@nem@@@stack@sol@@YA?A_TPAUlua_State@@H@Z 100efaa0 f i lua.obj
 0001:000eeb40       ??$set@Ucvar_t@valve@nem@@W4meta_function@sol@@U?$constructor_list@$$A6A?AUcvar_t@valve@nem@@XZ@5@@usertype_storage_base@u_detail@sol@@QAEXPAUlua_State@@$$QAW4meta_function@2@$$QAU?$constructor_list@$$A6A?AUcvar_t@valve@nem@@XZ@2@@Z 100efb40 f i lua.obj
 0001:000ef140       ??$set@Ucvar_t@valve@nem@@V?$basic_string_view@DU?$char_traits@D@std@@@std@@P8123@AEHXZ@usertype_storage_base@u_detail@sol@@QAEXPAUlua_State@@$$QAV?$basic_string_view@DU?$char_traits@D@std@@@std@@$$QAP8cvar_t@valve@nem@@AEHXZ@Z 100f0140 f i lua.obj
 0001:000ef730       ??$set@Ucvar_t@valve@nem@@V?$basic_string_view@DU?$char_traits@D@std@@@std@@P8123@AEMXZ@usertype_storage_base@u_detail@sol@@QAEXPAUlua_State@@$$QAV?$basic_string_view@DU?$char_traits@D@std@@@std@@$$QAP8cvar_t@valve@nem@@AEMXZ@Z 100f0730 f i lua.obj
 0001:000efd20       ??$set@Ucvar_t@valve@nem@@V?$basic_string_view@DU?$char_traits@D@std@@@std@@P8123@AEPBDXZ@usertype_storage_base@u_detail@sol@@QAEXPAUlua_State@@$$QAV?$basic_string_view@DU?$char_traits@D@std@@@std@@$$QAP8cvar_t@valve@nem@@AEPBDXZ@Z 100f0d20 f i lua.obj
 0001:000f0310       ??$set@Ucvar_t@valve@nem@@V?$basic_string_view@DU?$char_traits@D@std@@@std@@P8123@AEXH@Z@usertype_storage_base@u_detail@sol@@QAEXPAUlua_State@@$$QAV?$basic_string_view@DU?$char_traits@D@std@@@std@@$$QAP8cvar_t@valve@nem@@AEXH@Z@Z 100f1310 f i lua.obj
 0001:000f0900       ??$set@Ucvar_t@valve@nem@@V?$basic_string_view@DU?$char_traits@D@std@@@std@@P8123@AEXM@Z@usertype_storage_base@u_detail@sol@@QAEXPAUlua_State@@$$QAV?$basic_string_view@DU?$char_traits@D@std@@@std@@$$QAP8cvar_t@valve@nem@@AEXM@Z@Z 100f1900 f i lua.obj
 0001:000f0ef0       ??$set@Ucvar_t@valve@nem@@V?$basic_string_view@DU?$char_traits@D@std@@@std@@P8123@AEXPBD@Z@usertype_storage_base@u_detail@sol@@QAEXPAUlua_State@@$$QAV?$basic_string_view@DU?$char_traits@D@std@@@std@@$$QAP8cvar_t@valve@nem@@AEXPBD@Z@Z 100f1ef0 f i lua.obj
 0001:000f14e0       ??$set@Ulua_user_cmd_t@nem@@W4meta_function@sol@@U?$constructor_list@$$A6A?AUlua_user_cmd_t@nem@@XZ@4@@usertype_storage_base@u_detail@sol@@QAEXPAUlua_State@@$$QAW4meta_function@2@$$QAU?$constructor_list@$$A6A?AUlua_user_cmd_t@nem@@XZ@2@@Z 100f24e0 f i lua.obj
 0001:000f1ae0       ??$set@Ulua_user_cmd_t@nem@@V?$basic_string_view@DU?$char_traits@D@std@@@std@@PQ12@H@usertype_storage_base@u_detail@sol@@QAEXPAUlua_State@@$$QAV?$basic_string_view@DU?$char_traits@D@std@@@std@@$$QAPQlua_user_cmd_t@nem@@H@Z 100f2ae0 f i lua.obj
 0001:000f20d0       ??$set@Ulua_user_cmd_t@nem@@V?$basic_string_view@DU?$char_traits@D@std@@@std@@PQ12@M@usertype_storage_base@u_detail@sol@@QAEXPAUlua_State@@$$QAV?$basic_string_view@DU?$char_traits@D@std@@@std@@$$QAPQlua_user_cmd_t@nem@@M@Z 100f30d0 f i lua.obj
 0001:000f26c0       ??$set@Ulua_user_cmd_t@nem@@V?$basic_string_view@DU?$char_traits@D@std@@@std@@PQ12@_N@usertype_storage_base@u_detail@sol@@QAEXPAUlua_State@@$$QAV?$basic_string_view@DU?$char_traits@D@std@@@std@@$$QAPQlua_user_cmd_t@nem@@_N@Z 100f36c0 f i lua.obj
 0001:000f2cb0       ??$push@AAH@?$unqualified_pusher@HX@stack@sol@@SAHPAUlua_State@@AAH@Z 100f3cb0 f i lua.obj
 0001:000f2cb0       ??$push@H@?$unqualified_pusher@HX@stack@sol@@SAHPAUlua_State@@$$QAH@Z 100f3cb0 f i lua.obj
 0001:000f2ce0       ??$demangle@PAUcvar_t@valve@nem@@@detail@sol@@YAABV?$basic_string@DU?$char_traits@D@std@@V?$allocator@D@2@@std@@XZ 100f3ce0 f i lua.obj
 0001:000f2db0       ??$demangle@PAUImVec3@@@detail@sol@@YAABV?$basic_string@DU?$char_traits@D@std@@V?$allocator@D@2@@std@@XZ 100f3db0 f i lua.obj
 0001:000f2e80       ?pairs_call@?$u_c_launch@U?$as_container_t@Ucvar_t@valve@nem@@@sol@@@container_detail@sol@@SAHPAUlua_State@@@Z 100f3e80 f i lua.obj
 0001:000f2ed0       ?pairs_call@?$u_c_launch@U?$as_container_t@Ucol_t@@@sol@@@container_detail@sol@@SAHPAUlua_State@@@Z 100f3ed0 f i lua.obj
 0001:000f2f20       ?pairs_call@?$u_c_launch@U?$as_container_t@UImVec3@@@sol@@@container_detail@sol@@SAHPAUlua_State@@@Z 100f3f20 f i lua.obj
 0001:000f2f70       ?find@?$_Hash@V?$_Umap_traits@V?$basic_reference@$0A@@sol@@V12@V?$_Uhash_compare@V?$basic_reference@$0A@@sol@@Ureference_hash@2@Ureference_equals@2@@std@@V?$allocator@U?$pair@$$CBV?$basic_reference@$0A@@sol@@V12@@std@@@4@$0A@@std@@@std@@QAE?AV?$_List_iterator@V?$_List_val@U?$_List_simple_types@U?$pair@$$CBV?$basic_reference@$0A@@sol@@V12@@std@@@std@@@std@@@2@ABV?$basic_reference@$0A@@sol@@@Z 100f3f70 f i lua.obj
 0001:000f3020       ??$push@ABUno_metatable_t@sol@@AAPAUlua_State@@@?$unqualified_pusher@U?$user@U?$usertype_storage@UImVec3@@@u_detail@sol@@@sol@@X@stack@sol@@SAHPAUlua_State@@ABUno_metatable_t@2@AAPAU3@@Z 100f4020 f i lua.obj
 0001:000f3230       ??$user_alloc_destruct@P8ImVec3@@AEAAU1@XZ@detail@sol@@YAHPAUlua_State@@@Z 100f4230 f i lua.obj
 0001:000f3230       ??$user_alloc_destruct@P8ImVec3@@BEMXZ@detail@sol@@YAHPAUlua_State@@@Z 100f4230 f i lua.obj
 0001:000f3230       ??$user_alloc_destruct@P8col_t@@BEHXZ@detail@sol@@YAHPAUlua_State@@@Z 100f4230 f i lua.obj
 0001:000f3230       ??$user_alloc_destruct@P8cvar_t@valve@nem@@AEHXZ@detail@sol@@YAHPAUlua_State@@@Z 100f4230 f i lua.obj
 0001:000f3230       ??$user_alloc_destruct@P8cvar_t@valve@nem@@AEMXZ@detail@sol@@YAHPAUlua_State@@@Z 100f4230 f i lua.obj
 0001:000f3230       ??$user_alloc_destruct@P8cvar_t@valve@nem@@AEPBDXZ@detail@sol@@YAHPAUlua_State@@@Z 100f4230 f i lua.obj
 0001:000f3230       ??$user_alloc_destruct@P8cvar_t@valve@nem@@AEXH@Z@detail@sol@@YAHPAUlua_State@@@Z 100f4230 f i lua.obj
 0001:000f3230       ??$user_alloc_destruct@P8cvar_t@valve@nem@@AEXM@Z@detail@sol@@YAHPAUlua_State@@@Z 100f4230 f i lua.obj
 0001:000f3230       ??$user_alloc_destruct@P8cvar_t@valve@nem@@AEXPBD@Z@detail@sol@@YAHPAUlua_State@@@Z 100f4230 f i lua.obj
 0001:000f3230       ??$user_alloc_destruct@Uiter@?$usertype_container_default@V?$vector@HV?$allocator@H@std@@@std@@X@container_detail@sol@@@detail@sol@@YAHPAUlua_State@@@Z 100f4230 f i lua.obj
 0001:000f3230       ??$usertype_alloc_destruct@UImVec3@@@detail@sol@@YAHPAUlua_State@@@Z 100f4230 f i lua.obj
 0001:000f3230       ??$usertype_alloc_destruct@Ucol_t@@@detail@sol@@YAHPAUlua_State@@@Z 100f4230 f i lua.obj
 0001:000f3230       ??$usertype_alloc_destruct@Ulua_user_cmd_t@nem@@@detail@sol@@YAHPAUlua_State@@@Z 100f4230 f i lua.obj
 0001:000f3250       ??$call_with_@$00$0A@@?$binding@W4meta_function@sol@@U?$constructor_list@$$A6A?AUImVec3@@XZ@2@UImVec3@@@u_detail@sol@@SAHPAUlua_State@@PAX@Z 100f4250 f i lua.obj
 0001:000f3250       ??$call_with_@$0A@$0A@@?$binding@W4meta_function@sol@@U?$constructor_list@$$A6A?AUImVec3@@XZ@2@UImVec3@@@u_detail@sol@@SAHPAUlua_State@@PAX@Z 100f4250 f i lua.obj
 0001:000f33d0       ??$index_call_with_@$00$0A@@?$binding@W4meta_function@sol@@U?$constructor_list@$$A6A?AUImVec3@@XZ@2@UImVec3@@@u_detail@sol@@SAHPAUlua_State@@PAX@Z 100f43d0 f i lua.obj
 0001:000f33d0       ??$index_call_with_@$0A@$0A@@?$binding@W4meta_function@sol@@U?$constructor_list@$$A6A?AUImVec3@@XZ@2@UImVec3@@@u_detail@sol@@SAHPAUlua_State@@PAX@Z 100f43d0 f i lua.obj
 0001:000f3410       ??$call@$00$0A@@?$binding@W4meta_function@sol@@U?$constructor_list@$$A6A?AUImVec3@@XZ@2@UImVec3@@@u_detail@sol@@SAHPAUlua_State@@@Z 100f4410 f i lua.obj
 0001:000f3410       ??$call@$0A@$0A@@?$binding@W4meta_function@sol@@U?$constructor_list@$$A6A?AUImVec3@@XZ@2@UImVec3@@@u_detail@sol@@SAHPAUlua_State@@@Z 100f4410 f i lua.obj
 0001:000f3460       ??$call_with_@$00$00@?$binding@V?$basic_string_view@DU?$char_traits@D@std@@@std@@PQImVec3@@MU3@@u_detail@sol@@SAHPAUlua_State@@PAX@Z 100f4460 f i lua.obj
 0001:000f3460       ??$index_call_with_@$00$00@?$binding@V?$basic_string_view@DU?$char_traits@D@std@@@std@@PQImVec3@@MU3@@u_detail@sol@@SAHPAUlua_State@@PAX@Z 100f4460 f i lua.obj
 0001:000f34c0       ??$call_with_@$0A@$00@?$binding@V?$basic_string_view@DU?$char_traits@D@std@@@std@@PQImVec3@@MU3@@u_detail@sol@@SAHPAUlua_State@@PAX@Z 100f44c0 f i lua.obj
 0001:000f34c0       ??$index_call_with_@$0A@$00@?$binding@V?$basic_string_view@DU?$char_traits@D@std@@@std@@PQImVec3@@MU3@@u_detail@sol@@SAHPAUlua_State@@PAX@Z 100f44c0 f i lua.obj
 0001:000f3520       ??$call@$0A@$00@?$binding@V?$basic_string_view@DU?$char_traits@D@std@@@std@@PQImVec3@@MU3@@u_detail@sol@@SAHPAUlua_State@@@Z 100f4520 f i lua.obj
 0001:000f35b0       ??$call_with_@$00$0A@@?$binding@V?$basic_string_view@DU?$char_traits@D@std@@@std@@P8ImVec3@@BEMXZU3@@u_detail@sol@@SAHPAUlua_State@@PAX@Z 100f45b0 f i lua.obj
 0001:000f35b0       ??$call_with_@$0A@$0A@@?$binding@V?$basic_string_view@DU?$char_traits@D@std@@@std@@P8ImVec3@@BEMXZU3@@u_detail@sol@@SAHPAUlua_State@@PAX@Z 100f45b0 f i lua.obj
 0001:000f3600       ??$index_call_with_@$00$0A@@?$binding@V?$basic_string_view@DU?$char_traits@D@std@@@std@@P8ImVec3@@BEMXZU3@@u_detail@sol@@SAHPAUlua_State@@PAX@Z 100f4600 f i lua.obj
 0001:000f3600       ??$index_call_with_@$0A@$0A@@?$binding@V?$basic_string_view@DU?$char_traits@D@std@@@std@@P8ImVec3@@BEMXZU3@@u_detail@sol@@SAHPAUlua_State@@PAX@Z 100f4600 f i lua.obj
 0001:000f3640       ??$call@$00$0A@@?$binding@V?$basic_string_view@DU?$char_traits@D@std@@@std@@P8ImVec3@@BEMXZU3@@u_detail@sol@@SAHPAUlua_State@@@Z 100f4640 f i lua.obj
 0001:000f3640       ??$call@$0A@$0A@@?$binding@V?$basic_string_view@DU?$char_traits@D@std@@@std@@P8ImVec3@@BEMXZU3@@u_detail@sol@@SAHPAUlua_State@@@Z 100f4640 f i lua.obj
 0001:000f36c0       ??$call_with_@$00$0A@@?$binding@V?$basic_string_view@DU?$char_traits@D@std@@@std@@P8ImVec3@@AEAAU3@XZU3@@u_detail@sol@@SAHPAUlua_State@@PAX@Z 100f46c0 f i lua.obj
 0001:000f36c0       ??$call_with_@$0A@$0A@@?$binding@V?$basic_string_view@DU?$char_traits@D@std@@@std@@P8ImVec3@@AEAAU3@XZU3@@u_detail@sol@@SAHPAUlua_State@@PAX@Z 100f46c0 f i lua.obj
 0001:000f36f0       ??$index_call_with_@$00$0A@@?$binding@V?$basic_string_view@DU?$char_traits@D@std@@@std@@P8ImVec3@@AEAAU3@XZU3@@u_detail@sol@@SAHPAUlua_State@@PAX@Z 100f46f0 f i lua.obj
 0001:000f36f0       ??$index_call_with_@$0A@$0A@@?$binding@V?$basic_string_view@DU?$char_traits@D@std@@@std@@P8ImVec3@@AEAAU3@XZU3@@u_detail@sol@@SAHPAUlua_State@@PAX@Z 100f46f0 f i lua.obj
 0001:000f3730       ??$call@$00$0A@@?$binding@V?$basic_string_view@DU?$char_traits@D@std@@@std@@P8ImVec3@@AEAAU3@XZU3@@u_detail@sol@@SAHPAUlua_State@@@Z 100f4730 f i lua.obj
 0001:000f3730       ??$call@$0A@$0A@@?$binding@V?$basic_string_view@DU?$char_traits@D@std@@@std@@P8ImVec3@@AEAAU3@XZU3@@u_detail@sol@@SAHPAUlua_State@@@Z 100f4730 f i lua.obj
 0001:000f37a0       ??$push@ABUno_metatable_t@sol@@AAPAUlua_State@@@?$unqualified_pusher@U?$user@U?$usertype_storage@Ucol_t@@@u_detail@sol@@@sol@@X@stack@sol@@SAHPAUlua_State@@ABUno_metatable_t@2@AAPAU3@@Z 100f47a0 f i lua.obj
 0001:000f39b0       ??$?RAAUcol_t@@AAU0@@?$equal_to@X@std@@QBE_NAAUcol_t@@0@Z 100f49b0 f i lua.obj
 0001:000f39c0       ??$call_with_@$00$0A@@?$binding@W4meta_function@sol@@U?$constructor_list@$$A6A?AUcol_t@@XZ@2@Ucol_t@@@u_detail@sol@@SAHPAUlua_State@@PAX@Z 100f49c0 f i lua.obj
 0001:000f39c0       ??$call_with_@$0A@$0A@@?$binding@W4meta_function@sol@@U?$constructor_list@$$A6A?AUcol_t@@XZ@2@Ucol_t@@@u_detail@sol@@SAHPAUlua_State@@PAX@Z 100f49c0 f i lua.obj
 0001:000f3b30       ??$index_call_with_@$00$0A@@?$binding@W4meta_function@sol@@U?$constructor_list@$$A6A?AUcol_t@@XZ@2@Ucol_t@@@u_detail@sol@@SAHPAUlua_State@@PAX@Z 100f4b30 f i lua.obj
 0001:000f3b30       ??$index_call_with_@$0A@$0A@@?$binding@W4meta_function@sol@@U?$constructor_list@$$A6A?AUcol_t@@XZ@2@Ucol_t@@@u_detail@sol@@SAHPAUlua_State@@PAX@Z 100f4b30 f i lua.obj
 0001:000f3b70       ??$call@$00$0A@@?$binding@W4meta_function@sol@@U?$constructor_list@$$A6A?AUcol_t@@XZ@2@Ucol_t@@@u_detail@sol@@SAHPAUlua_State@@@Z 100f4b70 f i lua.obj
 0001:000f3b70       ??$call@$0A@$0A@@?$binding@W4meta_function@sol@@U?$constructor_list@$$A6A?AUcol_t@@XZ@2@Ucol_t@@@u_detail@sol@@SAHPAUlua_State@@@Z 100f4b70 f i lua.obj
 0001:000f3bc0       ??$call_with_@$00$0A@@?$binding@V?$basic_string@DU?$char_traits@D@std@@V?$allocator@D@2@@std@@P8col_t@@BEHXZU3@@u_detail@sol@@SAHPAUlua_State@@PAX@Z 100f4bc0 f i lua.obj
 0001:000f3bc0       ??$call_with_@$0A@$0A@@?$binding@V?$basic_string@DU?$char_traits@D@std@@V?$allocator@D@2@@std@@P8col_t@@BEHXZU3@@u_detail@sol@@SAHPAUlua_State@@PAX@Z 100f4bc0 f i lua.obj
 0001:000f3c00       ??$index_call_with_@$00$0A@@?$binding@V?$basic_string@DU?$char_traits@D@std@@V?$allocator@D@2@@std@@P8col_t@@BEHXZU3@@u_detail@sol@@SAHPAUlua_State@@PAX@Z 100f4c00 f i lua.obj
 0001:000f3c00       ??$index_call_with_@$0A@$0A@@?$binding@V?$basic_string@DU?$char_traits@D@std@@V?$allocator@D@2@@std@@P8col_t@@BEHXZU3@@u_detail@sol@@SAHPAUlua_State@@PAX@Z 100f4c00 f i lua.obj
 0001:000f3c40       ??$call@$00$0A@@?$binding@V?$basic_string@DU?$char_traits@D@std@@V?$allocator@D@2@@std@@P8col_t@@BEHXZU3@@u_detail@sol@@SAHPAUlua_State@@@Z 100f4c40 f i lua.obj
 0001:000f3c40       ??$call@$0A@$0A@@?$binding@V?$basic_string@DU?$char_traits@D@std@@V?$allocator@D@2@@std@@P8col_t@@BEHXZU3@@u_detail@sol@@SAHPAUlua_State@@@Z 100f4c40 f i lua.obj
 0001:000f3cc0       ??$push@ABUno_metatable_t@sol@@AAPAUlua_State@@@?$unqualified_pusher@U?$user@U?$usertype_storage@Ucvar_t@valve@nem@@@u_detail@sol@@@sol@@X@stack@sol@@SAHPAUlua_State@@ABUno_metatable_t@2@AAPAU3@@Z 100f4cc0 f i lua.obj
 0001:000f3ed0       ??$usertype_alloc_destruct@Ucvar_t@valve@nem@@@detail@sol@@YAHPAUlua_State@@@Z 100f4ed0 f i lua.obj
 0001:000f3f10       ??$call_with_@$00$0A@@?$binding@W4meta_function@sol@@U?$constructor_list@$$A6A?AUcvar_t@valve@nem@@XZ@2@Ucvar_t@valve@nem@@@u_detail@sol@@SAHPAUlua_State@@PAX@Z 100f4f10 f i lua.obj
 0001:000f3f10       ??$call_with_@$0A@$0A@@?$binding@W4meta_function@sol@@U?$constructor_list@$$A6A?AUcvar_t@valve@nem@@XZ@2@Ucvar_t@valve@nem@@@u_detail@sol@@SAHPAUlua_State@@PAX@Z 100f4f10 f i lua.obj
 0001:000f4070       ??$index_call_with_@$00$0A@@?$binding@W4meta_function@sol@@U?$constructor_list@$$A6A?AUcvar_t@valve@nem@@XZ@2@Ucvar_t@valve@nem@@@u_detail@sol@@SAHPAUlua_State@@PAX@Z 100f5070 f i lua.obj
 0001:000f4070       ??$index_call_with_@$0A@$0A@@?$binding@W4meta_function@sol@@U?$constructor_list@$$A6A?AUcvar_t@valve@nem@@XZ@2@Ucvar_t@valve@nem@@@u_detail@sol@@SAHPAUlua_State@@PAX@Z 100f5070 f i lua.obj
 0001:000f40b0       ??$call@$00$0A@@?$binding@W4meta_function@sol@@U?$constructor_list@$$A6A?AUcvar_t@valve@nem@@XZ@2@Ucvar_t@valve@nem@@@u_detail@sol@@SAHPAUlua_State@@@Z 100f50b0 f i lua.obj
 0001:000f40b0       ??$call@$0A@$0A@@?$binding@W4meta_function@sol@@U?$constructor_list@$$A6A?AUcvar_t@valve@nem@@XZ@2@Ucvar_t@valve@nem@@@u_detail@sol@@SAHPAUlua_State@@@Z 100f50b0 f i lua.obj
 0001:000f4100       ??$call_with_@$00$0A@@?$binding@V?$basic_string_view@DU?$char_traits@D@std@@@std@@P8cvar_t@valve@nem@@AEHXZU345@@u_detail@sol@@SAHPAUlua_State@@PAX@Z 100f5100 f i lua.obj
 0001:000f4100       ??$call_with_@$0A@$0A@@?$binding@V?$basic_string_view@DU?$char_traits@D@std@@@std@@P8cvar_t@valve@nem@@AEHXZU345@@u_detail@sol@@SAHPAUlua_State@@PAX@Z 100f5100 f i lua.obj
 0001:000f4140       ??$index_call_with_@$00$0A@@?$binding@V?$basic_string_view@DU?$char_traits@D@std@@@std@@P8cvar_t@valve@nem@@AEHXZU345@@u_detail@sol@@SAHPAUlua_State@@PAX@Z 100f5140 f i lua.obj
 0001:000f4140       ??$index_call_with_@$0A@$0A@@?$binding@V?$basic_string_view@DU?$char_traits@D@std@@@std@@P8cvar_t@valve@nem@@AEHXZU345@@u_detail@sol@@SAHPAUlua_State@@PAX@Z 100f5140 f i lua.obj
 0001:000f4180       ??$call@$00$0A@@?$binding@V?$basic_string_view@DU?$char_traits@D@std@@@std@@P8cvar_t@valve@nem@@AEHXZU345@@u_detail@sol@@SAHPAUlua_State@@@Z 100f5180 f i lua.obj
 0001:000f4180       ??$call@$0A@$0A@@?$binding@V?$basic_string_view@DU?$char_traits@D@std@@@std@@P8cvar_t@valve@nem@@AEHXZU345@@u_detail@sol@@SAHPAUlua_State@@@Z 100f5180 f i lua.obj
 0001:000f4200       ??$call_with_@$00$0A@@?$binding@V?$basic_string_view@DU?$char_traits@D@std@@@std@@P8cvar_t@valve@nem@@AEMXZU345@@u_detail@sol@@SAHPAUlua_State@@PAX@Z 100f5200 f i lua.obj
 0001:000f4200       ??$call_with_@$0A@$0A@@?$binding@V?$basic_string_view@DU?$char_traits@D@std@@@std@@P8cvar_t@valve@nem@@AEMXZU345@@u_detail@sol@@SAHPAUlua_State@@PAX@Z 100f5200 f i lua.obj
 0001:000f4250       ??$index_call_with_@$00$0A@@?$binding@V?$basic_string_view@DU?$char_traits@D@std@@@std@@P8cvar_t@valve@nem@@AEMXZU345@@u_detail@sol@@SAHPAUlua_State@@PAX@Z 100f5250 f i lua.obj
 0001:000f4250       ??$index_call_with_@$0A@$0A@@?$binding@V?$basic_string_view@DU?$char_traits@D@std@@@std@@P8cvar_t@valve@nem@@AEMXZU345@@u_detail@sol@@SAHPAUlua_State@@PAX@Z 100f5250 f i lua.obj
 0001:000f4290       ??$call@$00$0A@@?$binding@V?$basic_string_view@DU?$char_traits@D@std@@@std@@P8cvar_t@valve@nem@@AEMXZU345@@u_detail@sol@@SAHPAUlua_State@@@Z 100f5290 f i lua.obj
 0001:000f4290       ??$call@$0A@$0A@@?$binding@V?$basic_string_view@DU?$char_traits@D@std@@@std@@P8cvar_t@valve@nem@@AEMXZU345@@u_detail@sol@@SAHPAUlua_State@@@Z 100f5290 f i lua.obj
 0001:000f4310       ??$call_with_@$00$0A@@?$binding@V?$basic_string_view@DU?$char_traits@D@std@@@std@@P8cvar_t@valve@nem@@AEPBDXZU345@@u_detail@sol@@SAHPAUlua_State@@PAX@Z 100f5310 f i lua.obj
 0001:000f4390       ??$index_call_with_@$00$0A@@?$binding@V?$basic_string_view@DU?$char_traits@D@std@@@std@@P8cvar_t@valve@nem@@AEPBDXZU345@@u_detail@sol@@SAHPAUlua_State@@PAX@Z 100f5390 f i lua.obj
 0001:000f43d0       ??$call_with_@$0A@$0A@@?$binding@V?$basic_string_view@DU?$char_traits@D@std@@@std@@P8cvar_t@valve@nem@@AEPBDXZU345@@u_detail@sol@@SAHPAUlua_State@@PAX@Z 100f53d0 f i lua.obj
 0001:000f43e0       ??$index_call_with_@$0A@$0A@@?$binding@V?$basic_string_view@DU?$char_traits@D@std@@@std@@P8cvar_t@valve@nem@@AEPBDXZU345@@u_detail@sol@@SAHPAUlua_State@@PAX@Z 100f53e0 f i lua.obj
 0001:000f4420       ??$call@$0A@$0A@@?$binding@V?$basic_string_view@DU?$char_traits@D@std@@@std@@P8cvar_t@valve@nem@@AEPBDXZU345@@u_detail@sol@@SAHPAUlua_State@@@Z 100f5420 f i lua.obj
 0001:000f4470       ??$call_with_@$00$0A@@?$binding@V?$basic_string_view@DU?$char_traits@D@std@@@std@@P8cvar_t@valve@nem@@AEXH@ZU345@@u_detail@sol@@SAHPAUlua_State@@PAX@Z 100f5470 f i lua.obj
 0001:000f4470       ??$call_with_@$0A@$0A@@?$binding@V?$basic_string_view@DU?$char_traits@D@std@@@std@@P8cvar_t@valve@nem@@AEXH@ZU345@@u_detail@sol@@SAHPAUlua_State@@PAX@Z 100f5470 f i lua.obj
 0001:000f44d0       ??$index_call_with_@$00$0A@@?$binding@V?$basic_string_view@DU?$char_traits@D@std@@@std@@P8cvar_t@valve@nem@@AEXH@ZU345@@u_detail@sol@@SAHPAUlua_State@@PAX@Z 100f54d0 f i lua.obj
 0001:000f44d0       ??$index_call_with_@$0A@$0A@@?$binding@V?$basic_string_view@DU?$char_traits@D@std@@@std@@P8cvar_t@valve@nem@@AEXH@ZU345@@u_detail@sol@@SAHPAUlua_State@@PAX@Z 100f54d0 f i lua.obj
 0001:000f4510       ??$call@$00$0A@@?$binding@V?$basic_string_view@DU?$char_traits@D@std@@@std@@P8cvar_t@valve@nem@@AEXH@ZU345@@u_detail@sol@@SAHPAUlua_State@@@Z 100f5510 f i lua.obj
 0001:000f4510       ??$call@$0A@$0A@@?$binding@V?$basic_string_view@DU?$char_traits@D@std@@@std@@P8cvar_t@valve@nem@@AEXH@ZU345@@u_detail@sol@@SAHPAUlua_State@@@Z 100f5510 f i lua.obj
 0001:000f45a0       ??$call_with_@$00$0A@@?$binding@V?$basic_string_view@DU?$char_traits@D@std@@@std@@P8cvar_t@valve@nem@@AEXM@ZU345@@u_detail@sol@@SAHPAUlua_State@@PAX@Z 100f55a0 f i lua.obj
 0001:000f45a0       ??$call_with_@$0A@$0A@@?$binding@V?$basic_string_view@DU?$char_traits@D@std@@@std@@P8cvar_t@valve@nem@@AEXM@ZU345@@u_detail@sol@@SAHPAUlua_State@@PAX@Z 100f55a0 f i lua.obj
 0001:000f45f0       ??$index_call_with_@$00$0A@@?$binding@V?$basic_string_view@DU?$char_traits@D@std@@@std@@P8cvar_t@valve@nem@@AEXM@ZU345@@u_detail@sol@@SAHPAUlua_State@@PAX@Z 100f55f0 f i lua.obj
 0001:000f45f0       ??$index_call_with_@$0A@$0A@@?$binding@V?$basic_string_view@DU?$char_traits@D@std@@@std@@P8cvar_t@valve@nem@@AEXM@ZU345@@u_detail@sol@@SAHPAUlua_State@@PAX@Z 100f55f0 f i lua.obj
 0001:000f4630       ??$call@$00$0A@@?$binding@V?$basic_string_view@DU?$char_traits@D@std@@@std@@P8cvar_t@valve@nem@@AEXM@ZU345@@u_detail@sol@@SAHPAUlua_State@@@Z 100f5630 f i lua.obj
 0001:000f4630       ??$call@$0A@$0A@@?$binding@V?$basic_string_view@DU?$char_traits@D@std@@@std@@P8cvar_t@valve@nem@@AEXM@ZU345@@u_detail@sol@@SAHPAUlua_State@@@Z 100f5630 f i lua.obj
 0001:000f46b0       ??$call_with_@$00$0A@@?$binding@V?$basic_string_view@DU?$char_traits@D@std@@@std@@P8cvar_t@valve@nem@@AEXPBD@ZU345@@u_detail@sol@@SAHPAUlua_State@@PAX@Z 100f56b0 f i lua.obj
 0001:000f46b0       ??$call_with_@$0A@$0A@@?$binding@V?$basic_string_view@DU?$char_traits@D@std@@@std@@P8cvar_t@valve@nem@@AEXPBD@ZU345@@u_detail@sol@@SAHPAUlua_State@@PAX@Z 100f56b0 f i lua.obj
 0001:000f46f0       ??$index_call_with_@$00$0A@@?$binding@V?$basic_string_view@DU?$char_traits@D@std@@@std@@P8cvar_t@valve@nem@@AEXPBD@ZU345@@u_detail@sol@@SAHPAUlua_State@@PAX@Z 100f56f0 f i lua.obj
 0001:000f46f0       ??$index_call_with_@$0A@$0A@@?$binding@V?$basic_string_view@DU?$char_traits@D@std@@@std@@P8cvar_t@valve@nem@@AEXPBD@ZU345@@u_detail@sol@@SAHPAUlua_State@@PAX@Z 100f56f0 f i lua.obj
 0001:000f4730       ??$call@$00$0A@@?$binding@V?$basic_string_view@DU?$char_traits@D@std@@@std@@P8cvar_t@valve@nem@@AEXPBD@ZU345@@u_detail@sol@@SAHPAUlua_State@@@Z 100f5730 f i lua.obj
 0001:000f4730       ??$call@$0A@$0A@@?$binding@V?$basic_string_view@DU?$char_traits@D@std@@@std@@P8cvar_t@valve@nem@@AEXPBD@ZU345@@u_detail@sol@@SAHPAUlua_State@@@Z 100f5730 f i lua.obj
 0001:000f47b0       ??$push@ABUno_metatable_t@sol@@AAPAUlua_State@@@?$unqualified_pusher@U?$user@U?$usertype_storage@Ulua_user_cmd_t@nem@@@u_detail@sol@@@sol@@X@stack@sol@@SAHPAUlua_State@@ABUno_metatable_t@2@AAPAU3@@Z 100f57b0 f i lua.obj
 0001:000f49c0       ??$call_with_@$00$0A@@?$binding@W4meta_function@sol@@U?$constructor_list@$$A6A?AUlua_user_cmd_t@nem@@XZ@2@Ulua_user_cmd_t@nem@@@u_detail@sol@@SAHPAUlua_State@@PAX@Z 100f59c0 f i lua.obj
 0001:000f49c0       ??$call_with_@$0A@$0A@@?$binding@W4meta_function@sol@@U?$constructor_list@$$A6A?AUlua_user_cmd_t@nem@@XZ@2@Ulua_user_cmd_t@nem@@@u_detail@sol@@SAHPAUlua_State@@PAX@Z 100f59c0 f i lua.obj
 0001:000f4b20       ??$index_call_with_@$00$0A@@?$binding@W4meta_function@sol@@U?$constructor_list@$$A6A?AUlua_user_cmd_t@nem@@XZ@2@Ulua_user_cmd_t@nem@@@u_detail@sol@@SAHPAUlua_State@@PAX@Z 100f5b20 f i lua.obj
 0001:000f4b20       ??$index_call_with_@$0A@$0A@@?$binding@W4meta_function@sol@@U?$constructor_list@$$A6A?AUlua_user_cmd_t@nem@@XZ@2@Ulua_user_cmd_t@nem@@@u_detail@sol@@SAHPAUlua_State@@PAX@Z 100f5b20 f i lua.obj
 0001:000f4b60       ??$call@$00$0A@@?$binding@W4meta_function@sol@@U?$constructor_list@$$A6A?AUlua_user_cmd_t@nem@@XZ@2@Ulua_user_cmd_t@nem@@@u_detail@sol@@SAHPAUlua_State@@@Z 100f5b60 f i lua.obj
 0001:000f4b60       ??$call@$0A@$0A@@?$binding@W4meta_function@sol@@U?$constructor_list@$$A6A?AUlua_user_cmd_t@nem@@XZ@2@Ulua_user_cmd_t@nem@@@u_detail@sol@@SAHPAUlua_State@@@Z 100f5b60 f i lua.obj
 0001:000f4bb0       ??$call_with_@$00$00@?$binding@V?$basic_string_view@DU?$char_traits@D@std@@@std@@PQlua_user_cmd_t@nem@@HU34@@u_detail@sol@@SAHPAUlua_State@@PAX@Z 100f5bb0 f i lua.obj
 0001:000f4bb0       ??$index_call_with_@$00$00@?$binding@V?$basic_string_view@DU?$char_traits@D@std@@@std@@PQlua_user_cmd_t@nem@@HU34@@u_detail@sol@@SAHPAUlua_State@@PAX@Z 100f5bb0 f i lua.obj
 0001:000f4c00       ??$call_with_@$0A@$00@?$binding@V?$basic_string_view@DU?$char_traits@D@std@@@std@@PQlua_user_cmd_t@nem@@HU34@@u_detail@sol@@SAHPAUlua_State@@PAX@Z 100f5c00 f i lua.obj
 0001:000f4c00       ??$index_call_with_@$0A@$00@?$binding@V?$basic_string_view@DU?$char_traits@D@std@@@std@@PQlua_user_cmd_t@nem@@HU34@@u_detail@sol@@SAHPAUlua_State@@PAX@Z 100f5c00 f i lua.obj
 0001:000f4c10       ??$call@$0A@$00@?$binding@V?$basic_string_view@DU?$char_traits@D@std@@@std@@PQlua_user_cmd_t@nem@@HU34@@u_detail@sol@@SAHPAUlua_State@@@Z 100f5c10 f i lua.obj
 0001:000f4c60       ??$call_with_@$00$00@?$binding@V?$basic_string_view@DU?$char_traits@D@std@@@std@@PQlua_user_cmd_t@nem@@MU34@@u_detail@sol@@SAHPAUlua_State@@PAX@Z 100f5c60 f i lua.obj
 0001:000f4c60       ??$index_call_with_@$00$00@?$binding@V?$basic_string_view@DU?$char_traits@D@std@@@std@@PQlua_user_cmd_t@nem@@MU34@@u_detail@sol@@SAHPAUlua_State@@PAX@Z 100f5c60 f i lua.obj
 0001:000f4cc0       ??$call_with_@$0A@$00@?$binding@V?$basic_string_view@DU?$char_traits@D@std@@@std@@PQlua_user_cmd_t@nem@@MU34@@u_detail@sol@@SAHPAUlua_State@@PAX@Z 100f5cc0 f i lua.obj
 0001:000f4cc0       ??$index_call_with_@$0A@$00@?$binding@V?$basic_string_view@DU?$char_traits@D@std@@@std@@PQlua_user_cmd_t@nem@@MU34@@u_detail@sol@@SAHPAUlua_State@@PAX@Z 100f5cc0 f i lua.obj
 0001:000f4d20       ??$call@$0A@$00@?$binding@V?$basic_string_view@DU?$char_traits@D@std@@@std@@PQlua_user_cmd_t@nem@@MU34@@u_detail@sol@@SAHPAUlua_State@@@Z 100f5d20 f i lua.obj
 0001:000f4db0       ??$call_with_@$00$00@?$binding@V?$basic_string_view@DU?$char_traits@D@std@@@std@@PQlua_user_cmd_t@nem@@_NU34@@u_detail@sol@@SAHPAUlua_State@@PAX@Z 100f5db0 f i lua.obj
 0001:000f4db0       ??$index_call_with_@$00$00@?$binding@V?$basic_string_view@DU?$char_traits@D@std@@@std@@PQlua_user_cmd_t@nem@@_NU34@@u_detail@sol@@SAHPAUlua_State@@PAX@Z 100f5db0 f i lua.obj
 0001:000f4e00       ??$call_with_@$0A@$00@?$binding@V?$basic_string_view@DU?$char_traits@D@std@@@std@@PQlua_user_cmd_t@nem@@_NU34@@u_detail@sol@@SAHPAUlua_State@@PAX@Z 100f5e00 f i lua.obj
 0001:000f4e00       ??$index_call_with_@$0A@$00@?$binding@V?$basic_string_view@DU?$char_traits@D@std@@@std@@PQlua_user_cmd_t@nem@@_NU34@@u_detail@sol@@SAHPAUlua_State@@PAX@Z 100f5e00 f i lua.obj
 0001:000f4e50       ??$call@$0A@$00@?$binding@V?$basic_string_view@DU?$char_traits@D@std@@@std@@PQlua_user_cmd_t@nem@@_NU34@@u_detail@sol@@SAHPAUlua_State@@@Z 100f5e50 f i lua.obj
 0001:000f4ee0       ??$push@AAI@?$unqualified_pusher@IX@stack@sol@@SAHPAUlua_State@@AAI@Z 100f5ee0 f i lua.obj
 0001:000f4f20       ??_E?$binding@V?$basic_string@DU?$char_traits@D@std@@V?$allocator@D@2@@std@@P8col_t@@BEHXZU3@@u_detail@sol@@UAEPAXI@Z 100f5f20 f i * CIL library *:* CIL module *
 0001:000f4f20       ??_E?$binding@V?$basic_string_view@DU?$char_traits@D@std@@@std@@P8ImVec3@@AEAAU3@XZU3@@u_detail@sol@@UAEPAXI@Z 100f5f20 f i * CIL library *:* CIL module *
 0001:000f4f20       ??_E?$binding@V?$basic_string_view@DU?$char_traits@D@std@@@std@@P8ImVec3@@BEMXZU3@@u_detail@sol@@UAEPAXI@Z 100f5f20 f i * CIL library *:* CIL module *
 0001:000f4f20       ??_E?$binding@V?$basic_string_view@DU?$char_traits@D@std@@@std@@P8cvar_t@valve@nem@@AEHXZU345@@u_detail@sol@@UAEPAXI@Z 100f5f20 f i * CIL library *:* CIL module *
 0001:000f4f20       ??_E?$binding@V?$basic_string_view@DU?$char_traits@D@std@@@std@@P8cvar_t@valve@nem@@AEMXZU345@@u_detail@sol@@UAEPAXI@Z 100f5f20 f i * CIL library *:* CIL module *
 0001:000f4f20       ??_E?$binding@V?$basic_string_view@DU?$char_traits@D@std@@@std@@P8cvar_t@valve@nem@@AEPBDXZU345@@u_detail@sol@@UAEPAXI@Z 100f5f20 f i * CIL library *:* CIL module *
 0001:000f4f20       ??_E?$binding@V?$basic_string_view@DU?$char_traits@D@std@@@std@@P8cvar_t@valve@nem@@AEXH@ZU345@@u_detail@sol@@UAEPAXI@Z 100f5f20 f i * CIL library *:* CIL module *
 0001:000f4f20       ??_E?$binding@V?$basic_string_view@DU?$char_traits@D@std@@@std@@P8cvar_t@valve@nem@@AEXM@ZU345@@u_detail@sol@@UAEPAXI@Z 100f5f20 f i * CIL library *:* CIL module *
 0001:000f4f20       ??_E?$binding@V?$basic_string_view@DU?$char_traits@D@std@@@std@@P8cvar_t@valve@nem@@AEXPBD@ZU345@@u_detail@sol@@UAEPAXI@Z 100f5f20 f i * CIL library *:* CIL module *
 0001:000f4f20       ??_E?$binding@V?$basic_string_view@DU?$char_traits@D@std@@@std@@PQImVec3@@MU3@@u_detail@sol@@UAEPAXI@Z 100f5f20 f i * CIL library *:* CIL module *
 0001:000f4f20       ??_E?$binding@V?$basic_string_view@DU?$char_traits@D@std@@@std@@PQlua_user_cmd_t@nem@@HU34@@u_detail@sol@@UAEPAXI@Z 100f5f20 f i * CIL library *:* CIL module *
 0001:000f4f20       ??_E?$binding@V?$basic_string_view@DU?$char_traits@D@std@@@std@@PQlua_user_cmd_t@nem@@MU34@@u_detail@sol@@UAEPAXI@Z 100f5f20 f i * CIL library *:* CIL module *
 0001:000f4f20       ??_E?$binding@V?$basic_string_view@DU?$char_traits@D@std@@@std@@PQlua_user_cmd_t@nem@@_NU34@@u_detail@sol@@UAEPAXI@Z 100f5f20 f i * CIL library *:* CIL module *
 0001:000f4f20       ??_E?$binding@W4meta_function@sol@@U?$constructor_list@$$A6A?AUImVec3@@XZ$$A6A?AU1@MMM@Z@2@UImVec3@@@u_detail@sol@@UAEPAXI@Z 100f5f20 f i * CIL library *:* CIL module *
 0001:000f4f20       ??_E?$binding@W4meta_function@sol@@U?$constructor_list@$$A6A?AUImVec3@@XZ@2@UImVec3@@@u_detail@sol@@UAEPAXI@Z 100f5f20 f i * CIL library *:* CIL module *
 0001:000f4f20       ??_E?$binding@W4meta_function@sol@@U?$constructor_list@$$A6A?AUcol_t@@XZ$$A6A?AU1@HHH@Z$$A6A?AU1@HHHH@Z@2@Ucol_t@@@u_detail@sol@@UAEPAXI@Z 100f5f20 f i * CIL library *:* CIL module *
 0001:000f4f20       ??_E?$binding@W4meta_function@sol@@U?$constructor_list@$$A6A?AUcol_t@@XZ@2@Ucol_t@@@u_detail@sol@@UAEPAXI@Z 100f5f20 f i * CIL library *:* CIL module *
 0001:000f4f20       ??_E?$binding@W4meta_function@sol@@U?$constructor_list@$$A6A?AUcvar_t@valve@nem@@XZ@2@Ucvar_t@valve@nem@@@u_detail@sol@@UAEPAXI@Z 100f5f20 f i * CIL library *:* CIL module *
 0001:000f4f20       ??_E?$binding@W4meta_function@sol@@U?$constructor_list@$$A6A?AUlua_user_cmd_t@nem@@XZ@2@Ulua_user_cmd_t@nem@@@u_detail@sol@@UAEPAXI@Z 100f5f20 f i * CIL library *:* CIL module *
 0001:000f4f20       ??_G?$binding@V?$basic_string@DU?$char_traits@D@std@@V?$allocator@D@2@@std@@P8col_t@@BEHXZU3@@u_detail@sol@@UAEPAXI@Z 100f5f20 f i lua.obj
 0001:000f4f20       ??_G?$binding@V?$basic_string_view@DU?$char_traits@D@std@@@std@@P8ImVec3@@AEAAU3@XZU3@@u_detail@sol@@UAEPAXI@Z 100f5f20 f i lua.obj
 0001:000f4f20       ??_G?$binding@V?$basic_string_view@DU?$char_traits@D@std@@@std@@P8ImVec3@@BEMXZU3@@u_detail@sol@@UAEPAXI@Z 100f5f20 f i lua.obj
 0001:000f4f20       ??_G?$binding@V?$basic_string_view@DU?$char_traits@D@std@@@std@@P8cvar_t@valve@nem@@AEHXZU345@@u_detail@sol@@UAEPAXI@Z 100f5f20 f i lua.obj
 0001:000f4f20       ??_G?$binding@V?$basic_string_view@DU?$char_traits@D@std@@@std@@P8cvar_t@valve@nem@@AEMXZU345@@u_detail@sol@@UAEPAXI@Z 100f5f20 f i lua.obj
 0001:000f4f20       ??_G?$binding@V?$basic_string_view@DU?$char_traits@D@std@@@std@@P8cvar_t@valve@nem@@AEPBDXZU345@@u_detail@sol@@UAEPAXI@Z 100f5f20 f i lua.obj
 0001:000f4f20       ??_G?$binding@V?$basic_string_view@DU?$char_traits@D@std@@@std@@P8cvar_t@valve@nem@@AEXH@ZU345@@u_detail@sol@@UAEPAXI@Z 100f5f20 f i lua.obj
 0001:000f4f20       ??_G?$binding@V?$basic_string_view@DU?$char_traits@D@std@@@std@@P8cvar_t@valve@nem@@AEXM@ZU345@@u_detail@sol@@UAEPAXI@Z 100f5f20 f i lua.obj
 0001:000f4f20       ??_G?$binding@V?$basic_string_view@DU?$char_traits@D@std@@@std@@P8cvar_t@valve@nem@@AEXPBD@ZU345@@u_detail@sol@@UAEPAXI@Z 100f5f20 f i lua.obj
 0001:000f4f20       ??_G?$binding@V?$basic_string_view@DU?$char_traits@D@std@@@std@@PQImVec3@@MU3@@u_detail@sol@@UAEPAXI@Z 100f5f20 f i lua.obj
 0001:000f4f20       ??_G?$binding@V?$basic_string_view@DU?$char_traits@D@std@@@std@@PQlua_user_cmd_t@nem@@HU34@@u_detail@sol@@UAEPAXI@Z 100f5f20 f i lua.obj
 0001:000f4f20       ??_G?$binding@V?$basic_string_view@DU?$char_traits@D@std@@@std@@PQlua_user_cmd_t@nem@@MU34@@u_detail@sol@@UAEPAXI@Z 100f5f20 f i lua.obj
 0001:000f4f20       ??_G?$binding@V?$basic_string_view@DU?$char_traits@D@std@@@std@@PQlua_user_cmd_t@nem@@_NU34@@u_detail@sol@@UAEPAXI@Z 100f5f20 f i lua.obj
 0001:000f4f20       ??_G?$binding@W4meta_function@sol@@U?$constructor_list@$$A6A?AUImVec3@@XZ$$A6A?AU1@MMM@Z@2@UImVec3@@@u_detail@sol@@UAEPAXI@Z 100f5f20 f i lua.obj
 0001:000f4f20       ??_G?$binding@W4meta_function@sol@@U?$constructor_list@$$A6A?AUImVec3@@XZ@2@UImVec3@@@u_detail@sol@@UAEPAXI@Z 100f5f20 f i lua.obj
 0001:000f4f20       ??_G?$binding@W4meta_function@sol@@U?$constructor_list@$$A6A?AUcol_t@@XZ$$A6A?AU1@HHH@Z$$A6A?AU1@HHHH@Z@2@Ucol_t@@@u_detail@sol@@UAEPAXI@Z 100f5f20 f i lua.obj
 0001:000f4f20       ??_G?$binding@W4meta_function@sol@@U?$constructor_list@$$A6A?AUcol_t@@XZ@2@Ucol_t@@@u_detail@sol@@UAEPAXI@Z 100f5f20 f i lua.obj
 0001:000f4f20       ??_G?$binding@W4meta_function@sol@@U?$constructor_list@$$A6A?AUcvar_t@valve@nem@@XZ@2@Ucvar_t@valve@nem@@@u_detail@sol@@UAEPAXI@Z 100f5f20 f i lua.obj
 0001:000f4f20       ??_G?$binding@W4meta_function@sol@@U?$constructor_list@$$A6A?AUlua_user_cmd_t@nem@@XZ@2@Ulua_user_cmd_t@nem@@@u_detail@sol@@UAEPAXI@Z 100f5f20 f i lua.obj
 0001:000f4f50       ??$call@$00$0A@@?$binding@V?$basic_string_view@DU?$char_traits@D@std@@@std@@P8cvar_t@valve@nem@@AEPBDXZU345@@u_detail@sol@@SAHPAUlua_State@@@Z 100f5f50 f i lua.obj
 0001:000f4fa0       ??$call_wrapped@Ucvar_t@valve@nem@@$0A@$0A@$0A@$0A@$00AAP8123@AEPBDXZ$$V@call_detail@sol@@YAHPAUlua_State@@AAP8cvar_t@valve@nem@@AEPBDXZ@Z 100f5fa0 f i lua.obj
 0001:000f5010       ??$call_wrapped@Ulua_user_cmd_t@nem@@$0A@$00$0A@$0A@$00AAPQ12@H$$V@call_detail@sol@@YAHPAUlua_State@@AAPQlua_user_cmd_t@nem@@H@Z 100f6010 f i lua.obj
 0001:000f5080       ?get_no_lua_nil@?$unqualified_getter@U?$as_value_tag@Ucvar_t@valve@nem@@@detail@sol@@X@stack@sol@@SAPAUcvar_t@valve@nem@@PAUlua_State@@HAAUrecord@23@@Z 100f6080 f i lua.obj
 0001:000f5190       ??1usertype_storage_base@u_detail@sol@@QAE@XZ 100f6190 f i lua.obj
 0001:000f52f0       ??$unqualified_get@U?$non_null@PAUImVec3@@@sol@@@stack@sol@@YA?A_TPAUlua_State@@H@Z 100f62f0 f i lua.obj
 0001:000f5320       ??$unqualified_get@U?$non_null@PAUcol_t@@@sol@@@stack@sol@@YA?A_TPAUlua_State@@H@Z 100f6320 f i lua.obj
 0001:000f5350       ??$unqualified_get@U?$non_null@PAUcvar_t@valve@nem@@@sol@@@stack@sol@@YA?A_TPAUlua_State@@H@Z 100f6350 f i lua.obj
 0001:000f5380       ??$demangle@U?$usertype_storage@Ulua_user_cmd_t@nem@@@u_detail@sol@@@detail@sol@@YAABV?$basic_string@DU?$char_traits@D@std@@V?$allocator@D@2@@std@@XZ 100f6380 f i lua.obj
 0001:000f5450       ??$demangle@U?$usertype_storage@Ucvar_t@valve@nem@@@u_detail@sol@@@detail@sol@@YAABV?$basic_string@DU?$char_traits@D@std@@V?$allocator@D@2@@std@@XZ 100f6450 f i lua.obj
 0001:000f5520       ??$usertype_allocate@Ucol_t@@@detail@sol@@YAPAUcol_t@@PAUlua_State@@@Z 100f6520 f i lua.obj
 0001:000f5620       ??$set_undefined_methods_on@Ucol_t@@@stack_detail@stack@sol@@YAXVstack_reference@2@@Z 100f6620 f i lua.obj
 0001:000f57b0       ??$demangle@U?$usertype_storage@Ucol_t@@@u_detail@sol@@@detail@sol@@YAABV?$basic_string@DU?$char_traits@D@std@@V?$allocator@D@2@@std@@XZ 100f67b0 f i lua.obj
 0001:000f5880       ??$usertype_allocate@UImVec3@@@detail@sol@@YAPAUImVec3@@PAUlua_State@@@Z 100f6880 f i lua.obj
 0001:000f5980       ??$set_undefined_methods_on@UImVec3@@@stack_detail@stack@sol@@YAXVstack_reference@2@@Z 100f6980 f i lua.obj
 0001:000f5ab0       ??$construct_match@UImVec3@@$$A6A?AU1@XZ$$A6A?AU1@MMM@ZU?$constructor_match@UImVec3@@$0A@$00@call_detail@sol@@$$V@call_detail@sol@@YAH$$QAU?$constructor_match@UImVec3@@$0A@$00@01@PAUlua_State@@HH@Z 100f6ab0 f i lua.obj
 0001:000f5ba0       ??$demangle@U?$usertype_storage@UImVec3@@@u_detail@sol@@@detail@sol@@YAABV?$basic_string@DU?$char_traits@D@std@@V?$allocator@D@2@@std@@XZ 100f6ba0 f i lua.obj
 0001:000f5c70       ?get_no_lua_nil_from@?$unqualified_getter@U?$as_value_tag@Ucol_t@@@detail@sol@@X@stack@sol@@SAPAUcol_t@@PAUlua_State@@PAXHAAUrecord@23@@Z 100f6c70 f i lua.obj
 0001:000f5d60       ?get_no_lua_nil_from@?$unqualified_getter@U?$as_value_tag@UImVec3@@@detail@sol@@X@stack@sol@@SAPAUImVec3@@PAUlua_State@@PAXHAAUrecord@23@@Z 100f6d60 f i lua.obj
 0001:000f5e50       ?get@?$unqualified_getter@HX@stack@sol@@SA@PAUlua_State@@HAAUrecord@23@@Z 100f6e50 f i lua.obj
 0001:000f5e80       ??$insert_default_registrations@UImVec3@@AAUindexed_insert@detail@sol@@A6A_NW4meta_function@4@@Z@detail@sol@@YAXAAUindexed_insert@01@A6A_NW4meta_function@1@@Z@Z 100f6e80 f i lua.obj
 0001:000f5fa0       ??$usertype_allocate@Ulua_user_cmd_t@nem@@@detail@sol@@YAPAUlua_user_cmd_t@nem@@PAUlua_State@@@Z 100f6fa0 f i lua.obj
 0001:000f60a0       ??$set_undefined_methods_on@Ulua_user_cmd_t@nem@@@stack_detail@stack@sol@@YAXVstack_reference@2@@Z 100f70a0 f i lua.obj
 0001:000f61d0       ??$construct_match@Ulua_user_cmd_t@nem@@$$A6A?AU12@XZU?$constructor_match@Ulua_user_cmd_t@nem@@$0A@$00@call_detail@sol@@$$V@call_detail@sol@@YAH$$QAU?$constructor_match@Ulua_user_cmd_t@nem@@$0A@$00@01@PAUlua_State@@HH@Z 100f71d0 f i lua.obj
 0001:000f6240       ??$usertype_allocate@Ucvar_t@valve@nem@@@detail@sol@@YAPAUcvar_t@valve@nem@@PAUlua_State@@@Z 100f7240 f i lua.obj
 0001:000f6340       ??$set_undefined_methods_on@Ucvar_t@valve@nem@@@stack_detail@stack@sol@@YAXVstack_reference@2@@Z 100f7340 f i lua.obj
 0001:000f6470       ??$construct_match@Ucvar_t@valve@nem@@$$A6A?AU123@XZU?$constructor_match@Ucvar_t@valve@nem@@$0A@$00@call_detail@sol@@$$V@call_detail@sol@@YAH$$QAU?$constructor_match@Ucvar_t@valve@nem@@$0A@$00@01@PAUlua_State@@HH@Z 100f7470 f i lua.obj
 0001:000f6540       ??$demangle@U?$as_container_t@Ucvar_t@valve@nem@@@sol@@@detail@sol@@YAABV?$basic_string@DU?$char_traits@D@std@@V?$allocator@D@2@@std@@XZ 100f7540 f i lua.obj
 0001:000f6610       ??$demangle@U?$as_container_t@Ucol_t@@@sol@@@detail@sol@@YAABV?$basic_string@DU?$char_traits@D@std@@V?$allocator@D@2@@std@@XZ 100f7610 f i lua.obj
 0001:000f66e0       ??$demangle@U?$as_container_t@UImVec3@@@sol@@@detail@sol@@YAABV?$basic_string@DU?$char_traits@D@std@@V?$allocator@D@2@@std@@XZ 100f76e0 f i lua.obj
 0001:000f67b0       ??$call_into_lua@$0A@$00AAUImVec3@@$$V$$Z$$VUcaller@?$member_function_wrapper@P8ImVec3@@AEAAU1@XZAAU1@U1@$$V@sol@@AAP81@AEAAU1@XZAAU1@@stack@sol@@YAHU?$types@AAUImVec3@@@1@U?$types@$$V@1@PAUlua_State@@H$$QAUcaller@?$member_function_wrapper@P8ImVec3@@AEAAU1@XZAAU1@U1@$$V@1@AAP8ImVec3@@AEAAU7@XZAAU7@@Z 100f77b0 f i lua.obj
 0001:000f6820       ??$overload_match_arity_single@$$A6AXXZ$$A6AXHHH@Z$$A6AXHHHH@Z$0A@$00$01$$Z$SU?$constructor_match@Ucol_t@@$0A@$00@call_detail@sol@@$$V@overload_detail@call_detail@sol@@YAHU?$types@$$A6AXXZ$$A6AXHHH@Z$$A6AXHHHH@Z@2@U?$integer_sequence@I$0A@$00$01@std@@U?$integer_sequence@I$S@5@$$QAU?$constructor_match@Ucol_t@@$0A@$00@12@PAUlua_State@@HH@Z 100f7820 f i lua.obj
 0001:000f6950       ??$insert_default_registrations@Ucvar_t@valve@nem@@AAUindexed_insert@detail@sol@@A6A_NW4meta_function@6@@Z@detail@sol@@YAXAAUindexed_insert@01@A6A_NW4meta_function@1@@Z@Z 100f7950 f i lua.obj
 0001:000f6a00       ??$construct@Ucol_t@@$0A@$00$$A6A?AU1@XZ$$A6A?AU1@HHH@Z$$A6A?AU1@HHHH@Z@call_detail@sol@@YAHPAUlua_State@@@Z 100f7a00 f i lua.obj
 0001:000f6a40       ??$construct@UImVec3@@$0A@$00$$A6A?AU1@XZ$$A6A?AU1@MMM@Z@call_detail@sol@@YAHPAUlua_State@@@Z 100f7a40 f i lua.obj
 0001:000f6a80       ??$construct_trampolined@Ucol_t@@$0A@$00$$A6A?AU1@XZ$$A6A?AU1@HHH@Z$$A6A?AU1@HHHH@Z@call_detail@sol@@YAHPAUlua_State@@@Z 100f7a80 f i lua.obj
 0001:000f6c00       ??$construct_trampolined@UImVec3@@$0A@$00$$A6A?AU1@XZ$$A6A?AU1@MMM@Z@call_detail@sol@@YAHPAUlua_State@@@Z 100f7c00 f i lua.obj
 0001:000f6d70       ??$?R$$A6AXHHH@Z$00X$$ZHHH@?$constructor_match@Ucol_t@@$0A@$00@call_detail@sol@@QBEHU?$types@$$A6AXHHH@Z@2@U?$integral_constant@I$00@std@@U?$types@X@2@U?$types@HHH@2@PAUlua_State@@HH@Z 100f7d70 f i lua.obj
 0001:000f6e00       ??$check_types@MMMA6AHPAUlua_State@@HW4type@sol@@1PBD@_E@stack_detail@stack@sol@@YA_NU?$types@MMM@2@PAUlua_State@@HA6AH1HW4type@2@2PBD@_EAAUrecord@12@@Z 100f7e00 f i lua.obj
 0001:000f6ed0       ??$?R$$A6AXHHHH@Z$01X$$ZHHHH@?$constructor_match@Ucol_t@@$0A@$00@call_detail@sol@@QBEHU?$types@$$A6AXHHHH@Z@2@U?$integral_constant@I$01@std@@U?$types@X@2@U?$types@HHHH@2@PAUlua_State@@HH@Z 100f7ed0 f i lua.obj
 0001:000f6f70       ??$check_types@HHHA6AHPAUlua_State@@HW4type@sol@@1PBD@_E@stack_detail@stack@sol@@YA_NPAUlua_State@@HA6AH0HW4type@2@1PBD@_EAAUrecord@12@@Z 100f7f70 f i lua.obj
 0001:000f7030       ?call@?$upvalue_this_member_variable@Ulua_user_cmd_t@nem@@PQ12@_N$0A@@function_detail@sol@@SAHPAUlua_State@@@Z 100f8030 f i lua.obj
 0001:000f7070       ?call@?$upvalue_this_member_variable@Ulua_user_cmd_t@nem@@PQ12@M$0A@@function_detail@sol@@SAHPAUlua_State@@@Z 100f8070 f i lua.obj
 0001:000f70b0       ?call@?$upvalue_this_member_variable@Ulua_user_cmd_t@nem@@PQ12@H$0A@@function_detail@sol@@SAHPAUlua_State@@@Z 100f80b0 f i lua.obj
 0001:000f70f0       ?call@?$upvalue_this_member_function@Ucvar_t@valve@nem@@P8123@AEXPBD@Z$0A@@function_detail@sol@@SAHPAUlua_State@@@Z 100f80f0 f i lua.obj
 0001:000f7170       ?call@?$upvalue_this_member_function@Ucvar_t@valve@nem@@P8123@AEXM@Z$0A@@function_detail@sol@@SAHPAUlua_State@@@Z 100f8170 f i lua.obj
 0001:000f7200       ?call@?$upvalue_this_member_function@Ucvar_t@valve@nem@@P8123@AEXH@Z$0A@@function_detail@sol@@SAHPAUlua_State@@@Z 100f8200 f i lua.obj
 0001:000f7240       ?call@?$upvalue_this_member_function@Ucvar_t@valve@nem@@P8123@AEPBDXZ$0A@@function_detail@sol@@SAHPAUlua_State@@@Z 100f8240 f i lua.obj
 0001:000f72a0       ?call@?$upvalue_this_member_function@Ucvar_t@valve@nem@@P8123@AEMXZ$0A@@function_detail@sol@@SAHPAUlua_State@@@Z 100f82a0 f i lua.obj
 0001:000f7330       ?call@?$upvalue_this_member_function@Ucvar_t@valve@nem@@P8123@AEHXZ$0A@@function_detail@sol@@SAHPAUlua_State@@@Z 100f8330 f i lua.obj
 0001:000f73b0       ?call@?$upvalue_this_member_function@Ucol_t@@P81@BEHXZ$0A@@function_detail@sol@@SAHPAUlua_State@@@Z 100f83b0 f i lua.obj
 0001:000f7430       ?call@?$upvalue_this_member_function@UImVec3@@P81@AEAAU1@XZ$0A@@function_detail@sol@@SAHPAUlua_State@@@Z 100f8430 f i lua.obj
 0001:000f74a0       ?call@?$upvalue_this_member_function@UImVec3@@P81@BEMXZ$0A@@function_detail@sol@@SAHPAUlua_State@@@Z 100f84a0 f i lua.obj
 0001:000f7530       ?call@?$upvalue_this_member_variable@UImVec3@@PQ1@M$0A@@function_detail@sol@@SAHPAUlua_State@@@Z 100f8530 f i lua.obj
 0001:000f7570       ??$push@P8ImVec3@@BEMXZ$$V@?$unqualified_pusher@U?$user@P8ImVec3@@BEMXZ@sol@@X@stack@sol@@SAHPAUlua_State@@$$QAP8ImVec3@@BEMXZ@Z 100f8570 f i lua.obj
 0001:000f77d0       ??$push@P8ImVec3@@AEAAU1@XZ$$V@?$unqualified_pusher@U?$user@P8ImVec3@@AEAAU1@XZ@sol@@X@stack@sol@@SAHPAUlua_State@@$$QAP8ImVec3@@AEAAU4@XZ@Z 100f87d0 f i lua.obj
 0001:000f7a30       ??$push@P8col_t@@BEHXZ$$V@?$unqualified_pusher@U?$user@P8col_t@@BEHXZ@sol@@X@stack@sol@@SAHPAUlua_State@@$$QAP8col_t@@BEHXZ@Z 100f8a30 f i lua.obj
 0001:000f7c90       ??$push@P8cvar_t@valve@nem@@AEHXZ$$V@?$unqualified_pusher@U?$user@P8cvar_t@valve@nem@@AEHXZ@sol@@X@stack@sol@@SAHPAUlua_State@@$$QAP8cvar_t@valve@nem@@AEHXZ@Z 100f8c90 f i lua.obj
 0001:000f7ef0       ??$push@P8cvar_t@valve@nem@@AEMXZ$$V@?$unqualified_pusher@U?$user@P8cvar_t@valve@nem@@AEMXZ@sol@@X@stack@sol@@SAHPAUlua_State@@$$QAP8cvar_t@valve@nem@@AEMXZ@Z 100f8ef0 f i lua.obj
 0001:000f8150       ??$push@P8cvar_t@valve@nem@@AEPBDXZ$$V@?$unqualified_pusher@U?$user@P8cvar_t@valve@nem@@AEPBDXZ@sol@@X@stack@sol@@SAHPAUlua_State@@$$QAP8cvar_t@valve@nem@@AEPBDXZ@Z 100f9150 f i lua.obj
 0001:000f83b0       ??$push@P8cvar_t@valve@nem@@AEXH@Z$$V@?$unqualified_pusher@U?$user@P8cvar_t@valve@nem@@AEXH@Z@sol@@X@stack@sol@@SAHPAUlua_State@@$$QAP8cvar_t@valve@nem@@AEXH@Z@Z 100f93b0 f i lua.obj
 0001:000f8610       ??$push@P8cvar_t@valve@nem@@AEXM@Z$$V@?$unqualified_pusher@U?$user@P8cvar_t@valve@nem@@AEXM@Z@sol@@X@stack@sol@@SAHPAUlua_State@@$$QAP8cvar_t@valve@nem@@AEXM@Z@Z 100f9610 f i lua.obj
 0001:000f8870       ??$push@P8cvar_t@valve@nem@@AEXPBD@Z$$V@?$unqualified_pusher@U?$user@P8cvar_t@valve@nem@@AEXPBD@Z@sol@@X@stack@sol@@SAHPAUlua_State@@$$QAP8cvar_t@valve@nem@@AEXPBD@Z@Z 100f9870 f i lua.obj
 0001:000f8ad0       ?real_call@?$upvalue_this_member_variable@Ulua_user_cmd_t@nem@@PQ12@_N$0A@@function_detail@sol@@SAHPAUlua_State@@@Z 100f9ad0 f i lua.obj
 0001:000f8ba0       ?real_call@?$upvalue_this_member_variable@Ulua_user_cmd_t@nem@@PQ12@M$0A@@function_detail@sol@@SAHPAUlua_State@@@Z 100f9ba0 f i lua.obj
 0001:000f8c70       ?real_call@?$upvalue_this_member_variable@Ulua_user_cmd_t@nem@@PQ12@H$0A@@function_detail@sol@@SAHPAUlua_State@@@Z 100f9c70 f i lua.obj
 0001:000f8d50       ?real_call@?$upvalue_this_member_function@Ucvar_t@valve@nem@@P8123@AEXH@Z$0A@@function_detail@sol@@SAHPAUlua_State@@@Z 100f9d50 f i lua.obj
 0001:000f8dc0       ?real_call@?$upvalue_this_member_variable@UImVec3@@PQ1@M$0A@@function_detail@sol@@SAHPAUlua_State@@@Z 100f9dc0 f i lua.obj
 0001:000f8e90       ??$check@UImVec3@@P6AHPAUlua_State@@HW4type@sol@@1PBD@_E@?$unqualified_checker@U?$as_value_tag@UImVec3@@@detail@sol@@$06X@stack@sol@@SA_NU?$types@UImVec3@@@2@PAUlua_State@@HW4type@2@$$QAP6AH1H22PBD@_EAAUrecord@12@@Z 100f9e90 f i lua.obj
 0001:000f9080       ??$check@Ucol_t@@P6AHPAUlua_State@@HW4type@sol@@1PBD@_E@?$unqualified_checker@U?$as_value_tag@Ucol_t@@@detail@sol@@$06X@stack@sol@@SA_NU?$types@Ucol_t@@@2@PAUlua_State@@HW4type@2@$$QAP6AH1H22PBD@_EAAUrecord@12@@Z 100fa080 f i lua.obj
 0001:000f9270       ??$check@Ucvar_t@valve@nem@@P6AHPAUlua_State@@HW4type@sol@@1PBD@_E@?$unqualified_checker@U?$as_value_tag@Ucvar_t@valve@nem@@@detail@sol@@$06X@stack@sol@@SA_NU?$types@Ucvar_t@valve@nem@@@2@PAUlua_State@@HW4type@2@$$QAP6AH1H22PBD@_EAAUrecord@12@@Z 100fa270 f i lua.obj
 0001:000f9460       ??$check_metatable@U?$as_container_t@UImVec3@@@sol@@$00@stack_detail@stack@sol@@YA_NPAUlua_State@@H@Z 100fa460 f i lua.obj
 0001:000f9570       ??$check@UImVec3@@AAP6AHPAUlua_State@@HW4type@sol@@1PBD@_E@?$unqualified_checker@U?$as_value_tag@UImVec3@@@detail@sol@@$06X@stack@sol@@SA_NU?$types@UImVec3@@@2@PAUlua_State@@HW4type@2@AAP6AH1H22PBD@_EAAUrecord@12@@Z 100fa570 f i lua.obj
 0001:000f9770       ??$check_metatable@U?$as_container_t@Ucol_t@@@sol@@$00@stack_detail@stack@sol@@YA_NPAUlua_State@@H@Z 100fa770 f i lua.obj
 0001:000f9880       ??$check@Ucol_t@@AAP6AHPAUlua_State@@HW4type@sol@@1PBD@_E@?$unqualified_checker@U?$as_value_tag@Ucol_t@@@detail@sol@@$06X@stack@sol@@SA_NU?$types@Ucol_t@@@2@PAUlua_State@@HW4type@2@AAP6AH1H22PBD@_EAAUrecord@12@@Z 100fa880 f i lua.obj
 0001:000f9a80       ??$check_metatable@U?$as_container_t@Ucvar_t@valve@nem@@@sol@@$00@stack_detail@stack@sol@@YA_NPAUlua_State@@H@Z 100faa80 f i lua.obj
 0001:000f9b90       ??$check@Ucvar_t@valve@nem@@AAP6AHPAUlua_State@@HW4type@sol@@1PBD@_E@?$unqualified_checker@U?$as_value_tag@Ucvar_t@valve@nem@@@detail@sol@@$06X@stack@sol@@SA_NU?$types@Ucvar_t@valve@nem@@@2@PAUlua_State@@HW4type@2@AAP6AH1H22PBD@_EAAUrecord@12@@Z 100fab90 f i lua.obj
 0001:000f9d90       ??$demangle@P8cvar_t@valve@nem@@AEXPBD@Z@detail@sol@@YAABV?$basic_string@DU?$char_traits@D@std@@V?$allocator@D@2@@std@@XZ 100fad90 f i lua.obj
 0001:000f9e60       ??$demangle@P8cvar_t@valve@nem@@AEXM@Z@detail@sol@@YAABV?$basic_string@DU?$char_traits@D@std@@V?$allocator@D@2@@std@@XZ 100fae60 f i lua.obj
 0001:000f9f30       ??$demangle@P8cvar_t@valve@nem@@AEXH@Z@detail@sol@@YAABV?$basic_string@DU?$char_traits@D@std@@V?$allocator@D@2@@std@@XZ 100faf30 f i lua.obj
 0001:000fa000       ??$demangle@P8cvar_t@valve@nem@@AEPBDXZ@detail@sol@@YAABV?$basic_string@DU?$char_traits@D@std@@V?$allocator@D@2@@std@@XZ 100fb000 f i lua.obj
 0001:000fa0d0       ??$demangle@P8cvar_t@valve@nem@@AEMXZ@detail@sol@@YAABV?$basic_string@DU?$char_traits@D@std@@V?$allocator@D@2@@std@@XZ 100fb0d0 f i lua.obj
 0001:000fa1a0       ??$demangle@P8cvar_t@valve@nem@@AEHXZ@detail@sol@@YAABV?$basic_string@DU?$char_traits@D@std@@V?$allocator@D@2@@std@@XZ 100fb1a0 f i lua.obj
 0001:000fa270       ??$demangle@P8col_t@@BEHXZ@detail@sol@@YAABV?$basic_string@DU?$char_traits@D@std@@V?$allocator@D@2@@std@@XZ 100fb270 f i lua.obj
 0001:000fa340       ??$demangle@P8ImVec3@@AEAAU1@XZ@detail@sol@@YAABV?$basic_string@DU?$char_traits@D@std@@V?$allocator@D@2@@std@@XZ 100fb340 f i lua.obj
 0001:000fa410       ??$demangle@P8ImVec3@@BEMXZ@detail@sol@@YAABV?$basic_string@DU?$char_traits@D@std@@V?$allocator@D@2@@std@@XZ 100fb410 f i lua.obj
 0001:000fa4e0       ??$set_undefined_methods_on@PAUImVec3@@@stack_detail@stack@sol@@YAXVstack_reference@2@@Z 100fb4e0 f i lua.obj
 0001:000fa5e0       ??$usertype_allocate_pointer@UImVec3@@@detail@sol@@YAPAPAUImVec3@@PAUlua_State@@@Z 100fb5e0 f i lua.obj
 0001:000fa730       ?call@?$upvalue_free_function@P6A?AV?$vector@HV?$allocator@H@std@@@std@@PBD@Z$0A@@function_detail@sol@@SAHPAUlua_State@@@Z 100fb730 f i lua.obj
 0001:000fa770       ?call@?$upvalue_free_function@P6A?AV?$vector@HV?$allocator@H@std@@@std@@_N@Z$0A@@function_detail@sol@@SAHPAUlua_State@@@Z 100fb770 f i lua.obj
 0001:000fa7b0       ?call@?$upvalue_free_function@P6A?AUImVec3@@H@Z$0A@@function_detail@sol@@SAHPAUlua_State@@@Z 100fb7b0 f i lua.obj
 0001:000fa7f0       ?call@?$upvalue_free_function@P6APBDH@Z$0A@@function_detail@sol@@SAHPAUlua_State@@@Z 100fb7f0 f i lua.obj
 0001:000fa830       ?call@?$upvalue_free_function@P6A_NH@Z$0A@@function_detail@sol@@SAHPAUlua_State@@@Z 100fb830 f i lua.obj
 0001:000fa870       ?call@?$upvalue_free_function@P6AXHPBDABV?$variant@UImVec3@@HM@std@@I@Z$0A@@function_detail@sol@@SAHPAUlua_State@@@Z 100fb870 f i lua.obj
 0001:000fa8b0       ?call@?$upvalue_free_function@P6A?AV?$variant@UImVec3@@HM@std@@HPBDI@Z$0A@@function_detail@sol@@SAHPAUlua_State@@@Z 100fb8b0 f i lua.obj
 0001:000fa8f0       ?call@?$upvalue_free_function@P6AHXZ$0A@@function_detail@sol@@SAHPAUlua_State@@@Z 100fb8f0 f i lua.obj
 0001:000fa950       ?call@?$upvalue_free_function@P6AXXZ$0A@@function_detail@sol@@SAHPAUlua_State@@@Z 100fb950 f i lua.obj
 0001:000fa9a0       ?call@?$upvalue_free_function@P6AXPBD@Z$0A@@function_detail@sol@@SAHPAUlua_State@@@Z 100fb9a0 f i lua.obj
 0001:000faa10       ?call@?$upvalue_free_function@P6A?AUImVec3@@XZ$0A@@function_detail@sol@@SAHPAUlua_State@@@Z 100fba10 f i lua.obj
 0001:000faa50       ?call@?$upvalue_free_function@P6AXV?$basic_string_view@DU?$char_traits@D@std@@@std@@AAUcol_t@@@Z$0A@@function_detail@sol@@SAHPAUlua_State@@@Z 100fba50 f i lua.obj
 0001:000faa90       ?call@?$upvalue_free_function@P6AMMM@Z$0A@@function_detail@sol@@SAHPAUlua_State@@@Z 100fba90 f i lua.obj
 0001:000faad0       ?call@?$upvalue_free_function@P6AHHH@Z$0A@@function_detail@sol@@SAHPAUlua_State@@@Z 100fbad0 f i lua.obj
 0001:000fab10       ?call@?$upvalue_free_function@P6AMXZ$0A@@function_detail@sol@@SAHPAUlua_State@@@Z 100fbb10 f i lua.obj
 0001:000fab90       ?call@?$upvalue_free_function@P6A?AUImVec3@@AAU1@@Z$0A@@function_detail@sol@@SAHPAUlua_State@@@Z 100fbb90 f i lua.obj
 0001:000fabd0       ?call@?$upvalue_free_function@P6AXMMAAUcol_t@@V?$basic_string_view@DU?$char_traits@D@std@@@std@@H_N@Z$0A@@function_detail@sol@@SAHPAUlua_State@@@Z 100fbbd0 f i lua.obj
 0001:000fac10       ?call@?$upvalue_free_function@P6AXMMMMAAUcol_t@@@Z$0A@@function_detail@sol@@SAHPAUlua_State@@@Z 100fbc10 f i lua.obj
 0001:000fac50       ?call@?$upvalue_free_function@P6AXMMMMAAUcol_t@@M@Z$0A@@function_detail@sol@@SAHPAUlua_State@@@Z 100fbc50 f i lua.obj
 0001:000fac90       ?call@?$upvalue_free_function@P6APAUcvar_t@valve@nem@@PBD@Z$0A@@function_detail@sol@@SAHPAUlua_State@@@Z 100fbc90 f i lua.obj
 0001:000facd0       ?call@?$upvalue_free_function@P6A_NXZ$0A@@function_detail@sol@@SAHPAUlua_State@@@Z 100fbcd0 f i lua.obj
 0001:000fad40       ?call@?$upvalue_free_function@P6AXM@Z$0A@@function_detail@sol@@SAHPAUlua_State@@@Z 100fbd40 f i lua.obj
 0001:000fb010       ?real_call@?$upvalue_free_function@P6A?AV?$vector@HV?$allocator@H@std@@@std@@PBD@Z$0A@@function_detail@sol@@SAHPAUlua_State@@@Z 100fc010 f i lua.obj
 0001:000fb090       ?real_call@?$upvalue_free_function@P6A?AV?$vector@HV?$allocator@H@std@@@std@@_N@Z$0A@@function_detail@sol@@SAHPAUlua_State@@@Z 100fc090 f i lua.obj
 0001:000fb110       ?real_call@?$upvalue_free_function@P6A?AUImVec3@@H@Z$0A@@function_detail@sol@@SAHPAUlua_State@@@Z 100fc110 f i lua.obj
 0001:000fb1b0       ?real_call@?$upvalue_free_function@P6APBDH@Z$0A@@function_detail@sol@@SAHPAUlua_State@@@Z 100fc1b0 f i lua.obj
 0001:000fb250       ?real_call@?$upvalue_free_function@P6A_NH@Z$0A@@function_detail@sol@@SAHPAUlua_State@@@Z 100fc250 f i lua.obj
 0001:000fb2b0       ?real_call@?$upvalue_free_function@P6AXHPBDABV?$variant@UImVec3@@HM@std@@I@Z$0A@@function_detail@sol@@SAHPAUlua_State@@@Z 100fc2b0 f i lua.obj
 0001:000fb360       ?real_call@?$upvalue_free_function@P6A?AV?$variant@UImVec3@@HM@std@@HPBDI@Z$0A@@function_detail@sol@@SAHPAUlua_State@@@Z 100fc360 f i lua.obj
 0001:000fb490       ?real_call@?$upvalue_free_function@P6A?AUImVec3@@XZ$0A@@function_detail@sol@@SAHPAUlua_State@@@Z 100fc490 f i lua.obj
 0001:000fb510       ?real_call@?$upvalue_free_function@P6AXV?$basic_string_view@DU?$char_traits@D@std@@@std@@AAUcol_t@@@Z$0A@@function_detail@sol@@SAHPAUlua_State@@@Z 100fc510 f i lua.obj
 0001:000fb570       ?real_call@?$upvalue_free_function@P6AMMM@Z$0A@@function_detail@sol@@SAHPAUlua_State@@@Z 100fc570 f i lua.obj
 0001:000fb5f0       ?real_call@?$upvalue_free_function@P6AHHH@Z$0A@@function_detail@sol@@SAHPAUlua_State@@@Z 100fc5f0 f i lua.obj
 0001:000fb660       ?real_call@?$upvalue_free_function@P6A?AUImVec3@@AAU1@@Z$0A@@function_detail@sol@@SAHPAUlua_State@@@Z 100fc660 f i lua.obj
 0001:000fb700       ?real_call@?$upvalue_free_function@P6AXMMAAUcol_t@@V?$basic_string_view@DU?$char_traits@D@std@@@std@@H_N@Z$0A@@function_detail@sol@@SAHPAUlua_State@@@Z 100fc700 f i lua.obj
 0001:000fb7d0       ?real_call@?$upvalue_free_function@P6AXMMMMAAUcol_t@@@Z$0A@@function_detail@sol@@SAHPAUlua_State@@@Z 100fc7d0 f i lua.obj
 0001:000fb880       ?real_call@?$upvalue_free_function@P6AXMMMMAAUcol_t@@M@Z$0A@@function_detail@sol@@SAHPAUlua_State@@@Z 100fc880 f i lua.obj
 0001:000fb950       ?real_call@?$upvalue_free_function@P6APAUcvar_t@valve@nem@@PBD@Z$0A@@function_detail@sol@@SAHPAUlua_State@@@Z 100fc950 f i lua.obj
 0001:000fbe00       ??$push_reference@V?$vector@HV?$allocator@H@std@@@std@@$$V@stack@sol@@YAHPAUlua_State@@$$QAV?$vector@HV?$allocator@H@std@@@std@@@Z 100fce00 f i lua.obj
 0001:000fbf20       ??$set_undefined_methods_on@PAUcvar_t@valve@nem@@@stack_detail@stack@sol@@YAXVstack_reference@2@@Z 100fcf20 f i lua.obj
 0001:000fc020       ??$_Dispatch2@HUpush_function@stack_detail@stack@sol@@V?$variant@UImVec3@@HM@std@@$00@?$_Variant_dispatcher@U?$integer_sequence@I$0A@@std@@@std@@SAH$$QAUpush_function@stack_detail@stack@sol@@$$QAV?$variant@UImVec3@@HM@1@@Z 100fd020 f i lua.obj
 0001:000fc030       ??R?$metatable_setup@V?$vector@HV?$allocator@H@std@@@std@@$0A@@stack_detail@stack@sol@@QAEXXZ 100fd030 f i lua.obj
 0001:000fc1f0       ??$demangle@V?$vector@HV?$allocator@H@std@@@std@@@detail@sol@@YAABV?$basic_string@DU?$char_traits@D@std@@V?$allocator@D@2@@std@@XZ 100fd1f0 f i lua.obj
 0001:000fc2c0       ??$usertype_alloc_destruct@V?$vector@HV?$allocator@H@std@@@std@@@detail@sol@@YAHPAUlua_State@@@Z 100fd2c0 f i lua.obj
 0001:000fc2f0       ?new_index_call@?$u_c_launch@V?$vector@HV?$allocator@H@std@@@std@@@container_detail@sol@@SAHPAUlua_State@@@Z 100fd2f0 f i lua.obj
 0001:000fc2f0       ?set_call@?$u_c_launch@V?$vector@HV?$allocator@H@std@@@std@@@container_detail@sol@@SAHPAUlua_State@@@Z 100fd2f0 f i lua.obj
 0001:000fc330       ?index_call@?$u_c_launch@V?$vector@HV?$allocator@H@std@@@std@@@container_detail@sol@@SAHPAUlua_State@@@Z 100fd330 f i lua.obj
 0001:000fc370       ?get_call@?$u_c_launch@V?$vector@HV?$allocator@H@std@@@std@@@container_detail@sol@@SAHPAUlua_State@@@Z 100fd370 f i lua.obj
 0001:000fc3b0       ?at_call@?$u_c_launch@V?$vector@HV?$allocator@H@std@@@std@@@container_detail@sol@@SAHPAUlua_State@@@Z 100fd3b0 f i lua.obj
 0001:000fc3f0       ?next_call@?$u_c_launch@V?$vector@HV?$allocator@H@std@@@std@@@container_detail@sol@@SAHPAUlua_State@@@Z 100fd3f0 f i lua.obj
 0001:000fc410       ?ipairs_call@?$u_c_launch@V?$vector@HV?$allocator@H@std@@@std@@@container_detail@sol@@SAHPAUlua_State@@@Z 100fd410 f i lua.obj
 0001:000fc410       ?pairs_call@?$u_c_launch@V?$vector@HV?$allocator@H@std@@@std@@@container_detail@sol@@SAHPAUlua_State@@@Z 100fd410 f i lua.obj
 0001:000fc450       ?length_call@?$u_c_launch@V?$vector@HV?$allocator@H@std@@@std@@@container_detail@sol@@SAHPAUlua_State@@@Z 100fd450 f i lua.obj
 0001:000fc4c0       ?find_call@?$u_c_launch@V?$vector@HV?$allocator@H@std@@@std@@@container_detail@sol@@SAHPAUlua_State@@@Z 100fd4c0 f i lua.obj
 0001:000fc4c0       ?index_of_call@?$u_c_launch@V?$vector@HV?$allocator@H@std@@@std@@@container_detail@sol@@SAHPAUlua_State@@@Z 100fd4c0 f i lua.obj
 0001:000fc500       ?empty_call@?$u_c_launch@V?$vector@HV?$allocator@H@std@@@std@@@container_detail@sol@@SAHPAUlua_State@@@Z 100fd500 f i lua.obj
 0001:000fc570       ?clear_call@?$u_c_launch@V?$vector@HV?$allocator@H@std@@@std@@@container_detail@sol@@SAHPAUlua_State@@@Z 100fd570 f i lua.obj
 0001:000fc5d0       ?insert_call@?$u_c_launch@V?$vector@HV?$allocator@H@std@@@std@@@container_detail@sol@@SAHPAUlua_State@@@Z 100fd5d0 f i lua.obj
 0001:000fc610       ?erase_call@?$u_c_launch@V?$vector@HV?$allocator@H@std@@@std@@@container_detail@sol@@SAHPAUlua_State@@@Z 100fd610 f i lua.obj
 0001:000fc650       ?add_call@?$u_c_launch@V?$vector@HV?$allocator@H@std@@@std@@@container_detail@sol@@SAHPAUlua_State@@@Z 100fd650 f i lua.obj
 0001:000fc690       ?real_index_of_call@?$u_c_launch@V?$vector@HV?$allocator@H@std@@@std@@@container_detail@sol@@SAHPAUlua_State@@@Z 100fd690 f i lua.obj
 0001:000fc6a0       ?real_find_call@?$u_c_launch@V?$vector@HV?$allocator@H@std@@@std@@@container_detail@sol@@SAHPAUlua_State@@@Z 100fd6a0 f i lua.obj
 0001:000fc6c0       ?real_erase_call@?$u_c_launch@V?$vector@HV?$allocator@H@std@@@std@@@container_detail@sol@@SAHPAUlua_State@@@Z 100fd6c0 f i lua.obj
 0001:000fc6e0       ?real_empty_call@?$u_c_launch@V?$vector@HV?$allocator@H@std@@@std@@@container_detail@sol@@SAHPAUlua_State@@@Z 100fd6e0 f i lua.obj
 0001:000fc720       ?real_clear_call@?$u_c_launch@V?$vector@HV?$allocator@H@std@@@std@@@container_detail@sol@@SAHPAUlua_State@@@Z 100fd720 f i lua.obj
 0001:000fc760       ?real_insert_call@?$u_c_launch@V?$vector@HV?$allocator@H@std@@@std@@@container_detail@sol@@SAHPAUlua_State@@@Z 100fd760 f i lua.obj
 0001:000fc780       ?real_add_call@?$u_c_launch@V?$vector@HV?$allocator@H@std@@@std@@@container_detail@sol@@SAHPAUlua_State@@@Z 100fd780 f i lua.obj
 0001:000fc7a0       ?real_length_call@?$u_c_launch@V?$vector@HV?$allocator@H@std@@@std@@@container_detail@sol@@SAHPAUlua_State@@@Z 100fd7a0 f i lua.obj
 0001:000fc7e0       ?real_ipairs_call@?$u_c_launch@V?$vector@HV?$allocator@H@std@@@std@@@container_detail@sol@@SAHPAUlua_State@@@Z 100fd7e0 f i lua.obj
 0001:000fc7e0       ?real_pairs_call@?$u_c_launch@V?$vector@HV?$allocator@H@std@@@std@@@container_detail@sol@@SAHPAUlua_State@@@Z 100fd7e0 f i lua.obj
 0001:000fc850       ?real_set_call@?$u_c_launch@V?$vector@HV?$allocator@H@std@@@std@@@container_detail@sol@@SAHPAUlua_State@@@Z 100fd850 f i lua.obj
 0001:000fc870       ?real_get_call@?$u_c_launch@V?$vector@HV?$allocator@H@std@@@std@@@container_detail@sol@@SAHPAUlua_State@@@Z 100fd870 f i lua.obj
 0001:000fc890       ?real_at_call@?$u_c_launch@V?$vector@HV?$allocator@H@std@@@std@@@container_detail@sol@@SAHPAUlua_State@@@Z 100fd890 f i lua.obj
 0001:000fc8b0       ?real_index_call@?$u_c_launch@V?$vector@HV?$allocator@H@std@@@std@@@container_detail@sol@@SAHPAUlua_State@@@Z 100fd8b0 f i lua.obj
 0001:000fcb80       ??1?$_Hash@V?$_Umap_traits@V?$basic_string_view@DU?$char_traits@D@std@@@std@@P6AHPAUlua_State@@@ZV?$_Uhash_compare@V?$basic_string_view@DU?$char_traits@D@std@@@std@@U?$hash@V?$basic_string_view@DU?$char_traits@D@std@@@std@@@2@U?$equal_to@V?$basic_string_view@DU?$char_traits@D@std@@@std@@@2@@2@V?$allocator@U?$pair@$$CBV?$basic_string_view@DU?$char_traits@D@std@@@std@@P6AHPAUlua_State@@@Z@std@@@2@$0A@@std@@@std@@QAE@XZ 100fdb80 f i lua.obj
 0001:000fcbd0       ??1?$list@U?$pair@$$CBV?$basic_string_view@DU?$char_traits@D@std@@@std@@P6AHPAUlua_State@@@Z@std@@V?$allocator@U?$pair@$$CBV?$basic_string_view@DU?$char_traits@D@std@@@std@@P6AHPAUlua_State@@@Z@std@@@2@@std@@QAE@XZ 100fdbd0 f i lua.obj
 0001:000fcc10       ?find@?$usertype_container_default@V?$vector@HV?$allocator@H@std@@@std@@X@container_detail@sol@@SAHPAUlua_State@@@Z 100fdc10 f i lua.obj
 0001:000fcc10       ?index_of@?$usertype_container_default@V?$vector@HV?$allocator@H@std@@@std@@X@container_detail@sol@@SAHPAUlua_State@@@Z 100fdc10 f i lua.obj
 0001:000fcca0       ??$check@UImVec3@@A6AHPAUlua_State@@HW4type@sol@@1PBD@_E@?$unqualified_checker@U?$as_value_tag@UImVec3@@@detail@sol@@$06X@stack@sol@@SA_NU?$types@UImVec3@@@2@PAUlua_State@@HW4type@2@A6AH1H22PBD@_EAAUrecord@12@@Z 100fdca0 f i lua.obj
 0001:000fcea0       ??$_Find@V?$basic_string_view@DU?$char_traits@D@std@@@std@@@?$_Hash@V?$_Umap_traits@V?$basic_string_view@DU?$char_traits@D@std@@@std@@P6AHPAUlua_State@@@ZV?$_Uhash_compare@V?$basic_string_view@DU?$char_traits@D@std@@@std@@U?$hash@V?$basic_string_view@DU?$char_traits@D@std@@@std@@@2@U?$equal_to@V?$basic_string_view@DU?$char_traits@D@std@@@std@@@2@@2@V?$allocator@U?$pair@$$CBV?$basic_string_view@DU?$char_traits@D@std@@@std@@P6AHPAUlua_State@@@Z@std@@@2@$0A@@std@@@std@@ABEPAU?$_List_node@U?$pair@$$CBV?$basic_string_view@DU?$char_traits@D@std@@@std@@P6AHPAUlua_State@@@Z@std@@PAX@1@ABV?$basic_string_view@DU?$char_traits@D@std@@@1@I@Z 100fdea0 f i lua.obj
 0001:000fced0       ?erase@?$usertype_container_default@V?$vector@HV?$allocator@H@std@@@std@@X@container_detail@sol@@SAHPAUlua_State@@@Z 100fded0 f i lua.obj
 0001:000fcf50       ?insert@?$usertype_container_default@V?$vector@HV?$allocator@H@std@@@std@@X@container_detail@sol@@SAHPAUlua_State@@@Z 100fdf50 f i lua.obj
 0001:000fd030       ?add@?$usertype_container_default@V?$vector@HV?$allocator@H@std@@@std@@X@container_detail@sol@@SAHPAUlua_State@@@Z 100fe030 f i lua.obj
 0001:000fd0a0       ?set@?$usertype_container_default@V?$vector@HV?$allocator@H@std@@@std@@X@container_detail@sol@@SAHPAUlua_State@@@Z 100fe0a0 f i lua.obj
 0001:000fd230       ?get@?$usertype_container_default@V?$vector@HV?$allocator@H@std@@@std@@X@container_detail@sol@@SAHPAUlua_State@@@Z 100fe230 f i lua.obj
 0001:000fd2c0       ?at@?$usertype_container_default@V?$vector@HV?$allocator@H@std@@@std@@X@container_detail@sol@@SAHPAUlua_State@@@Z 100fe2c0 f i lua.obj
 0001:000fd350       ??$_Find_last@V?$basic_string_view@DU?$char_traits@D@std@@@std@@@?$_Hash@V?$_Umap_traits@V?$basic_string_view@DU?$char_traits@D@std@@@std@@P6AHPAUlua_State@@@ZV?$_Uhash_compare@V?$basic_string_view@DU?$char_traits@D@std@@@std@@U?$hash@V?$basic_string_view@DU?$char_traits@D@std@@@std@@@2@U?$equal_to@V?$basic_string_view@DU?$char_traits@D@std@@@std@@@2@@2@V?$allocator@U?$pair@$$CBV?$basic_string_view@DU?$char_traits@D@std@@@std@@P6AHPAUlua_State@@@Z@std@@@2@$0A@@std@@@std@@IBE?AU?$_Hash_find_last_result@PAU?$_List_node@U?$pair@$$CBV?$basic_string_view@DU?$char_traits@D@std@@@std@@P6AHPAUlua_State@@@Z@std@@PAX@std@@@1@ABV?$basic_string_view@DU?$char_traits@D@std@@@1@I@Z 100fe350 f i lua.obj
 0001:000fd400       ??$_Insert_range_unchecked@PBU?$pair@$$CBV?$basic_string_view@DU?$char_traits@D@std@@@std@@P6AHPAUlua_State@@@Z@std@@PBU12@@?$_Hash@V?$_Umap_traits@V?$basic_string_view@DU?$char_traits@D@std@@@std@@P6AHPAUlua_State@@@ZV?$_Uhash_compare@V?$basic_string_view@DU?$char_traits@D@std@@@std@@U?$hash@V?$basic_string_view@DU?$char_traits@D@std@@@std@@@2@U?$equal_to@V?$basic_string_view@DU?$char_traits@D@std@@@std@@@2@@2@V?$allocator@U?$pair@$$CBV?$basic_string_view@DU?$char_traits@D@std@@@std@@P6AHPAUlua_State@@@Z@std@@@2@$0A@@std@@@std@@IAEXPBU?$pair@$$CBV?$basic_string_view@DU?$char_traits@D@std@@@std@@P6AHPAUlua_State@@@Z@1@QBU21@@Z 100fe400 f i lua.obj
 0001:000fd430       ??$next_iter@$00@?$usertype_container_default@V?$vector@HV?$allocator@H@std@@@std@@X@container_detail@sol@@CAHPAUlua_State@@@Z 100fe430 f i lua.obj
 0001:000fd430       ??$next_iter@$0A@@?$usertype_container_default@V?$vector@HV?$allocator@H@std@@@std@@X@container_detail@sol@@CAHPAUlua_State@@@Z 100fe430 f i lua.obj
 0001:000fd4c0       ?add_copyable@?$usertype_container_default@V?$vector@HV?$allocator@H@std@@@std@@X@container_detail@sol@@CA?AUerror_result@detail@3@U?$integral_constant@_N$00@std@@PAUlua_State@@AAV?$vector@HV?$allocator@H@std@@@7@V?$basic_object@Vstack_reference@sol@@@3@@Z 100fe4c0 f i lua.obj
 0001:000fd530       ??$emplace@ABU?$pair@$$CBV?$basic_string_view@DU?$char_traits@D@std@@@std@@P6AHPAUlua_State@@@Z@std@@@?$_Hash@V?$_Umap_traits@V?$basic_string_view@DU?$char_traits@D@std@@@std@@P6AHPAUlua_State@@@ZV?$_Uhash_compare@V?$basic_string_view@DU?$char_traits@D@std@@@std@@U?$hash@V?$basic_string_view@DU?$char_traits@D@std@@@std@@@2@U?$equal_to@V?$basic_string_view@DU?$char_traits@D@std@@@std@@@2@@2@V?$allocator@U?$pair@$$CBV?$basic_string_view@DU?$char_traits@D@std@@@std@@P6AHPAUlua_State@@@Z@std@@@2@$0A@@std@@@std@@QAE?AU?$pair@V?$_List_iterator@V?$_List_val@U?$_List_simple_types@U?$pair@$$CBV?$basic_string_view@DU?$char_traits@D@std@@@std@@P6AHPAUlua_State@@@Z@std@@@std@@@std@@@std@@_N@1@ABU?$pair@$$CBV?$basic_string_view@DU?$char_traits@D@std@@@std@@P6AHPAUlua_State@@@Z@1@@Z 100fe530 f i lua.obj
 0001:000fd6e0       ?get_no_lua_nil_from@?$unqualified_getter@U?$as_value_tag@V?$vector@HV?$allocator@H@std@@@std@@@detail@sol@@X@stack@sol@@SAPAV?$vector@HV?$allocator@H@std@@@std@@PAUlua_State@@PAXHAAUrecord@23@@Z 100fe6e0 f i lua.obj
 0001:000fd7d0       ??$push@AAV?$vector@HV?$allocator@H@std@@@std@@V?$_Vector_iterator@V?$_Vector_val@U?$_Simple_types@H@std@@@std@@@2@@?$unqualified_pusher@U?$user@Uiter@?$usertype_container_default@V?$vector@HV?$allocator@H@std@@@std@@X@container_detail@sol@@@sol@@X@stack@sol@@SAHPAUlua_State@@AAV?$vector@HV?$allocator@H@std@@@std@@$$QAV?$_Vector_iterator@V?$_Vector_val@U?$_Simple_types@H@std@@@std@@@5@@Z 100fe7d0 f i lua.obj
 0001:000fd990       ??1?$_Alloc_construct_ptr@V?$allocator@U?$_List_node@U?$pair@$$CBV?$basic_string_view@DU?$char_traits@D@std@@@std@@P6AHPAUlua_State@@@Z@std@@PAX@std@@@std@@@std@@QAE@XZ 100fe990 f i lua.obj
 0001:000fd990       ??1?$_List_node_emplace_op2@V?$allocator@U?$_List_node@U?$pair@$$CBV?$basic_string_view@DU?$char_traits@D@std@@@std@@P6AHPAUlua_State@@@Z@std@@PAX@std@@@std@@@std@@QAE@XZ 100fe990 f i lua.obj
 0001:000fd9b0       ?_Forced_rehash@?$_Hash@V?$_Umap_traits@V?$basic_string_view@DU?$char_traits@D@std@@@std@@P6AHPAUlua_State@@@ZV?$_Uhash_compare@V?$basic_string_view@DU?$char_traits@D@std@@@std@@U?$hash@V?$basic_string_view@DU?$char_traits@D@std@@@std@@@2@U?$equal_to@V?$basic_string_view@DU?$char_traits@D@std@@@std@@@2@@2@V?$allocator@U?$pair@$$CBV?$basic_string_view@DU?$char_traits@D@std@@@std@@P6AHPAUlua_State@@@Z@std@@@2@$0A@@std@@@std@@IAEXI@Z 100fe9b0 f i lua.obj
 0001:000fdb10       ??$user_allocate@Uiter@?$usertype_container_default@V?$vector@HV?$allocator@H@std@@@std@@X@container_detail@sol@@@detail@sol@@YAPAUiter@?$usertype_container_default@V?$vector@HV?$allocator@H@std@@@std@@X@container_detail@1@PAUlua_State@@@Z 100feb10 f i lua.obj
 0001:000fdbf0       ??$demangle@Uiter@?$usertype_container_default@V?$vector@HV?$allocator@H@std@@@std@@X@container_detail@sol@@@detail@sol@@YAABV?$basic_string@DU?$char_traits@D@std@@V?$allocator@D@2@@std@@XZ 100febf0 f i lua.obj
 0001:000fdcc0       ?_Throw_fs_error@filesystem@std@@YAXPBDABVerror_code@2@ABVpath@12@@Z 100fecc0 f i menu.obj
 0001:000fdd30       ?create_directories@filesystem@std@@YA_NABVpath@12@AAVerror_code@2@@Z 100fed30 f i menu.obj
 0001:000fdfb0       ?create_directories@filesystem@std@@YA_NABVpath@12@@Z 100fefb0 f i menu.obj
 0001:000fdff0       ?init@c_menu@nem@@QAEXQAUIDirect3DDevice9@@@Z 100feff0 f   menu.obj
 0001:000fe0d0       ??$_Convert_Source_to_wide@$$BY0P@DU_Normal_conversion@filesystem@std@@@filesystem@std@@YA?AV?$basic_string@_WU?$char_traits@_W@std@@V?$allocator@_W@2@@1@AAY0P@$$CBDU_Normal_conversion@01@@Z 100ff0d0 f i menu.obj
 0001:000fe100       ?GetInt@C_Var@@QAEAAHXZ    100ff100 f i Animations.obj
 0001:000fe120       ?GetFloat@C_Var@@QAEAAMXZ  100ff120 f i Animations.obj
 0001:000fe140       ?GetVec2@C_Var@@QAEAAUImVec2@@XZ 100ff140 f i Animations.obj
 0001:000fe160       ?GetVec4@C_Var@@QAEAAUImVec4@@XZ 100ff160 f i Animations.obj
 0001:000fe180       ?GetVar@C_Element@@QAEAAVC_Var@@I@Z 100ff180 f i Animations.obj
 0001:000fe1a0       ?InitializeAnimationCallbacks@C_Nl@@QAEXXZ 100ff1a0 f   Animations.obj
 0001:000fe7e0       ?ProcessAnimations@C_Nl@@QAEXXZ 100ff7e0 f   Animations.obj
 0001:000feb00       ??$GetRef@H@C_Var@@QAEPAHXZ 100ffb00 f i Keybinds.obj
 0001:000feb00       ??$GetRef@V?$vector@UC_BindComboItemProperty@@V?$allocator@UC_BindComboItemProperty@@@std@@@std@@@C_Var@@QAEPAV?$vector@UC_BindComboItemProperty@@V?$allocator@UC_BindComboItemProperty@@@std@@@std@@XZ 100ffb00 f i Animations.obj
 0001:000feb00       ??$GetRef@V?$vector@V?$basic_string@DU?$char_traits@D@std@@V?$allocator@D@2@@std@@V?$allocator@V?$basic_string@DU?$char_traits@D@std@@V?$allocator@D@2@@std@@@2@@std@@@C_Var@@QAEPAV?$vector@V?$basic_string@DU?$char_traits@D@std@@V?$allocator@D@2@@std@@V?$allocator@V?$basic_string@DU?$char_traits@D@std@@V?$allocator@D@2@@std@@@2@@std@@XZ 100ffb00 f i Keybinds.obj
 0001:000feb20       ??A?$map@IV?$function@$$A6AXPAVC_Animation@@M@Z@std@@U?$less@I@2@V?$allocator@U?$pair@$$CBIV?$function@$$A6AXPAVC_Animation@@M@Z@std@@@std@@@2@@std@@QAEAAV?$function@$$A6AXPAVC_Animation@@M@Z@1@$$QAI@Z 100ffb20 f i Animations.obj
 0001:000feb20       ??A?$map@IV?$function@$$A6AXPAVC_Element@@@Z@std@@U?$less@I@2@V?$allocator@U?$pair@$$CBIV?$function@$$A6AXPAVC_Element@@@Z@std@@@std@@@2@@std@@QAEAAV?$function@$$A6AXPAVC_Element@@@Z@1@$$QAI@Z 100ffb20 f i Initializers.obj
 0001:000fec00       ?at@?$vector@UC_BindComboItemProperty@@V?$allocator@UC_BindComboItemProperty@@@std@@@std@@QAEAAUC_BindComboItemProperty@@I@Z 100ffc00 f i Animations.obj
 0001:000fec00       ?at@?$vector@V?$basic_string@DU?$char_traits@D@std@@V?$allocator@D@2@@std@@V?$allocator@V?$basic_string@DU?$char_traits@D@std@@V?$allocator@D@2@@std@@@2@@std@@QAEAAV?$basic_string@DU?$char_traits@D@std@@V?$allocator@D@2@@2@I@Z 100ffc00 f i Keybinds.obj
 0001:000fec40       ??A?$map@IVC_Var@@U?$less@I@std@@V?$allocator@U?$pair@$$CBIVC_Var@@@std@@@3@@std@@QAEAAVC_Var@@$$QAI@Z 100ffc40 f i ColorPicker.obj
 0001:000fec40       ??A?$map@IVC_Var@@U?$less@I@std@@V?$allocator@U?$pair@$$CBIVC_Var@@@std@@@3@@std@@QAEAAVC_Var@@ABI@Z 100ffc40 f i Animations.obj
 0001:000fed20       ??$_Move_unchecked@PAVC_Animation@@PAV1@@std@@YAPAVC_Animation@@PAV1@00@Z 100ffd20 f i Animations.obj
 0001:000fee40       ?swap@?$function@$$A6AXPAVC_Animation@@M@Z@std@@QAEXAAV12@@Z 100ffe40 f i Animations.obj
 0001:000fee40       ?swap@?$function@$$A6AXPAVC_Element@@@Z@std@@QAEXAAV12@@Z 100ffe40 f i Initializers.obj
 0001:000fef50       ?_Delete_this@?$_Func_impl_no_alloc@P6AXPAVC_Element@@@ZXPAV1@@std@@EAEX_N@Z 100fff50 f   Initializers.obj
 0001:000fff50       ??1?$_Alloc_construct_ptr@V?$allocator@U?$_Tree_node@U?$pair@$$CBIVC_Var@@@std@@PAX@std@@@std@@@std@@QAE@XZ 10100f50 f i Animations.obj
 0001:000fff70       ??1?$_Alloc_construct_ptr@V?$allocator@U?$_Tree_node@U?$pair@$$CBIV?$function@$$A6AXPAVC_Animation@@@Z@std@@@std@@PAX@std@@@std@@@std@@QAE@XZ 10100f70 f i Animations.obj
 0001:000fff70       ??1?$_Alloc_construct_ptr@V?$allocator@U?$_Tree_node@U?$pair@$$CBIV?$function@$$A6AXPAVC_Animation@@M@Z@std@@@std@@PAX@std@@@std@@@std@@QAE@XZ 10100f70 f i Animations.obj
 0001:000fff70       ??1?$_Alloc_construct_ptr@V?$allocator@U?$_Tree_node@U?$pair@$$CBIV?$function@$$A6AXPAVC_Element@@@Z@std@@@std@@PAX@std@@@std@@@std@@QAE@XZ 10100f70 f i Initializers.obj
 0001:001000f0       ??4C_Var@@QAEAAV0@$$QAV0@@Z 101010f0 f i ColorPicker.obj
 0001:001001f0       ?ColorPickerWindowAlphaAnimate@C_Animation@@QAEAAV1@W4E_AnimationType@@MMMV?$function@$$A6AXPAVC_Animation@@@Z@std@@@Z 101011f0 f i ColorPicker.obj
 0001:001003d0       ??0C_Animation@@QAE@XZ     101013d0 f i ColorPicker.obj
 0001:001004c0       ?DrawColorpickerWindow@C_ColorPicker@@QAEXXZ 101014c0 f   ColorPicker.obj
 0001:00100d70       ?push_back@?$vector@VC_Animation@@V?$allocator@VC_Animation@@@std@@@std@@QAEXABVC_Animation@@@Z 10101d70 f i ColorPicker.obj
 0001:00100da0       ??A?$map@IV?$function@$$A6AXPAVC_Animation@@@Z@std@@U?$less@I@2@V?$allocator@U?$pair@$$CBIV?$function@$$A6AXPAVC_Animation@@@Z@std@@@std@@@2@@std@@QAEAAV?$function@$$A6AXPAVC_Animation@@@Z@1@$$QAI@Z 10101da0 f i ColorPicker.obj
 0001:00100da0       ??A?$map@IV?$function@$$A6AXPAVC_Element@@@Z@std@@U?$less@I@2@V?$allocator@U?$pair@$$CBIV?$function@$$A6AXPAVC_Element@@@Z@std@@@std@@@2@@std@@QAEAAV?$function@$$A6AXPAVC_Element@@@Z@1@ABI@Z 10101da0 f i Neverlose.obj
 0001:00100e50       ??4?$function@$$A6AXPAVC_Animation@@@Z@std@@QAEAAV01@ABV01@@Z 10101e50 f i ColorPicker.obj
 0001:00100fa0       ??$_Emplace_reallocate@ABVC_Animation@@@?$vector@VC_Animation@@V?$allocator@VC_Animation@@@std@@@std@@AAEPAVC_Animation@@QAV2@ABV2@@Z 10101fa0 f i ColorPicker.obj
 0001:001011f0       ??$_Copy@$0A@@?$_Tree@V?$_Tmap_traits@IVC_Var@@U?$less@I@std@@V?$allocator@U?$pair@$$CBIVC_Var@@@std@@@3@$0A@@std@@@std@@IAEXABV01@@Z 101021f0 f i ColorPicker.obj
 0001:001012e0       ??$_Uninitialized_move@PAVC_Animation@@V?$allocator@VC_Animation@@@std@@@std@@YAPAVC_Animation@@QAV1@0PAV1@AAV?$allocator@VC_Animation@@@0@@Z 101022e0 f i ColorPicker.obj
 0001:00101430       ??$_Copy_nodes@$0A@@?$_Tree@V?$_Tmap_traits@IVC_Var@@U?$less@I@std@@V?$allocator@U?$pair@$$CBIVC_Var@@@std@@@3@$0A@@std@@@std@@IAEPAU?$_Tree_node@U?$pair@$$CBIVC_Var@@@std@@PAX@1@PAU21@0@Z 10102430 f i ColorPicker.obj
 0001:00101590       ??1_Reallocation_guard@?$vector@VC_Animation@@V?$allocator@VC_Animation@@@std@@@std@@QAE@XZ 10102590 f i ColorPicker.obj
 0001:00101600       ??1?$_Erase_tree_and_orphan_guard@V?$allocator@U?$_Tree_node@U?$pair@$$CBIVC_Var@@@std@@PAX@std@@@std@@@?$_Tree_val@U?$_Tree_simple_types@U?$pair@$$CBIVC_Var@@@std@@@std@@@std@@QAE@XZ 10102600 f i ColorPicker.obj
 0001:00101620       ??1?$_Uninitialized_backout_al@V?$allocator@VC_Animation@@@std@@@std@@QAE@XZ 10102620 f i ColorPicker.obj
 0001:00101650       ??0C_Animation@@QAE@ABV0@@Z 10102650 f i ColorPicker.obj
 0001:001017d0       ??1?$_Tree_head_scoped_ptr@V?$allocator@U?$_Tree_node@U?$pair@$$CBIVC_Var@@@std@@PAX@std@@@std@@V?$_Tree_val@U?$_Tree_simple_types@U?$pair@$$CBIVC_Var@@@std@@@std@@@2@@std@@QAE@XZ 101027d0 f i ColorPicker.obj
 0001:00101800       ??1?$_Tree_head_scoped_ptr@V?$allocator@U?$_Tree_node@U?$pair@$$CBIV?$function@$$A6AXPAVC_Animation@@@Z@std@@@std@@PAX@std@@@std@@V?$_Tree_val@U?$_Tree_simple_types@U?$pair@$$CBIV?$function@$$A6AXPAVC_Animation@@@Z@std@@@std@@@std@@@2@@std@@QAE@XZ 10102800 f i ColorPicker.obj
 0001:00101830       ??$_Copy_nodes@$0A@@?$_Tree@V?$_Tmap_traits@IV?$function@$$A6AXPAVC_Animation@@@Z@std@@U?$less@I@2@V?$allocator@U?$pair@$$CBIV?$function@$$A6AXPAVC_Animation@@@Z@std@@@std@@@2@$0A@@std@@@std@@IAEPAU?$_Tree_node@U?$pair@$$CBIV?$function@$$A6AXPAVC_Animation@@@Z@std@@@std@@PAX@1@PAU21@0@Z 10102830 f i ColorPicker.obj
 0001:00101910       ??1?$_Erase_tree_and_orphan_guard@V?$allocator@U?$_Tree_node@U?$pair@$$CBIV?$function@$$A6AXPAVC_Animation@@@Z@std@@@std@@PAX@std@@@std@@@?$_Tree_val@U?$_Tree_simple_types@U?$pair@$$CBIV?$function@$$A6AXPAVC_Animation@@@Z@std@@@std@@@std@@@std@@QAE@XZ 10102910 f i ColorPicker.obj
 0001:00101930       ?GlobalAlphaController@C_Element@@QAEAAV1@XZ 10102930 f i Elements.obj
 0001:00101a60       ?OnSave@@YAXXZ             10102a60 f   Elements.obj
 0001:00101a70       ?OnLoad@@YAXXZ             10102a70 f   Elements.obj
 0001:00101a80       ?OnOpenCfgFolder@@YAXXZ    10102a80 f   Elements.obj
 0001:00101b60       ?InitializeElements@C_Nl@@QAEXXZ 10102b60 f   Elements.obj
 0001:0010e7a0       ?size@?$vector@VC_Element@@V?$allocator@VC_Element@@@std@@@std@@QBEIXZ 1010f7a0 f i Elements.obj
 0001:0010e7c0       ?push_back@?$vector@VC_Element@@V?$allocator@VC_Element@@@std@@@std@@QAEXABVC_Element@@@Z 1010f7c0 f i Elements.obj
 0001:0010e870       ??$_Emplace_one_at_back@ABVC_Element@@@?$vector@VC_Element@@V?$allocator@VC_Element@@@std@@@std@@AAEAAVC_Element@@ABV2@@Z 1010f870 f i Elements.obj
 0001:0010e920       ??$_Emplace_reallocate@ABVC_Element@@@?$vector@VC_Element@@V?$allocator@VC_Element@@@std@@@std@@AAEPAVC_Element@@QAV2@ABV2@@Z 1010f920 f i Elements.obj
 0001:0010ec00       ??$_Uninitialized_move@PAVC_Element@@V?$allocator@VC_Element@@@std@@@std@@YAPAVC_Element@@QAV1@0PAV1@AAV?$allocator@VC_Element@@@0@@Z 1010fc00 f i Elements.obj
 0001:0010ecc0       ??1_Reallocation_guard@?$vector@VC_Element@@V?$allocator@VC_Element@@@std@@@std@@QAE@XZ 1010fcc0 f i Elements.obj
 0001:0010ed20       ??1?$_Uninitialized_backout_al@V?$allocator@VC_Element@@@std@@@std@@QAE@XZ 1010fd20 f i Elements.obj
 0001:0010ed30       ?CopyConvert@@YAXPBEPAEI@Z 1010fd30 f   Initializers.obj
 0001:0010ee70       ?InitializeTextures@C_Nl@@QAEXXZ 1010fe70 f   Initializers.obj
 0001:0010f210       ?InitializeFonts@C_Nl@@QAEXXZ 10110210 f   Initializers.obj
 0001:0010f400       ?InitializeCreateCallbacks@C_Nl@@QAEXXZ 10110400 f   Initializers.obj
 0001:0010fb50       ??$_Resize_reallocate@U_Value_init_tag@std@@@?$vector@EV?$allocator@E@std@@@std@@AAEXIABU_Value_init_tag@1@@Z 10110b50 f i Initializers.obj
 0001:0010fcd0       ?_Target_type@?$_Func_impl_no_alloc@P6AXPAVC_Element@@@ZXPAV1@@std@@EBEABVtype_info@@XZ 10110cd0 f i Initializers.obj
 0001:0010fce0       ?_Do_call@?$_Func_impl_no_alloc@P6AXPAVC_Element@@@ZXPAV1@@std@@EAEX$$QAPAVC_Element@@@Z 10110ce0 f i Initializers.obj
 0001:0010fd00       ?_Copy@?$_Func_impl_no_alloc@P6AXPAVC_Element@@@ZXPAV1@@std@@EBEPAV?$_Func_base@XPAVC_Element@@@2@PAX@Z 10110d00 f i Initializers.obj
 0001:0010fd00       ?_Move@?$_Func_impl_no_alloc@P6AXPAVC_Element@@@ZXPAV1@@std@@EAEPAV?$_Func_base@XPAVC_Element@@@2@PAX@Z 10110d00 f i Initializers.obj
 0001:0010fd20       ?GetString@C_Var@@QAEAAV?$basic_string@DU?$char_traits@D@std@@V?$allocator@D@2@@std@@XZ 10110d20 f i Keybinds.obj
 0001:0010fd40       ?BindWindowAlphaAnimate@C_Animation@@QAEAAV1@W4E_AnimationType@@MMMV?$function@$$A6AXPAVC_Animation@@@Z@std@@@Z 10110d40 f i Keybinds.obj
 0001:0010ff20       ??0C_KeybindInfo@@QAE@W4E_ElementType@@@Z 10110f20 f i Keybinds.obj
 0001:00110030       ??0C_KeybindInfo@@QAE@XZ   10111030 f i Keybinds.obj
 0001:00110140       ?ApplyDefValues@C_Keybinds@@QAEXXZ 10111140 f   Keybinds.obj
 0001:00110580       ?InitializeKeybindVars@C_Keybinds@@QAEXXZ 10111580 f   Keybinds.obj
 0001:001134b0       ??4C_KeybindInfo@@QAEAAV0@$$QAV0@@Z 101144b0 f i Keybinds.obj
 0001:00113520       ?GetAllBinds@C_Keybinds@@QAEXAAV?$basic_json@Vmap@std@@Vvector@2@V?$basic_string@DU?$char_traits@D@std@@V?$allocator@D@2@@2@_N_J_KNVallocator@2@Uadl_serializer@nlohmann@@V?$vector@EV?$allocator@E@std@@@2@@nlohmann@@@Z 10114520 f   Keybinds.obj
 0001:001138e0       ??1?$json_ref@V?$basic_json@Vmap@std@@Vvector@2@V?$basic_string@DU?$char_traits@D@std@@V?$allocator@D@2@@2@_N_J_KNVallocator@2@Uadl_serializer@nlohmann@@V?$vector@EV?$allocator@E@std@@@2@@nlohmann@@@detail@nlohmann@@QAE@XZ 101148e0 f i Keybinds.obj
 0001:001138f0       ?LoadAllBinds@C_Keybinds@@QAEXAAV?$basic_json@Vmap@std@@Vvector@2@V?$basic_string@DU?$char_traits@D@std@@V?$allocator@D@2@@2@_N_J_KNVallocator@2@Uadl_serializer@nlohmann@@V?$vector@EV?$allocator@E@std@@@2@@nlohmann@@@Z 101148f0 f   Keybinds.obj
 0001:00113c90       ?SetAllKeybinds@C_Keybinds@@QAEXAAV?$vector@VC_Element@@V?$allocator@VC_Element@@@std@@@std@@_N@Z 10114c90 f   Keybinds.obj
 0001:00114650       ?CheckKeybind@C_Keybinds@@QAEXXZ 10115650 f   Keybinds.obj
 0001:00114cc0       ?EnableKeybindSelection@C_Keybinds@@QAEXPAVC_Element@@W4E_ElementType@@I@Z 10115cc0 f   Keybinds.obj
 0001:00115380       ?InitializeElements@C_Keybinds@@QAEXXZ 10116380 f   Keybinds.obj
 0001:00115b70       ?DrawKeybindWindow@C_Keybinds@@QAEXXZ 10116b70 f   Keybinds.obj
 0001:001165c0       ??$get@HH$0A@@?$basic_json@Vmap@std@@Vvector@2@V?$basic_string@DU?$char_traits@D@std@@V?$allocator@D@2@@2@_N_J_KNVallocator@2@Uadl_serializer@nlohmann@@V?$vector@EV?$allocator@E@std@@@2@@nlohmann@@QBEHXZ 101175c0 f i Keybinds.obj
 0001:00116640       ??A?$map@IVC_KeybindInfo@@U?$less@I@std@@V?$allocator@U?$pair@$$CBIVC_KeybindInfo@@@std@@@3@@std@@QAEAAVC_KeybindInfo@@$$QAI@Z 10117640 f i Keybinds.obj
 0001:00116640       ??A?$map@IVC_KeybindInfo@@U?$less@I@std@@V?$allocator@U?$pair@$$CBIVC_KeybindInfo@@@std@@@3@@std@@QAEAAVC_KeybindInfo@@ABI@Z 10117640 f i Keybinds.obj
 0001:00116700       ??0?$vector@VC_KeybindKeyInfo@@V?$allocator@VC_KeybindKeyInfo@@@std@@@std@@QAE@V?$initializer_list@VC_KeybindKeyInfo@@@1@ABV?$allocator@VC_KeybindKeyInfo@@@1@@Z 10117700 f i Keybinds.obj
 0001:00116790       ?shrink_to_fit@?$vector@V?$basic_string@DU?$char_traits@D@std@@V?$allocator@D@2@@std@@V?$allocator@V?$basic_string@DU?$char_traits@D@std@@V?$allocator@D@2@@std@@@2@@std@@QAEXXZ 10117790 f i Keybinds.obj
 0001:001167f0       ??0?$basic_json@Vmap@std@@Vvector@2@V?$basic_string@DU?$char_traits@D@std@@V?$allocator@D@2@@2@_N_J_KNVallocator@2@Uadl_serializer@nlohmann@@V?$vector@EV?$allocator@E@std@@@2@@nlohmann@@QAE@V?$initializer_list@V?$json_ref@V?$basic_json@Vmap@std@@Vvector@2@V?$basic_string@DU?$char_traits@D@std@@V?$allocator@D@2@@2@_N_J_KNVallocator@2@Uadl_serializer@nlohmann@@V?$vector@EV?$allocator@E@std@@@2@@nlohmann@@@detail@nlohmann@@@std@@_NW4value_t@detail@1@@Z 101177f0 f i Keybinds.obj
 0001:00116980       ??R<lambda_2>@?O@???0?$basic_json@Vmap@std@@Vvector@2@V?$basic_string@DU?$char_traits@D@std@@V?$allocator@D@2@@2@_N_J_KNVallocator@2@Uadl_serializer@nlohmann@@V?$vector@EV?$allocator@E@std@@@2@@nlohmann@@QAE@V?$initializer_list@V?$json_ref@V?$basic_json@Vmap@std@@Vvector@2@V?$basic_string@DU?$char_traits@D@std@@V?$allocator@D@2@@2@_N_J_KNVallocator@2@Uadl_serializer@nlohmann@@V?$vector@EV?$allocator@E@std@@@2@@nlohmann@@@detail@nlohmann@@@std@@_NW4value_t@detail@2@@Z@QBE@ABV?$json_ref@V?$basic_json@Vmap@std@@Vvector@2@V?$basic_string@DU?$char_traits@D@std@@V?$allocator@D@2@@2@_N_J_KNVallocator@2@Uadl_serializer@nlohmann@@V?$vector@EV?$allocator@E@std@@@2@@nlohmann@@@62@@Z 10117980 f i Keybinds.obj
 0001:00116b30       ??$_Emplace_one_at_back@ABV?$basic_string@DU?$char_traits@D@std@@V?$allocator@D@2@@std@@@?$vector@V?$basic_string@DU?$char_traits@D@std@@V?$allocator@D@2@@std@@V?$allocator@V?$basic_string@DU?$char_traits@D@std@@V?$allocator@D@2@@std@@@2@@std@@AAEAAV?$basic_string@DU?$char_traits@D@std@@V?$allocator@D@2@@1@ABV21@@Z 10117b30 f i Keybinds.obj
 0001:00116c80       ??$_Assign_counted_range@PBVC_KeybindKeyInfo@@@?$vector@VC_KeybindKeyInfo@@V?$allocator@VC_KeybindKeyInfo@@@std@@@std@@AAEXPBVC_KeybindKeyInfo@@I@Z 10117c80 f i Keybinds.obj
 0001:00116df0       ??$_Emplace_reallocate@UC_BindComboItemProperty@@@?$vector@UC_BindComboItemProperty@@V?$allocator@UC_BindComboItemProperty@@@std@@@std@@AAEPAUC_BindComboItemProperty@@QAU2@$$QAU2@@Z 10117df0 f i BindCombo.obj
 0001:00116df0       ??$_Emplace_reallocate@VC_KeybindKeyInfo@@@?$vector@VC_KeybindKeyInfo@@V?$allocator@VC_KeybindKeyInfo@@@std@@@std@@AAEPAVC_KeybindKeyInfo@@QAV2@$$QAV2@@Z 10117df0 f i Keybinds.obj
 0001:00117010       ??$to_json@V?$basic_json@Vmap@std@@Vvector@2@V?$basic_string@DU?$char_traits@D@std@@V?$allocator@D@2@@2@_N_J_KNVallocator@2@Uadl_serializer@nlohmann@@V?$vector@EV?$allocator@E@std@@@2@@nlohmann@@I$0A@@detail@nlohmann@@YAXAAV?$basic_json@Vmap@std@@Vvector@2@V?$basic_string@DU?$char_traits@D@std@@V?$allocator@D@2@@2@_N_J_KNVallocator@2@Uadl_serializer@nlohmann@@V?$vector@EV?$allocator@E@std@@@2@@1@I@Z 10118010 f i Keybinds.obj
 0001:00117030       ?_Buy_raw@?$vector@VC_KeybindKeyInfo@@V?$allocator@VC_KeybindKeyInfo@@@std@@@std@@AAEXI@Z 10118030 f i Keybinds.obj
 0001:001170c0       ??$to_json@V?$basic_json@Vmap@std@@Vvector@2@V?$basic_string@DU?$char_traits@D@std@@V?$allocator@D@2@@2@_N_J_KNVallocator@2@Uadl_serializer@nlohmann@@V?$vector@EV?$allocator@E@std@@@2@@nlohmann@@H$0A@@detail@nlohmann@@YAXAAV?$basic_json@Vmap@std@@Vvector@2@V?$basic_string@DU?$char_traits@D@std@@V?$allocator@D@2@@2@_N_J_KNVallocator@2@Uadl_serializer@nlohmann@@V?$vector@EV?$allocator@E@std@@@2@@1@H@Z 101180c0 f i Keybinds.obj
 0001:001170c0       ??$to_json@V?$basic_json@Vmap@std@@Vvector@2@V?$basic_string@DU?$char_traits@D@std@@V?$allocator@D@2@@2@_N_J_KNVallocator@2@Uadl_serializer@nlohmann@@V?$vector@EV?$allocator@E@std@@@2@@nlohmann@@W4E_KeybindType@@$0A@@detail@nlohmann@@YAXAAV?$basic_json@Vmap@std@@Vvector@2@V?$basic_string@DU?$char_traits@D@std@@V?$allocator@D@2@@2@_N_J_KNVallocator@2@Uadl_serializer@nlohmann@@V?$vector@EV?$allocator@E@std@@@2@@1@W4E_KeybindType@@@Z 101180c0 f i Keybinds.obj
 0001:001170e0       ??0C_BindComboItemProperty@@QAE@XZ 101180e0 f i BindCombo.obj
 0001:00117110       ??0C_Var@@QAE@PBX@Z        10118110 f i BindCombo.obj
 0001:00117160       ?AlphaAnimate@C_Animation@@QAEAAV1@PAVC_Element@@W4E_AnimationType@@MMV?$function@$$A6AXPAVC_Animation@@@Z@std@@@Z 10118160 f i BindCombo.obj
 0001:00117320       ?TextRedAnimate@C_Animation@@QAEAAV1@PAVC_Element@@W4E_AnimationType@@MMV?$function@$$A6AXPAVC_Animation@@@Z@std@@@Z 10118320 f i BindCombo.obj
 0001:001174e0       ?TextGreenAnimate@C_Animation@@QAEAAV1@PAVC_Element@@W4E_AnimationType@@MMV?$function@$$A6AXPAVC_Animation@@@Z@std@@@Z 101184e0 f i BindCombo.obj
 0001:001176a0       ?TextBlueAnimate@C_Animation@@QAEAAV1@PAVC_Element@@W4E_AnimationType@@MMV?$function@$$A6AXPAVC_Animation@@@Z@std@@@Z 101186a0 f i BindCombo.obj
 0001:00117860       ?ChildRedAnimate@C_Animation@@QAEAAV1@PAVC_Element@@W4E_AnimationType@@MMV?$function@$$A6AXPAVC_Animation@@@Z@std@@@Z 10118860 f i BindCombo.obj
 0001:00117a20       ?ChildGreenAnimate@C_Animation@@QAEAAV1@PAVC_Element@@W4E_AnimationType@@MMV?$function@$$A6AXPAVC_Animation@@@Z@std@@@Z 10118a20 f i BindCombo.obj
 0001:00117be0       ?ChildBlueAnimate@C_Animation@@QAEAAV1@PAVC_Element@@W4E_AnimationType@@MMV?$function@$$A6AXPAVC_Animation@@@Z@std@@@Z 10118be0 f i BindCombo.obj
 0001:00117da0       ?ChildBorderRedAnimate@C_Animation@@QAEAAV1@PAVC_Element@@W4E_AnimationType@@MMV?$function@$$A6AXPAVC_Animation@@@Z@std@@@Z 10118da0 f i BindCombo.obj
 0001:00117f60       ?ChildBorderGreenAnimate@C_Animation@@QAEAAV1@PAVC_Element@@W4E_AnimationType@@MMV?$function@$$A6AXPAVC_Animation@@@Z@std@@@Z 10118f60 f i BindCombo.obj
 0001:00118120       ?ChildBorderBlueAnimate@C_Animation@@QAEAAV1@PAVC_Element@@W4E_AnimationType@@MMV?$function@$$A6AXPAVC_Animation@@@Z@std@@@Z 10119120 f i BindCombo.obj
 0001:001182e0       ?OpenScaleAnimate@C_Animation@@QAEAAV1@PAVC_Element@@W4E_AnimationType@@MMV?$function@$$A6AXPAVC_Animation@@@Z@std@@@Z 101192e0 f i BindCombo.obj
 0001:001184a0       ?BindComboAlphaTextAnimate@C_Animation@@QAEAAV1@PAVC_Element@@W4E_AnimationType@@MMHV?$function@$$A6AXPAVC_Animation@@@Z@std@@@Z 101194a0 f i BindCombo.obj
 0001:00118850       ?BindComboOffsetTextAnimate@C_Animation@@QAEAAV1@PAVC_Element@@W4E_AnimationType@@MHHV?$function@$$A6AXPAVC_Animation@@@Z@std@@@Z 10119850 f i BindCombo.obj
 0001:00118bf0       ?BindCombo@C_Element@@QAEAAV1@PBDUImVec2@@PAV?$vector@V?$basic_string@DU?$char_traits@D@std@@V?$allocator@D@2@@std@@V?$allocator@V?$basic_string@DU?$char_traits@D@std@@V?$allocator@D@2@@std@@@2@@std@@PAH@Z 10119bf0 f   BindCombo.obj
 0001:00119590       ?BindComboCreateCallback@C_Nl@@SAXPAVC_Element@@@Z 1011a590 f   BindCombo.obj
 0001:0011c190       ?BindComboMouseIntersectCallback@C_Nl@@SAXPAVC_Element@@_N@Z 1011d190 f   BindCombo.obj
 0001:0011d090       ?BindComboFullMouseIntersectCallback@C_Nl@@SAXPAVC_Element@@_N@Z 1011e090 f   BindCombo.obj
 0001:0011d6d0       ?BindComboClickCallback@C_Nl@@SAXPAVC_Element@@_N@Z 1011e6d0 f   BindCombo.obj
 0001:0011dd00       ??H?$_Vector_iterator@V?$_Vector_val@U?$_Simple_types@UC_BindComboItemProperty@@@std@@@std@@@std@@QBE?AV01@H@Z 1011ed00 f i BindCombo.obj
 0001:0011dd00       ??H?$_Vector_iterator@V?$_Vector_val@U?$_Simple_types@V?$basic_string@DU?$char_traits@D@std@@V?$allocator@D@2@@std@@@std@@@std@@@std@@QBE?AV01@H@Z 1011ed00 f i BindCombo.obj
 0001:0011dd20       ?clear@?$vector@UC_BindComboItemProperty@@V?$allocator@UC_BindComboItemProperty@@@std@@@std@@QAEXXZ 1011ed20 f i BindCombo.obj
 0001:0011dd30       ?erase@?$vector@UC_BindComboItemProperty@@V?$allocator@UC_BindComboItemProperty@@@std@@@std@@QAE?AV?$_Vector_iterator@V?$_Vector_val@U?$_Simple_types@UC_BindComboItemProperty@@@std@@@std@@@2@V?$_Vector_const_iterator@V?$_Vector_val@U?$_Simple_types@UC_BindComboItemProperty@@@std@@@std@@@2@@Z 1011ed30 f i BindCombo.obj
 0001:0011dd60       ?push_back@?$vector@UC_BindComboItemProperty@@V?$allocator@UC_BindComboItemProperty@@@std@@@std@@QAEX$$QAUC_BindComboItemProperty@@@Z 1011ed60 f i BindCombo.obj
 0001:0011dda0       ?erase@?$vector@V?$basic_string@DU?$char_traits@D@std@@V?$allocator@D@2@@std@@V?$allocator@V?$basic_string@DU?$char_traits@D@std@@V?$allocator@D@2@@std@@@2@@std@@QAE?AV?$_Vector_iterator@V?$_Vector_val@U?$_Simple_types@V?$basic_string@DU?$char_traits@D@std@@V?$allocator@D@2@@std@@@std@@@std@@@2@V?$_Vector_const_iterator@V?$_Vector_val@U?$_Simple_types@V?$basic_string@DU?$char_traits@D@std@@V?$allocator@D@2@@std@@@std@@@std@@@2@@Z 1011eda0 f i BindCombo.obj
 0001:0011dfc0       ?Button@C_Element@@QAEAAV1@PBDUImVec2@@1PBX@Z 1011efc0 f   Button.obj
 0001:0011e770       ?ButtonCreateCallback@C_Nl@@SAXPAVC_Element@@@Z 1011f770 f   Button.obj
 0001:0011ef90       ?ButtonMouseIntersectCallback@C_Nl@@SAXPAVC_Element@@_N@Z 1011ff90 f   Button.obj
 0001:0011fef0       ?ButtonClickCallback@C_Nl@@SAXPAVC_Element@@_N@Z 10120ef0 f   Button.obj
 0001:001204c0       ?CircleXOffsetAnimate@C_Animation@@QAEAAV1@PAVC_Element@@W4E_AnimationType@@MHV?$function@$$A6AXPAVC_Animation@@@Z@std@@@Z 101214c0 f i Checkbox.obj
 0001:00120680       ?CircleRedAnimate@C_Animation@@QAEAAV1@PAVC_Element@@W4E_AnimationType@@MMV?$function@$$A6AXPAVC_Animation@@@Z@std@@@Z 10121680 f i Checkbox.obj
 0001:00120840       ?CircleGreenAnimate@C_Animation@@QAEAAV1@PAVC_Element@@W4E_AnimationType@@MMV?$function@$$A6AXPAVC_Animation@@@Z@std@@@Z 10121840 f i Checkbox.obj
 0001:00120a00       ?CircleBlueAnimate@C_Animation@@QAEAAV1@PAVC_Element@@W4E_AnimationType@@MMV?$function@$$A6AXPAVC_Animation@@@Z@std@@@Z 10121a00 f i Checkbox.obj
 0001:00120bc0       ?ResetCheckbox@C_Element@@QAEXXZ 10121bc0 f   Checkbox.obj
 0001:00120f80       ?Checkbox@C_Element@@QAEAAV1@IPBDUImVec2@@PA_N@Z 10121f80 f   Checkbox.obj
 0001:001216b0       ?CheckboxCreateCallback@C_Nl@@SAXPAVC_Element@@@Z 101226b0 f   Checkbox.obj
 0001:00121e40       ?OnMouseCallbackTextColorChangeCheckbox@C_Nl@@SAXPAVC_Element@@_N@Z 10122e40 f   Checkbox.obj
 0001:00122480       ?OnMouseClickIntersectCheckboxCallback@C_Nl@@SAXPAVC_Element@@@Z 10123480 f   Checkbox.obj
 0001:00123010       ?OnMouseCheckboxCallbackBoxColorChange@C_Nl@@SAXPAVC_Element@@_N@Z 10124010 f   Checkbox.obj
 0001:00123c90       ?ChildBegin@C_Element@@QAEAAV1@PBDUImVec2@@1_NH@Z 10124c90 f   Child.obj
 0001:00124120       ?ChildEnd@C_Element@@QAEAAV1@_NH@Z 10125120 f   Child.obj
 0001:00124250       ?ChildBeginCreateCallback@C_Nl@@SAXPAVC_Element@@@Z 10125250 f   Child.obj
 0001:00124830       ?ChildEndCreateCallback@C_Nl@@SAXPAVC_Element@@@Z 10125830 f   Child.obj
 0001:00124920       ?ColorPicker@C_Element@@QAEAAV1@MUImVec2@@PAM@Z 10125920 f   Color.obj
 0001:00124b50       ?ColorPickerCreateCallback@C_Nl@@SAXPAVC_Element@@@Z 10125b50 f   Color.obj
 0001:00124f10       ?Combo@C_Element@@QAEAAV1@IPBDUImVec2@@V?$vector@V?$basic_string@DU?$char_traits@D@std@@V?$allocator@D@2@@std@@V?$allocator@V?$basic_string@DU?$char_traits@D@std@@V?$allocator@D@2@@std@@@2@@std@@PAH@Z 10125f10 f   Combo.obj
 0001:00125800       ?ComboCreateCallback@C_Nl@@SAXPAVC_Element@@@Z 10126800 f   Combo.obj
 0001:00127180       ?ComboMouseIntersectCallback@C_Nl@@SAXPAVC_Element@@_N@Z 10128180 f   Combo.obj
 0001:00128080       ?ComboFullMouseIntersectCallback@C_Nl@@SAXPAVC_Element@@_N@Z 10129080 f   Combo.obj
 0001:001286c0       ?ComboClickCallback@C_Nl@@SAXPAVC_Element@@_N@Z 101296c0 f   Combo.obj
 0001:00128cf0       ??0?$vector@V?$basic_string@DU?$char_traits@D@std@@V?$allocator@D@2@@std@@V?$allocator@V?$basic_string@DU?$char_traits@D@std@@V?$allocator@D@2@@std@@@2@@std@@QAE@ABV01@@Z 10129cf0 f i Combo.obj
 0001:00128f60       ?ImageCreateCallback@C_Nl@@SAXPAVC_Element@@@Z 10129f60 f   Image.obj
 0001:001290d0       ?KeybindValue@C_Element@@QAEAAV1@PBDUImVec2@@PAH@Z 1012a0d0 f   KeybindValue.obj
 0001:00129790       ?KeybindValueCreateCallback@C_Nl@@SAXPAVC_Element@@@Z 1012a790 f   KeybindValue.obj
 0001:00129ed0       ?KeybindValueMouseIntersectCallback@C_Nl@@SAXPAVC_Element@@_N@Z 1012aed0 f   KeybindValue.obj
 0001:0012ad30       ?KeybindValueFullMouseIntersectCallback@C_Nl@@SAXPAVC_Element@@_N@Z 1012bd30 f   KeybindValue.obj
 0001:0012b370       ?KeybindValueClickCallback@C_Nl@@SAXPAVC_Element@@_N@Z 1012c370 f   KeybindValue.obj
 0001:0012b780       ??1_Find_file_handle@filesystem@std@@QAE@XZ 1012c780 f i LuaBlock.obj
 0001:0012b790       ??0filesystem_error@filesystem@std@@QAE@ABV?$basic_string@DU?$char_traits@D@std@@V?$allocator@D@2@@2@Verror_code@2@@Z 1012c790 f i LuaBlock.obj
 0001:0012b870       ?_Throw_fs_error@filesystem@std@@YAXPBDW4__std_win_error@@@Z 1012c870 f i LuaBlock.obj
 0001:0012b8e0       ?_Skip_dots@_Dir_enum_impl@filesystem@std@@SA?AW4__std_win_error@@W4__std_fs_dir_handle@@AAU__std_fs_find_data@@@Z 1012c8e0 f i LuaBlock.obj
 0001:0012b920       ?_Open_dir@_Dir_enum_impl@filesystem@std@@SA?AW4__std_win_error@@AAVpath@23@W4directory_options@23@AAU_Find_file_handle@23@AAU__std_fs_find_data@@@Z 1012c920 f i LuaBlock.obj
 0001:0012bac0       ?_Refresh@_Dir_enum_impl@filesystem@std@@QAEXABU__std_fs_find_data@@@Z 1012cac0 f i LuaBlock.obj
 0001:0012bbd0       ??1directory_entry@filesystem@std@@QAE@XZ 1012cbd0 f i LuaBlock.obj
 0001:0012bbe0       ?_Advance_and_reset_if_no_more_files@_Recursive_dir_enum_impl@filesystem@std@@SA?AW4__std_win_error@@AAV?$shared_ptr@U_Recursive_dir_enum_impl@filesystem@std@@@3@@Z 1012cbe0 f i LuaBlock.obj
 0001:0012bed0       ??0_Recursive_dir_enum_impl@filesystem@std@@QAE@$$QAU_Creator@_Dir_enum_impl@12@W4directory_options@12@@Z 1012ced0 f i LuaBlock.obj
 0001:0012bfb0       ??0recursive_directory_iterator@filesystem@std@@QAE@ABVpath@12@@Z 1012cfb0 f i LuaBlock.obj
 0001:0012c120       ??Erecursive_directory_iterator@filesystem@std@@QAEAAV012@XZ 1012d120 f i LuaBlock.obj
 0001:0012c150       ?exists@filesystem@std@@YA_NABVpath@12@AAVerror_code@2@@Z 1012d150 f i LuaBlock.obj
 0001:0012c6c0       ?do_file@state_view@sol@@QAE?AUprotected_function_result@2@ABV?$basic_string@DU?$char_traits@D@std@@V?$allocator@D@2@@std@@W4load_mode@2@@Z 1012d6c0 f i LuaBlock.obj
 0001:0012c8f0       ?LuaBlock@C_Element@@QAEAAV1@XZ 1012d8f0 f   LuaBlock.obj
 0001:0012c9a0       ?load@@YAXXZ               1012d9a0 f   LuaBlock.obj
 0001:0012cbd0       ?refresh@@YAXXZ            1012dbd0 f   LuaBlock.obj
 0001:0012cdd0       ?unload@@YAXXZ             1012ddd0 f   LuaBlock.obj
 0001:0012cf70       ?LuaBlockCreateCallback@C_Nl@@SAXPAVC_Element@@@Z 1012df70 f   LuaBlock.obj
 0001:0012da20       ??$find@V?$_Vector_iterator@V?$_Vector_val@U?$_Simple_types@V?$basic_string@DU?$char_traits@D@std@@V?$allocator@D@2@@std@@@std@@@std@@@std@@V?$basic_string@DU?$char_traits@D@std@@V?$allocator@D@2@@2@@std@@YA?AV?$_Vector_iterator@V?$_Vector_val@U?$_Simple_types@V?$basic_string@DU?$char_traits@D@std@@V?$allocator@D@2@@std@@@std@@@std@@@0@V10@V10@ABV?$basic_string@DU?$char_traits@D@std@@V?$allocator@D@2@@0@@Z 1012ea20 f i LuaBlock.obj
 0001:0012da80       ??$remove_if@V?$_Deque_iterator@V?$_Deque_val@U?$_Deque_simple_types@Ucallback_t@c_lua@nem@@@std@@@std@@@std@@V<lambda_1>@?8??unload@c_lua@nem@@QAEXABV?$basic_string@DU?$char_traits@D@std@@V?$allocator@D@2@@2@@Z@@std@@YA?AV?$_Deque_iterator@V?$_Deque_val@U?$_Deque_simple_types@Ucallback_t@c_lua@nem@@@std@@@std@@@0@V10@V10@V<lambda_1>@?8??unload@c_lua@nem@@QAEXABV?$basic_string@DU?$char_traits@D@std@@V?$allocator@D@2@@0@@Z@@Z 1012ea80 f i LuaBlock.obj
 0001:0012dba0       ?erase@?$deque@Ucallback_t@c_lua@nem@@V?$allocator@Ucallback_t@c_lua@nem@@@std@@@std@@QAE?AV?$_Deque_iterator@V?$_Deque_val@U?$_Deque_simple_types@Ucallback_t@c_lua@nem@@@std@@@std@@@2@V?$_Deque_const_iterator@V?$_Deque_val@U?$_Deque_simple_types@Ucallback_t@c_lua@nem@@@std@@@std@@@2@0@Z 1012eba0 f i LuaBlock.obj
 0001:0012de20       ??1?$vector@U_Find_file_handle@filesystem@std@@V?$allocator@U_Find_file_handle@filesystem@std@@@3@@std@@QAE@XZ 1012ee20 f i LuaBlock.obj
 0001:0012dea0       ??1_Creator@_Dir_enum_impl@filesystem@std@@QAE@XZ 1012eea0 f i LuaBlock.obj
 0001:0012dec0       ??$_Emplace_reallocate@U_Find_file_handle@filesystem@std@@@?$vector@U_Find_file_handle@filesystem@std@@V?$allocator@U_Find_file_handle@filesystem@std@@@3@@std@@AAEPAU_Find_file_handle@filesystem@1@QAU231@$$QAU231@@Z 1012eec0 f i LuaBlock.obj
 0001:0012e080       ?_Destroy@?$_Ref_count_obj2@U_Recursive_dir_enum_impl@filesystem@std@@@std@@EAEXXZ 1012f080 f i LuaBlock.obj
 0001:0012e0a0       ??_E?$_Ref_count_obj2@U_Recursive_dir_enum_impl@filesystem@std@@@std@@UAEPAXI@Z 1012f0a0 f i * CIL library *:* CIL module *
 0001:0012e0a0       ??_G?$_Ref_count_obj2@U_Recursive_dir_enum_impl@filesystem@std@@@std@@UAEPAXI@Z 1012f0a0 f i LuaBlock.obj
 0001:0012e0d0       ?MultiCombo@C_Element@@QAEAAV1@IPBDUImVec2@@V?$vector@V?$basic_string@DU?$char_traits@D@std@@V?$allocator@D@2@@std@@V?$allocator@V?$basic_string@DU?$char_traits@D@std@@V?$allocator@D@2@@std@@@2@@std@@PAH@Z 1012f0d0 f   MultiCombo.obj
 0001:0012ea40       ?MultiComboCreateCallback@C_Nl@@SAXPAVC_Element@@@Z 1012fa40 f   MultiCombo.obj
 0001:00130600       ?MultiComboMouseIntersectCallback@C_Nl@@SAXPAVC_Element@@_N@Z 10131600 f   MultiCombo.obj
 0001:00131500       ?MultiComboFullMouseIntersectCallback@C_Nl@@SAXPAVC_Element@@_N@Z 10132500 f   MultiCombo.obj
 0001:00131b40       ?MultiComboClickCallback@C_Nl@@SAXPAVC_Element@@_N@Z 10132b40 f   MultiCombo.obj
 0001:00132230       ?DrawDropText@C_Element@@QAEAAV1@PBDUImVec2@@UImVec4@@PAUImFont@@@Z 10133230 f   DynamicText.obj
 0001:00132540       ?DrawDropTextCreateCallback@C_Nl@@SAXPAVC_Element@@@Z 10133540 f   DynamicText.obj
 0001:00132540       ?TextCreateCallback@C_Nl@@SAXPAVC_Element@@@Z 10133540 f   Text.obj
 0001:001326d0       ?OriginMove@C_Animation@@QAEAAV1@PAVC_Element@@W4E_AnimationType@@MUImVec2@@V?$function@$$A6AXPAVC_Animation@@@Z@std@@@Z 101336d0 f i Preview.obj
 0001:00132890       ?PreviewCreateCallback@C_Nl@@SAXPAVC_Element@@@Z 10133890 f   Preview.obj
 0001:00132900       ?Preview@C_Nl@@QAEXAAV?$vector@V?$basic_string@DU?$char_traits@D@std@@V?$allocator@D@2@@std@@V?$allocator@V?$basic_string@DU?$char_traits@D@std@@V?$allocator@D@2@@std@@@2@@std@@UImVec2@@1_N@Z 10133900 f   Preview.obj
 0001:001331d0       ?InitializePreview@C_Nl@@QAEXAAV?$vector@V?$basic_string@DU?$char_traits@D@std@@V?$allocator@D@2@@std@@V?$allocator@V?$basic_string@DU?$char_traits@D@std@@V?$allocator@D@2@@std@@@2@@std@@UImVec2@@1_N@Z 101341d0 f   Preview.obj
 0001:001334b0       ?BuildPreviewOrigins@C_Nl@@QAEXAAV?$vector@UImVec2@@V?$allocator@UImVec2@@@std@@@std@@AAV?$vector@HV?$allocator@H@std@@@3@UImVec2@@@Z 101344b0 f   Preview.obj
 0001:00133730       ?ApplyOrigins@C_Nl@@QAEXAAV?$vector@UImVec2@@V?$allocator@UImVec2@@@std@@@std@@UImVec2@@_NH@Z 10134730 f   Preview.obj
 0001:001339d0       ?GetIndexByPos@C_Nl@@QAEHUImVec2@@@Z 101349d0 f   Preview.obj
 0001:00133cc0       ?RectFilledCreateCallback@C_Nl@@SAXPAVC_Element@@@Z 10134cc0 f   RectFilled.obj
 0001:00133d90       ?SkinsBlock@C_Element@@QAEAAV1@XZ 10134d90 f   SkinsBlock.obj
 0001:00133e50       ?SkinsBlockCreateCallback@C_Nl@@SAXPAVC_Element@@@Z 10134e50 f   SkinsBlock.obj
 0001:00134f50       ?OffsetXAnimate@C_Animation@@QAEAAV1@PAVC_Element@@W4E_AnimationType@@MHV?$function@$$A6AXPAVC_Animation@@@Z@std@@@Z 10135f50 f i Slider.obj
 0001:00135110       ?ResetSlider@C_Element@@QAEX_N@Z 10136110 f   Slider.obj
 0001:00135240       ?Slider@C_Element@@QAEAAV1@IPBDUImVec2@@HHPAH@Z 10136240 f   Slider.obj
 0001:00135970       ?SliderCreateCallback@C_Nl@@SAXPAVC_Element@@@Z 10136970 f   Slider.obj
 0001:00136ad0       ?OnMouseCallbackTextColorChangeSlider@C_Nl@@SAXPAVC_Element@@_N@Z 10137ad0 f   Slider.obj
 0001:001371c0       ?Tab@C_Element@@QAEAAV1@UImVec2@@PAUIDirect3DTexture9@@0PBDPAHH0@Z 101381c0 f   Tab.obj
 0001:00137770       ?TabCreateCallback@C_Nl@@SAXPAVC_Element@@@Z 10138770 f   Tab.obj
 0001:00138040       ?OnTabChangeCallback@C_Nl@@SAXPAVC_Element@@HH@Z 10139040 f   Tab.obj
 0001:00138760       ?Text@C_Element@@QAEAAV1@PBDUImVec2@@UImVec4@@PAUImFont@@@Z 10139760 f   Text.obj
 0001:00138a70       ?TextInputCreateCallback@C_Nl@@SAXPAVC_Element@@@Z 10139a70 f   TextInput.obj
 0001:00138d80       ?WindowBegin@C_Element@@QAEAAV1@PBDUImVec2@@1UImVec4@@H_N@Z 10139d80 f   Window.obj
 0001:00139180       ?WindowEnd@C_Element@@QAEAAV1@XZ 1013a180 f   Window.obj
 0001:00139230       ?WindowBeginCreateCallback@C_Nl@@SAXPAVC_Element@@@Z 1013a230 f   Window.obj
 0001:00139500       ?WindowEndCreateCallback@C_Nl@@SAXPAVC_Element@@@Z 1013a500 f   Window.obj
 0001:00139510       ?ChangeWeaponGroupRefs@C_Nl@@QAEXH@Z 1013a510 f   Neverlose.obj
 0001:0013ad20       ?MoveWindows@C_Nl@@QAEXXZ  1013bd20 f   Neverlose.obj
 0001:0013b040       ?Draw@C_Nl@@QAEXPAUIDirect3DDevice9@@_N@Z 1013c040 f   Neverlose.obj
 0001:0013b930       ?CheckMouseIntersectionLocal@C_Nl@@QAE_NUImVec2@@0@Z 1013c930 f   Neverlose.obj
 0001:0013b9a0       ?ClearElementAnimations@C_Nl@@QAEXPAVC_Element@@I@Z 1013c9a0 f   Neverlose.obj
 0001:0013bb60       ?clearTextures@BlurEffect@@SAXXZ 1013cb60 f i PostProcessing.obj
 0001:0013bd60       ?begin@BlurEffect@@CAXPBUImDrawList@@PBUImDrawCmd@@@Z 1013cd60 f i PostProcessing.obj
 0001:0013bed0       ?firstPass@BlurEffect@@CAXPBUImDrawList@@PBUImDrawCmd@@@Z 1013ced0 f i PostProcessing.obj
 0001:0013c000       ?secondPass@BlurEffect@@CAXPBUImDrawList@@PBUImDrawCmd@@@Z 1013d000 f i PostProcessing.obj
 0001:0013c130       ?end@BlurEffect@@CAXPBUImDrawList@@PBUImDrawCmd@@@Z 1013d130 f i PostProcessing.obj
 0001:0013c1f0       ?_draw@BlurEffect@@AAEXPAUImDrawList@@M@Z 1013d1f0 f i PostProcessing.obj
 0001:0013c5c0       ?clearTexture@ChromaticAberration@@SAXXZ 1013d5c0 f i PostProcessing.obj
 0001:0013c650       ?parse_table@c_net_vars@valve@nem@@AAEXPBDQBUrecv_table_t@23@I@Z 1013d650 f   net_vars.obj
 0001:0013c7f0       ?parse_client_classes@c_net_vars@valve@nem@@QAEXXZ 1013d7f0 f   net_vars.obj
 0001:0013c830       ?parse_data_maps@c_net_vars@valve@nem@@QAEXABV?$vector@PAUdata_map_t@valve@nem@@V?$allocator@PAUdata_map_t@valve@nem@@@std@@@std@@@Z 1013d830 f   net_vars.obj
 0001:0013c980       ??A?$unordered_map@V?$basic_string@DU?$char_traits@D@std@@V?$allocator@D@2@@std@@U?$pair@PAUrecv_prop_t@valve@nem@@I@2@U?$hash@V?$basic_string@DU?$char_traits@D@std@@V?$allocator@D@2@@std@@@2@U?$equal_to@V?$basic_string@DU?$char_traits@D@std@@V?$allocator@D@2@@std@@@2@V?$allocator@U?$pair@$$CBV?$basic_string@DU?$char_traits@D@std@@V?$allocator@D@2@@std@@U?$pair@PAUrecv_prop_t@valve@nem@@I@2@@std@@@2@@std@@QAEAAU?$pair@PAUrecv_prop_t@valve@nem@@I@1@$$QAV?$basic_string@DU?$char_traits@D@std@@V?$allocator@D@2@@1@@Z 1013d980 f i net_vars.obj
 0001:0013c9a0       ??$_Try_emplace@V?$basic_string@DU?$char_traits@D@std@@V?$allocator@D@2@@std@@$$V@?$_Hash@V?$_Umap_traits@V?$basic_string@DU?$char_traits@D@std@@V?$allocator@D@2@@std@@U?$pair@PAUrecv_prop_t@valve@nem@@I@2@V?$_Uhash_compare@V?$basic_string@DU?$char_traits@D@std@@V?$allocator@D@2@@std@@U?$hash@V?$basic_string@DU?$char_traits@D@std@@V?$allocator@D@2@@std@@@2@U?$equal_to@V?$basic_string@DU?$char_traits@D@std@@V?$allocator@D@2@@std@@@2@@2@V?$allocator@U?$pair@$$CBV?$basic_string@DU?$char_traits@D@std@@V?$allocator@D@2@@std@@U?$pair@PAUrecv_prop_t@valve@nem@@I@2@@std@@@2@$0A@@std@@@std@@IAE?AU?$pair@PAU?$_List_node@U?$pair@$$CBV?$basic_string@DU?$char_traits@D@std@@V?$allocator@D@2@@std@@U?$pair@PAUrecv_prop_t@valve@nem@@I@2@@std@@PAX@std@@_N@1@$$QAV?$basic_string@DU?$char_traits@D@std@@V?$allocator@D@2@@1@@Z 1013d9a0 f i net_vars.obj
 0001:0013cbc0       ??1?$_List_node_emplace_op2@V?$allocator@U?$_List_node@U?$pair@$$CBV?$basic_string@DU?$char_traits@D@std@@V?$allocator@D@2@@std@@U?$pair@PAUrecv_prop_t@valve@nem@@I@2@@std@@PAX@std@@@std@@@std@@QAE@XZ 1013dbc0 f i net_vars.obj
 0001:0013cbf0       ??1?$_Alloc_construct_ptr@V?$allocator@U?$_List_node@U?$pair@$$CBV?$basic_string@DU?$char_traits@D@std@@V?$allocator@D@2@@std@@U?$pair@PAUrecv_prop_t@valve@nem@@I@2@@std@@PAX@std@@@std@@@std@@QAE@XZ 1013dbf0 f i net_vars.obj
 0001:0013ccd0       _luaL_checklstring         1013dcd0 f   lua51:lj_api.obj
 0001:0013cd50       _luaL_checknumber          1013dd50 f   lua51:lj_api.obj
 0001:0013cda0       _luaL_checkstack           1013dda0 f   lua51:lj_api.obj
 0001:0013cdf0       _luaL_checktype            1013ddf0 f   lua51:lj_api.obj
 0001:0013ce60       _luaL_checkudata           1013de60 f   lua51:lj_api.obj
 0001:0013ced0       _luaL_newmetatable         1013ded0 f   lua51:lj_api.obj
 0001:0013cf80       _luaL_optinteger           1013df80 f   lua51:lj_api.obj
 0001:0013cff0       _luaL_optlstring           1013dff0 f   lua51:lj_api.obj
 0001:0013d0a0       _luaL_optnumber            1013e0a0 f   lua51:lj_api.obj
 0001:0013d100       _lua_call                  1013e100 f   lua51:lj_api.obj
 0001:0013d130       _lua_checkstack            1013e130 f   lua51:lj_api.obj
 0001:0013d180       _lua_concat                1013e180 f   lua51:lj_api.obj
 0001:0013d220       _lua_createtable           1013e220 f   lua51:lj_api.obj
 0001:0013d290       _lua_equal                 1013e290 f   lua51:lj_api.obj
 0001:0013d350       _lua_gc                    1013e350 f   lua51:lj_api.obj
 0001:0013d460       _lua_getfenv               1013e460 f   lua51:lj_api.obj
 0001:0013d4e0       _lua_getfield              1013e4e0 f   lua51:lj_api.obj
 0001:0013d580       _lua_getmetatable          1013e580 f   lua51:lj_api.obj
 0001:0013d600       _lua_gettable              1013e600 f   lua51:lj_api.obj
 0001:0013d660       _lua_gettop                1013e660 f   lua51:lj_api.obj
 0001:0013d670       _lua_getupvalue            1013e670 f   lua51:lj_api.obj
 0001:0013d6d0       _lua_insert                1013e6d0 f   lua51:lj_api.obj
 0001:0013d730       _lua_iscfunction           1013e730 f   lua51:lj_api.obj
 0001:0013d760       _lua_isnumber              1013e760 f   lua51:lj_api.obj
 0001:0013d7b0       _lua_isstring              1013e7b0 f   lua51:lj_api.obj
 0001:0013d7e0       _lua_lessthan              1013e7e0 f   lua51:lj_api.obj
 0001:0013d870       _lua_newthread             1013e870 f   lua51:lj_api.obj
 0001:0013d8c0       _lua_newuserdata           1013e8c0 f   lua51:lj_api.obj
 0001:0013d940       _lua_next                  1013e940 f   lua51:lj_api.obj
 0001:0013d990       _lua_objlen                1013e990 f   lua51:lj_api.obj
 0001:0013d9f0       _lua_pcall                 1013e9f0 f   lua51:lj_api.obj
 0001:0013da70       _lua_pushboolean           1013ea70 f   lua51:lj_api.obj
 0001:0013daa0       _lua_pushcclosure          1013eaa0 f   lua51:lj_api.obj
 0001:0013db30       _lua_pushfstring           1013eb30 f   lua51:lj_api.obj
 0001:0013db60       _lua_pushinteger           1013eb60 f   lua51:lj_api.obj
 0001:0013db90       _lua_pushlightuserdata     1013eb90 f   lua51:lj_api.obj
 0001:0013dbc0       _lua_pushlstring           1013ebc0 f   lua51:lj_api.obj
 0001:0013dc10       _lua_pushnil               1013ec10 f   lua51:lj_api.obj
 0001:0013dc30       _lua_pushnumber            1013ec30 f   lua51:lj_api.obj
 0001:0013dc70       _lua_pushstring            1013ec70 f   lua51:lj_api.obj
 0001:0013dce0       _lua_pushthread            1013ece0 f   lua51:lj_api.obj
 0001:0013dd20       _lua_pushvalue             1013ed20 f   lua51:lj_api.obj
 0001:0013dd60       _lua_rawequal              1013ed60 f   lua51:lj_api.obj
 0001:0013dda0       _lua_rawget                1013eda0 f   lua51:lj_api.obj
 0001:0013dde0       _lua_rawgeti               1013ede0 f   lua51:lj_api.obj
 0001:0013de40       _lua_rawset                1013ee40 f   lua51:lj_api.obj
 0001:0013de90       _lua_rawseti               1013ee90 f   lua51:lj_api.obj
 0001:0013df00       _lua_remove                1013ef00 f   lua51:lj_api.obj
 0001:0013df60       _lua_replace               1013ef60 f   lua51:lj_api.obj
 0001:0013e060       _lua_setfenv               1013f060 f   lua51:lj_api.obj
 0001:0013e0e0       _lua_setfield              1013f0e0 f   lua51:lj_api.obj
 0001:0013e190       _lua_setmetatable          1013f190 f   lua51:lj_api.obj
 0001:0013e2c0       _lua_settable              1013f2c0 f   lua51:lj_api.obj
 0001:0013e330       _lua_settop                1013f330 f   lua51:lj_api.obj
 0001:0013e3b0       _lua_setupvalue            1013f3b0 f   lua51:lj_api.obj
 0001:0013e430       _lua_toboolean             1013f430 f   lua51:lj_api.obj
 0001:0013e450       _lua_tointeger             1013f450 f   lua51:lj_api.obj
 0001:0013e4b0       _lua_tolstring             1013f4b0 f   lua51:lj_api.obj
 0001:0013e530       _lua_tonumber              1013f530 f   lua51:lj_api.obj
 0001:0013e580       _lua_topointer             1013f580 f   lua51:lj_api.obj
 0001:0013e5c0       _lua_touserdata            1013f5c0 f   lua51:lj_api.obj
 0001:0013e5f0       _lua_type                  1013f5f0 f   lua51:lj_api.obj
 0001:0013e640       _lua_typename              1013f640 f   lua51:lj_api.obj
 0001:0013e650       _lua_xmove                 1013f650 f   lua51:lj_api.obj
 0001:0013e6b0       @lj_debug_line@8           1013f6b0 f   lua51:lj_debug.obj
 0001:0013e9e0       _lj_debug_addloc           1013f9e0 f   lua51:lj_debug.obj
 0001:0013ea90       _lj_debug_frame            1013fa90 f   lua51:lj_debug.obj
 0001:0013eb10       _lj_debug_funcname         1013fb10 f   lua51:lj_debug.obj
 0001:0013ebd0       _lj_debug_getinfo          1013fbd0 f   lua51:lj_debug.obj
 0001:0013efc0       _lj_debug_pushloc          1013ffc0 f   lua51:lj_debug.obj
 0001:0013f090       _lj_debug_shortname        10140090 f   lua51:lj_debug.obj
 0001:0013f1d0       _lj_debug_slotname         101401d0 f   lua51:lj_debug.obj
 0001:0013f3a0       _lj_debug_uvname           101403a0 f   lua51:lj_debug.obj
 0001:0013f3d0       _lj_debug_uvnamev          101403d0 f   lua51:lj_debug.obj
 0001:0013f430       _luaL_traceback            10140430 f   lua51:lj_debug.obj
 0001:0013f630       _lua_getinfo               10140630 f   lua51:lj_debug.obj
 0001:0013f650       _lua_getlocal              10140650 f   lua51:lj_debug.obj
 0001:0013f6f0       _lua_getstack              101406f0 f   lua51:lj_debug.obj
 0001:0013f7b0       _lua_setlocal              101407b0 f   lua51:lj_debug.obj
 0001:0013f800       @lj_err_throw@8            10140800 f   lua51:lj_err.obj
 0001:0013fab0       _lj_err_arg                10140ab0 f   lua51:lj_err.obj
 0001:0013fad0       _lj_err_argt               10140ad0 f   lua51:lj_err.obj
 0001:0013faf0       _lj_err_argtype            10140af0 f   lua51:lj_err.obj
 0001:0013fbb0       _lj_err_argv               10140bb0 f   lua51:lj_err.obj
 0001:0013fbe0       _lj_err_caller             10140be0 f   lua51:lj_err.obj
 0001:0013fc00       _lj_err_callermsg          10140c00 f   lua51:lj_err.obj
 0001:0013fc80       _lj_err_callerv            10140c80 f   lua51:lj_err.obj
 0001:0013fcb0       _lj_err_comp               10140cb0 f   lua51:lj_err.obj
 0001:0013fd10       _lj_err_lex                10140d10 f   lua51:lj_err.obj
 0001:0013fda0       _lj_err_mem                10140da0 f   lua51:lj_err.obj
 0001:0013fdf0       _lj_err_msg                10140df0 f   lua51:lj_err.obj
 0001:0013fe00       _lj_err_optype             10140e00 f   lua51:lj_err.obj
 0001:0013fea0       _lj_err_optype_call        10140ea0 f   lua51:lj_err.obj
 0001:0013ff00       _lj_err_run                10140f00 f   lua51:lj_err.obj
 0001:00140030       _lj_err_str                10141030 f   lua51:lj_err.obj
 0001:00140060       _luaL_argerror             10141060 f   lua51:lj_err.obj
 0001:00140080       _luaL_error                10141080 f   lua51:lj_err.obj
 0001:001400a0       _luaL_where                101410a0 f   lua51:lj_err.obj
 0001:001400f0       _lua_atpanic               101410f0 f   lua51:lj_err.obj
 0001:00140110       _lua_error                 10141110 f   lua51:lj_err.obj
 0001:00140160       ___swprintf_l              10141160 f i lua51:lib_aux.obj
 0001:00140190       ___vswprintf_l             10141190 f i lua51:lib_aux.obj
 0001:001401c0       __fprintf_l                101411c0 f i lua51:lib_aux.obj
 0001:001401f0       __fprintf_p                101411f0 f i lua51:lib_aux.obj
 0001:00140220       __fprintf_p_l              10141220 f i lua51:lib_aux.obj
 0001:00140250       __fprintf_s_l              10141250 f i lua51:lib_aux.obj
 0001:00140280       __fscanf_l                 10141280 f i lua51:lib_aux.obj
 0001:001402b0       __fscanf_s_l               101412b0 f i lua51:lib_aux.obj
 0001:001402e0       __fwprintf_l               101412e0 f i lua51:lib_aux.obj
 0001:00140310       __fwprintf_p               10141310 f i lua51:lib_aux.obj
 0001:00140340       __fwprintf_p_l             10141340 f i lua51:lib_aux.obj
 0001:00140370       __fwprintf_s_l             10141370 f i lua51:lib_aux.obj
 0001:001403a0       __fwscanf_l                101413a0 f i lua51:lib_aux.obj
 0001:001403d0       __fwscanf_s_l              101413d0 f i lua51:lib_aux.obj
 0001:00140400       __printf_l                 10141400 f i lua51:lib_aux.obj
 0001:00140430       __printf_p                 10141430 f i lua51:lib_aux.obj
 0001:00140460       __printf_p_l               10141460 f i lua51:lib_aux.obj
 0001:00140490       __printf_s_l               10141490 f i lua51:lib_aux.obj
 0001:001404c0       __scanf_l                  101414c0 f i lua51:lib_aux.obj
 0001:001404f0       __scanf_s_l                101414f0 f i lua51:lib_aux.obj
 0001:00140530       __scprintf_l               10141530 f i lua51:lib_aux.obj
 0001:00140560       __scprintf_p               10141560 f i lua51:lib_aux.obj
 0001:00140590       __scprintf_p_l             10141590 f i lua51:lib_aux.obj
 0001:001405c0       __scwprintf                101415c0 f i lua51:lib_aux.obj
 0001:001405f0       __scwprintf_l              101415f0 f i lua51:lib_aux.obj
 0001:00140620       __scwprintf_p              10141620 f i lua51:lib_aux.obj
 0001:00140650       __scwprintf_p_l            10141650 f i lua51:lib_aux.obj
 0001:00140680       __snprintf                 10141680 f i lua51:lib_aux.obj
 0001:001406c0       __snprintf_c               101416c0 f i lua51:lib_aux.obj
 0001:001406f0       __snprintf_c_l             101416f0 f i lua51:lib_aux.obj
 0001:00140720       __snprintf_l               10141720 f i lua51:lib_aux.obj
 0001:00140760       __snprintf_s               10141760 f i lua51:lib_aux.obj
 0001:001407a0       __snprintf_s_l             101417a0 f i lua51:lib_aux.obj
 0001:001407e0       __snscanf                  101417e0 f i lua51:lib_aux.obj
 0001:00140810       __snscanf_l                10141810 f i lua51:lib_aux.obj
 0001:00140840       __snscanf_s                10141840 f i lua51:lib_aux.obj
 0001:00140870       __snscanf_s_l              10141870 f i lua51:lib_aux.obj
 0001:001408a0       __snwprintf                101418a0 f i lua51:lib_aux.obj
 0001:001408e0       __snwprintf_l              101418e0 f i lua51:lib_aux.obj
 0001:00140920       __snwprintf_s              10141920 f i lua51:lib_aux.obj
 0001:00140960       __snwprintf_s_l            10141960 f i lua51:lib_aux.obj
 0001:001409a0       __snwscanf                 101419a0 f i lua51:lib_aux.obj
 0001:001409d0       __snwscanf_l               101419d0 f i lua51:lib_aux.obj
 0001:00140a00       __snwscanf_s               10141a00 f i lua51:lib_aux.obj
 0001:00140a30       __snwscanf_s_l             10141a30 f i lua51:lib_aux.obj
 0001:00140a60       __sprintf_l                10141a60 f i lua51:lib_aux.obj
 0001:00140aa0       __sprintf_p                10141aa0 f i lua51:lib_aux.obj
 0001:00140ad0       __sprintf_p_l              10141ad0 f i lua51:lib_aux.obj
 0001:00140b00       __sprintf_s_l              10141b00 f i lua51:lib_aux.obj
 0001:00140b30       __sscanf_l                 10141b30 f i lua51:lib_aux.obj
 0001:00140b60       __sscanf_s_l               10141b60 f i lua51:lib_aux.obj
 0001:00140b90       __swprintf                 10141b90 f i lua51:lib_aux.obj
 0001:00140bc0       __swprintf_c               10141bc0 f i lua51:lib_aux.obj
 0001:00140bc0       _swprintf                  10141bc0 f i lua51:lib_aux.obj
 0001:00140bf0       __swprintf_c_l             10141bf0 f i lua51:lib_aux.obj
 0001:00140bf0       __swprintf_l               10141bf0 f i lua51:lib_aux.obj
 0001:00140c20       __swprintf_p               10141c20 f i lua51:lib_aux.obj
 0001:00140c50       __swprintf_p_l             10141c50 f i lua51:lib_aux.obj
 0001:00140c80       __swprintf_s_l             10141c80 f i lua51:lib_aux.obj
 0001:00140cb0       __swscanf_l                10141cb0 f i lua51:lib_aux.obj
 0001:00140ce0       __swscanf_s_l              10141ce0 f i lua51:lib_aux.obj
 0001:00140d10       __vfprintf_p               10141d10 f i lua51:lib_aux.obj
 0001:00140d40       __vfprintf_p_l             10141d40 f i lua51:lib_aux.obj
 0001:00140d70       __vfprintf_s_l             10141d70 f i lua51:lib_aux.obj
 0001:00140da0       __vfscanf_l                10141da0 f i lua51:lib_aux.obj
 0001:00140dd0       __vfscanf_s_l              10141dd0 f i lua51:lib_aux.obj
 0001:00140e00       __vfwprintf_l              10141e00 f i lua51:lib_aux.obj
 0001:00140e30       __vfwprintf_p              10141e30 f i lua51:lib_aux.obj
 0001:00140e60       __vfwprintf_p_l            10141e60 f i lua51:lib_aux.obj
 0001:00140e90       __vfwprintf_s_l            10141e90 f i lua51:lib_aux.obj
 0001:00140ec0       __vfwscanf_l               10141ec0 f i lua51:lib_aux.obj
 0001:00140ef0       __vfwscanf_s_l             10141ef0 f i lua51:lib_aux.obj
 0001:00140f20       __vprintf_l                10141f20 f i lua51:lib_aux.obj
 0001:00140f50       __vprintf_p                10141f50 f i lua51:lib_aux.obj
 0001:00140f80       __vprintf_p_l              10141f80 f i lua51:lib_aux.obj
 0001:00140fb0       __vprintf_s_l              10141fb0 f i lua51:lib_aux.obj
 0001:00140fe0       __vscanf_l                 10141fe0 f i lua51:lib_aux.obj
 0001:00141010       __vscanf_s_l               10142010 f i lua51:lib_aux.obj
 0001:00141040       __vscprintf                10142040 f i lua51:lib_aux.obj
 0001:00141070       __vscprintf_p              10142070 f i lua51:lib_aux.obj
 0001:001410a0       __vscprintf_p_l            101420a0 f i lua51:lib_aux.obj
 0001:001410d0       __vscwprintf               101420d0 f i lua51:lib_aux.obj
 0001:00141100       __vscwprintf_l             10142100 f i lua51:lib_aux.obj
 0001:00141130       __vscwprintf_p             10142130 f i lua51:lib_aux.obj
 0001:00141160       __vscwprintf_p_l           10142160 f i lua51:lib_aux.obj
 0001:00141190       __vsnprintf_c              10142190 f i lua51:lib_aux.obj
 0001:001411c0       __vsnprintf_c_l            101421c0 f i lua51:lib_aux.obj
 0001:001411f0       __vsnprintf_s              101421f0 f i lua51:lib_aux.obj
 0001:001411f0       _vsnprintf_s               101421f0 f i lua51:lib_aux.obj
 0001:00141230       __vsnprintf_s_l            10142230 f i lua51:lib_aux.obj
 0001:00141270       __vsnwprintf               10142270 f i lua51:lib_aux.obj
 0001:001412b0       __vsnwprintf_l             101422b0 f i lua51:lib_aux.obj
 0001:001412f0       __vsnwprintf_s             101422f0 f i lua51:lib_aux.obj
 0001:00141330       __vsnwprintf_s_l           10142330 f i lua51:lib_aux.obj
 0001:00141370       __vsnwscanf_l              10142370 f i lua51:lib_aux.obj
 0001:001413a0       __vsnwscanf_s_l            101423a0 f i lua51:lib_aux.obj
 0001:001413d0       __vsprintf_l               101423d0 f i lua51:lib_aux.obj
 0001:00141410       __vsprintf_p               10142410 f i lua51:lib_aux.obj
 0001:00141440       __vsprintf_p_l             10142440 f i lua51:lib_aux.obj
 0001:00141470       __vsscanf_s_l              10142470 f i lua51:lib_aux.obj
 0001:001414a0       __vswprintf                101424a0 f i lua51:lib_aux.obj
 0001:001414d0       __vswprintf_c              101424d0 f i lua51:lib_aux.obj
 0001:001414d0       _vswprintf                 101424d0 f i lua51:lib_aux.obj
 0001:00141500       __vswprintf_c_l            10142500 f i lua51:lib_aux.obj
 0001:00141500       __vswprintf_l              10142500 f i lua51:lib_aux.obj
 0001:00141530       __vswprintf_p              10142530 f i lua51:lib_aux.obj
 0001:00141560       __vswprintf_p_l            10142560 f i lua51:lib_aux.obj
 0001:00141590       __vswprintf_s_l            10142590 f i lua51:lib_aux.obj
 0001:001415c0       __vswscanf_l               101425c0 f i lua51:lib_aux.obj
 0001:001415f0       __vswscanf_s_l             101425f0 f i lua51:lib_aux.obj
 0001:00141620       __vwprintf_l               10142620 f i lua51:lib_aux.obj
 0001:00141650       __vwprintf_p               10142650 f i lua51:lib_aux.obj
 0001:00141680       __vwprintf_p_l             10142680 f i lua51:lib_aux.obj
 0001:001416b0       __vwprintf_s_l             101426b0 f i lua51:lib_aux.obj
 0001:001416e0       __vwscanf_l                101426e0 f i lua51:lib_aux.obj
 0001:00141710       __vwscanf_s_l              10142710 f i lua51:lib_aux.obj
 0001:00141740       __wprintf_l                10142740 f i lua51:lib_aux.obj
 0001:00141770       __wprintf_p                10142770 f i lua51:lib_aux.obj
 0001:001417a0       __wprintf_p_l              101427a0 f i lua51:lib_aux.obj
 0001:001417d0       __wprintf_s_l              101427d0 f i lua51:lib_aux.obj
 0001:00141800       __wscanf_l                 10142800 f i lua51:lib_aux.obj
 0001:00141830       __wscanf_s_l               10142830 f i lua51:lib_aux.obj
 0001:001418e0       _fprintf_s                 101428e0 f i lua51:lib_aux.obj
 0001:00141910       _fscanf                    10142910 f i lua51:lib_aux.obj
 0001:00141940       _fscanf_s                  10142940 f i lua51:lib_aux.obj
 0001:00141970       _fwprintf                  10142970 f i lua51:lib_aux.obj
 0001:001419a0       _fwprintf_s                101429a0 f i lua51:lib_aux.obj
 0001:001419d0       _fwscanf                   101429d0 f i lua51:lib_aux.obj
 0001:00141a00       _fwscanf_s                 10142a00 f i lua51:lib_aux.obj
 0001:00141a30       _luaL_addlstring           10142a30 f   lua51:lib_aux.obj
 0001:00141aa0       _luaL_addvalue             10142aa0 f   lua51:lib_aux.obj
 0001:00141b30       _luaL_buffinit             10142b30 f   lua51:lib_aux.obj
 0001:00141b50       _luaL_fileresult           10142b50 f   lua51:lib_aux.obj
 0001:00141be0       _luaL_findtable            10142be0 f   lua51:lib_aux.obj
 0001:00141cd0       _luaL_gsub                 10142cd0 f   lua51:lib_aux.obj
 0001:00141e20       _luaL_newstate             10142e20 f   lua51:lib_aux.obj
 0001:00141e50       _luaL_prepbuffer           10142e50 f   lua51:lib_aux.obj
 0001:00141e80       _luaL_pushresult           10142e80 f   lua51:lib_aux.obj
 0001:00141ed0       _luaL_ref                  10142ed0 f   lua51:lib_aux.obj
 0001:00141f80       _luaL_register             10142f80 f   lua51:lib_aux.obj
 0001:001420a0       _luaL_unref                101430a0 f   lua51:lib_aux.obj
 0001:00142170       _printf                    10143170 f i lua51:lib_aux.obj
 0001:001421a0       _printf_s                  101431a0 f i lua51:lib_aux.obj
 0001:001421d0       _scanf                     101431d0 f i lua51:lib_aux.obj
 0001:00142200       _scanf_s                   10143200 f i lua51:lib_aux.obj
 0001:00142230       _sprintf                   10143230 f i lua51:lib_aux.obj
 0001:00142260       _sscanf_s                  10143260 f i lua51:lib_aux.obj
 0001:00142290       _swprintf_s                10143290 f i lua51:lib_aux.obj
 0001:001422c0       _swscanf                   101432c0 f i lua51:lib_aux.obj
 0001:001422f0       _swscanf_s                 101432f0 f i lua51:lib_aux.obj
 0001:00142320       _vfprintf                  10143320 f i lua51:lib_aux.obj
 0001:00142350       _vfprintf_s                10143350 f i lua51:lib_aux.obj
 0001:00142380       _vfscanf                   10143380 f i lua51:lib_aux.obj
 0001:001423b0       _vfscanf_s                 101433b0 f i lua51:lib_aux.obj
 0001:001423e0       _vfwprintf                 101433e0 f i lua51:lib_aux.obj
 0001:00142410       _vfwprintf_s               10143410 f i lua51:lib_aux.obj
 0001:00142440       _vfwscanf                  10143440 f i lua51:lib_aux.obj
 0001:00142470       _vfwscanf_s                10143470 f i lua51:lib_aux.obj
 0001:001424a0       _vprintf                   101434a0 f i lua51:lib_aux.obj
 0001:001424d0       _vprintf_s                 101434d0 f i lua51:lib_aux.obj
 0001:00142500       _vscanf                    10143500 f i lua51:lib_aux.obj
 0001:00142530       _vscanf_s                  10143530 f i lua51:lib_aux.obj
 0001:00142560       _vsprintf                  10143560 f i lua51:lib_aux.obj
 0001:00142590       _vsscanf                   10143590 f i lua51:lib_aux.obj
 0001:001425c0       _vsscanf_s                 101435c0 f i lua51:lib_aux.obj
 0001:001425f0       _vswprintf_s               101435f0 f i lua51:lib_aux.obj
 0001:00142620       _vswscanf                  10143620 f i lua51:lib_aux.obj
 0001:00142650       _vswscanf_s                10143650 f i lua51:lib_aux.obj
 0001:00142680       _vwprintf                  10143680 f i lua51:lib_aux.obj
 0001:001426b0       _vwprintf_s                101436b0 f i lua51:lib_aux.obj
 0001:001426e0       _vwscanf                   101436e0 f i lua51:lib_aux.obj
 0001:00142710       _vwscanf_s                 10143710 f i lua51:lib_aux.obj
 0001:00142740       _wprintf                   10143740 f i lua51:lib_aux.obj
 0001:00142770       _wprintf_s                 10143770 f i lua51:lib_aux.obj
 0001:001427a0       _wscanf                    101437a0 f i lua51:lib_aux.obj
 0001:001427d0       _wscanf_s                  101437d0 f i lua51:lib_aux.obj
 0001:00142800       @lj_state_free@8           10143800 f   lua51:lj_state.obj
 0001:00142850       @lj_state_growstack1@4     10143850 f   lua51:lj_state.obj
 0001:001428b0       @lj_state_growstack@8      101438b0 f   lua51:lj_state.obj
 0001:00142a50       _lj_state_new              10143a50 f   lua51:lj_state.obj
 0001:00142ab0       _lj_state_relimitstack     10143ab0 f   lua51:lj_state.obj
 0001:00142ae0       _lj_state_shrinkstack      10143ae0 f   lua51:lj_state.obj
 0001:00142b20       _lua_close                 10143b20 f   lua51:lj_state.obj
 0001:00142c50       _lua_newstate              10143c50 f   lua51:lj_state.obj
 0001:00142e40       @lj_dispatch_call@8        10143e40 f   lua51:lj_dispatch.obj
 0001:00142fe0       @lj_dispatch_ins@8         10143fe0 f   lua51:lj_dispatch.obj
 0001:00143270       _lj_dispatch_init          10144270 f   lua51:lj_dispatch.obj
 0001:001433a0       _lj_dispatch_init_hotcount 101443a0 f   lua51:lj_dispatch.obj
 0001:001433d0       _lj_dispatch_update        101443d0 f   lua51:lj_dispatch.obj
 0001:00143640       _luaJIT_setmode            10144640 f   lua51:lj_dispatch.obj
 0001:00143840       _lua_gethook               10144840 f   lua51:lj_dispatch.obj
 0001:00143850       _lua_gethookcount          10144850 f   lua51:lj_dispatch.obj
 0001:00143860       _lua_gethookmask           10144860 f   lua51:lj_dispatch.obj
 0001:00143880       _lua_sethook               10144880 f   lua51:lj_dispatch.obj
 0001:001448b0       _luaopen_jit               101458b0 f   lua51:lib_jit.obj
 0001:00145470       _luaopen_table             10146470 f   lua51:lib_table.obj
 0001:00146d90       _luaopen_ffi               10147d90 f   lua51:lib_ffi.obj
 0001:00147cd0       @lj_ffh_coroutine_wrap_err@8 10148cd0 f   lua51:lib_base.obj
 0001:00147ee0       _luaopen_base              10148ee0 f   lua51:lib_base.obj
 0001:00148ae0       _luaopen_package           10149ae0 f   lua51:lib_package.obj
 0001:00149770       _luaopen_os                1014a770 f   lua51:lib_os.obj
 0001:0014a7b0       _luaopen_string            1014b7b0 f   lua51:lib_string.obj
 0001:0014b680       @lj_math_random_step@4     1014c680 f   lua51:lib_math.obj
 0001:0014b7c0       _luaopen_math              1014c7c0 f   lua51:lib_math.obj
 0001:0014c810       _luaopen_io                1014d810 f   lua51:lib_io.obj
 0001:0014ca00       _luaopen_bit               1014da00 f   lua51:lib_bit.obj
 0001:0014d690       _luaopen_debug             1014e690 f   lua51:lib_debug.obj
 0001:0014d770       _luaL_loadbuffer           1014e770 f   lua51:lj_load.obj
 0001:0014d800       _luaL_loadbufferx          1014e800 f   lua51:lj_load.obj
 0001:0014d890       _luaL_loadfile             1014e890 f   lua51:lj_load.obj
 0001:0014da60       _luaL_loadfilex            1014ea60 f   lua51:lj_load.obj
 0001:0014dc30       _lua_load                  1014ec30 f   lua51:lj_load.obj
 0001:0014dcc0       _lua_loadx                 1014ecc0 f   lua51:lj_load.obj
 0001:0014ddb0       _lj_obj_equal              1014edb0 f   lua51:lj_obj.obj
 0001:0014de10       @lj_gc_barrieruv@8         1014ee10 f   lua51:lj_gc.obj
 0001:0014de40       @lj_gc_step@4              1014ee40 f   lua51:lj_gc.obj
 0001:0014e160       @lj_gc_step_fixtop@4       1014f160 f   lua51:lj_gc.obj
 0001:0014e180       @lj_gc_step_jit@8          1014f180 f   lua51:lj_gc.obj
 0001:0014e270       @lj_mem_newgco@8           1014f270 f   lua51:lj_gc.obj
 0001:0014f0d0       _lj_gc_barrierf            101500d0 f   lua51:lj_gc.obj
 0001:0014f110       _lj_gc_barriertrace        10150110 f   lua51:lj_gc.obj
 0001:0014f150       _lj_gc_closeuv             10150150 f   lua51:lj_gc.obj
 0001:0014f1f0       _lj_gc_finalize_cdata      101501f0 f   lua51:lj_gc.obj
 0001:0014f290       _lj_gc_finalize_udata      10150290 f   lua51:lj_gc.obj
 0001:0014f3a0       _lj_gc_freeall             101503a0 f   lua51:lj_gc.obj
 0001:0014f480       _lj_gc_fullgc              10150480 f   lua51:lj_gc.obj
 0001:0014f740       _lj_gc_separateudata       10150740 f   lua51:lj_gc.obj
 0001:0014f7f0       _lj_mem_grow               101507f0 f   lua51:lj_gc.obj
 0001:0014f860       _lj_mem_realloc            10150860 f   lua51:lj_gc.obj
 0001:0014faf0       @lj_str_bufint@8           10150af0 f   lua51:lj_str.obj
 0001:0014fb40       @lj_str_bufnum@8           10150b40 f   lua51:lj_str.obj
 0001:0014fbb0       @lj_str_cmp@8              10150bb0 f   lua51:lj_str.obj
 0001:0014fc20       @lj_str_free@8             10150c20 f   lua51:lj_str.obj
 0001:0014fc40       @lj_str_fromint@8          10150c40 f   lua51:lj_str.obj
 0001:0014fc80       @lj_str_fromnum@8          10150c80 f   lua51:lj_str.obj
 0001:0014fc80       @lj_str_fromnumber@8       10150c80 f   lua51:lj_str.obj
 0001:0014fd30       _lj_str_needbuf            10150d30 f   lua51:lj_str.obj
 0001:0014fd70       _lj_str_new                10150d70 f   lua51:lj_str.obj
 0001:00150060       _lj_str_pushf              10151060 f   lua51:lj_str.obj
 0001:00150080       _lj_str_pushvf             10151080 f   lua51:lj_str.obj
 0001:00150650       _lj_str_resize             10151650 f   lua51:lj_str.obj
 0001:00150710       @lj_tab_dup@8              10151710 f   lua51:lj_tab.obj
 0001:001507f0       @lj_tab_free@8             101517f0 f   lua51:lj_tab.obj
 0001:00150890       @lj_tab_getinth@8          10151890 f   lua51:lj_tab.obj
 0001:00150900       @lj_tab_len@4              10151900 f   lua51:lj_tab.obj
 0001:00150960       @lj_tab_new1@8             10151960 f   lua51:lj_tab.obj
 0001:00150a80       _lj_tab_get                10151a80 f   lua51:lj_tab.obj
 0001:00150b70       _lj_tab_getstr             10151b70 f   lua51:lj_tab.obj
 0001:00150ba0       _lj_tab_new                10151ba0 f   lua51:lj_tab.obj
 0001:00150c10       _lj_tab_newkey             10151c10 f   lua51:lj_tab.obj
 0001:00150d60       _lj_tab_next               10151d60 f   lua51:lj_tab.obj
 0001:00150ec0       _lj_tab_reasize            10151ec0 f   lua51:lj_tab.obj
 0001:00150f00       _lj_tab_rehash             10151f00 f   lua51:lj_tab.obj
 0001:00150f20       _lj_tab_set                10151f20 f   lua51:lj_tab.obj
 0001:00151050       _lj_tab_setinth            10152050 f   lua51:lj_tab.obj
 0001:001510d0       _lj_tab_setstr             101520d0 f   lua51:lj_tab.obj
 0001:00151990       @lj_func_closeuv@8         10152990 f   lua51:lj_func.obj
 0001:00151a20       @lj_func_free@8            10152a20 f   lua51:lj_func.obj
 0001:00151a60       @lj_func_freeproto@8       10152a60 f   lua51:lj_func.obj
 0001:00151a80       @lj_func_freeuv@8          10152a80 f   lua51:lj_func.obj
 0001:00151ac0       _lj_func_newC              10152ac0 f   lua51:lj_func.obj
 0001:00151b00       _lj_func_newL_empty        10152b00 f   lua51:lj_func.obj
 0001:00151bc0       _lj_func_newL_gc           10152bc0 f   lua51:lj_func.obj
 0001:00151d60       @lj_udata_free@8           10152d60 f   lua51:lj_udata.obj
 0001:00151d80       _lj_udata_new              10152d80 f   lua51:lj_udata.obj
 0001:00151de0       @lj_meta_equal_cd@8        10152de0 f   lua51:lj_meta.obj
 0001:00151eb0       @lj_meta_for@8             10152eb0 f   lua51:lj_meta.obj
 0001:00151f30       @lj_meta_len@8             10152f30 f   lua51:lj_meta.obj
 0001:00151f80       _lj_meta_arith             10152f80 f   lua51:lj_meta.obj
 0001:00152090       _lj_meta_cache             10153090 f   lua51:lj_meta.obj
 0001:001520c0       _lj_meta_call              101530c0 f   lua51:lj_meta.obj
 0001:00152110       _lj_meta_cat               10153110 f   lua51:lj_meta.obj
 0001:00152400       _lj_meta_comp              10153400 f   lua51:lj_meta.obj
 0001:00152580       _lj_meta_equal             10153580 f   lua51:lj_meta.obj
 0001:00152680       _lj_meta_init              10153680 f   lua51:lj_meta.obj
 0001:001526d0       _lj_meta_lookup            101536d0 f   lua51:lj_meta.obj
 0001:00152740       _lj_meta_tailcall          10153740 f   lua51:lj_meta.obj
 0001:00152790       _lj_meta_tget              10153790 f   lua51:lj_meta.obj
 0001:001528e0       _lj_meta_tset              101538e0 f   lua51:lj_meta.obj
 0001:00152bb0       @lj_trace_exit@8           10153bb0 f   lua51:lj_trace.obj
 0001:00152e10       @lj_trace_free@8           10153e10 f   lua51:lj_trace.obj
 0001:00152e70       @lj_trace_hot@8            10153e70 f   lua51:lj_trace.obj
 0001:00152f00       _lj_trace_err              10153f00 f   lua51:lj_trace.obj
 0001:00152f40       _lj_trace_err_info         10153f40 f   lua51:lj_trace.obj
 0001:00152f70       _lj_trace_flush            10153f70 f   lua51:lj_trace.obj
 0001:00152fb0       _lj_trace_flushall         10153fb0 f   lua51:lj_trace.obj
 0001:001530a0       _lj_trace_flushproto       101540a0 f   lua51:lj_trace.obj
 0001:001531d0       _lj_trace_freestate        101541d0 f   lua51:lj_trace.obj
 0001:00153280       _lj_trace_initstate        10154280 f   lua51:lj_trace.obj
 0001:001532d0       _lj_trace_ins              101542d0 f   lua51:lj_trace.obj
 0001:00153340       _lj_trace_reenableproto    10154340 f   lua51:lj_trace.obj
 0001:00154280       @lj_strscan_num@8          10155280 f   lua51:lj_strscan.obj
 0001:001542a0       _lj_strscan_scan           101552a0 f   lua51:lj_strscan.obj
 0001:00155820       _lj_alloc_create           10156820 f   lua51:lj_alloc.obj
 0001:00155900       _lj_alloc_destroy          10156900 f   lua51:lj_alloc.obj
 0001:001559a0       _lj_alloc_f                101569a0 f   lua51:lj_alloc.obj
 0001:00157990       _lj_ctype_addname          10158990 f   lua51:lj_ctype.obj
 0001:001579d0       _lj_ctype_freestate        101589d0 f   lua51:lj_ctype.obj
 0001:00157a40       _lj_ctype_getfieldq        10158a40 f   lua51:lj_ctype.obj
 0001:00157b20       _lj_ctype_getname          10158b20 f   lua51:lj_ctype.obj
 0001:00157bb0       _lj_ctype_info             10158bb0 f   lua51:lj_ctype.obj
 0001:00157c40       _lj_ctype_init             10158c40 f   lua51:lj_ctype.obj
 0001:00157da0       _lj_ctype_intern           10158da0 f   lua51:lj_ctype.obj
 0001:00157e80       _lj_ctype_meta             10158e80 f   lua51:lj_ctype.obj
 0001:00157f30       _lj_ctype_new              10158f30 f   lua51:lj_ctype.obj
 0001:00157fa0       _lj_ctype_rawref           10158fa0 f   lua51:lj_ctype.obj
 0001:00157fe0       _lj_ctype_repr             10158fe0 f   lua51:lj_ctype.obj
 0001:001580e0       _lj_ctype_repr_complex     101590e0 f   lua51:lj_ctype.obj
 0001:001581b0       _lj_ctype_repr_int64       101591b0 f   lua51:lj_ctype.obj
 0001:001582f0       _lj_ctype_size             101592f0 f   lua51:lj_ctype.obj
 0001:00158350       _lj_ctype_vlsize           10159350 f   lua51:lj_ctype.obj
 0001:00158750       _lj_lex_cleanup            10159750 f   lua51:lj_lex.obj
 0001:001587b0       _lj_lex_error              101597b0 f   lua51:lj_lex.obj
 0001:00158820       _lj_lex_init               10159820 f   lua51:lj_lex.obj
 0001:00158870       _lj_lex_lookahead          10159870 f   lua51:lj_lex.obj
 0001:00158890       _lj_lex_next               10159890 f   lua51:lj_lex.obj
 0001:001588e0       _lj_lex_setup              101598e0 f   lua51:lj_lex.obj
 0001:00158b60       _lj_lex_token2str          10159b60 f   lua51:lj_lex.obj
 0001:00159e20       @lj_ir_emit@4              1015ae20 f   lua51:lj_ir.obj
 0001:00159e90       @lj_ir_growtop@4           1015ae90 f   lua51:lj_ir.obj
 0001:00159f20       @lj_ir_kint@8              1015af20 f   lua51:lj_ir.obj
 0001:00159fa0       @lj_ir_tonum@8             1015afa0 f   lua51:lj_ir.obj
 0001:0015a000       @lj_ir_tonumber@8          1015b000 f   lua51:lj_ir.obj
 0001:0015a040       @lj_ir_tostr@8             1015b040 f   lua51:lj_ir.obj
 0001:0015a080       _lj_ir_call                1015b080 f   lua51:lj_ir.obj
 0001:0015a230       _lj_ir_k64                 1015b230 f   lua51:lj_ir.obj
 0001:0015a2d0       _lj_ir_k64_find            1015b2d0 f   lua51:lj_ir.obj
 0001:0015a380       _lj_ir_k64_freeall         1015b380 f   lua51:lj_ir.obj
 0001:0015a3c0       _lj_ir_kgc                 1015b3c0 f   lua51:lj_ir.obj
 0001:0015a440       _lj_ir_kint64              1015b440 f   lua51:lj_ir.obj
 0001:0015a4d0       _lj_ir_knull               1015b4d0 f   lua51:lj_ir.obj
 0001:0015a550       _lj_ir_knum_u64            1015b550 f   lua51:lj_ir.obj
 0001:0015a5e0       _lj_ir_knumint             1015b5e0 f   lua51:lj_ir.obj
 0001:0015a6b0       _lj_ir_kptr_               1015b6b0 f   lua51:lj_ir.obj
 0001:0015a740       _lj_ir_kslot               1015b740 f   lua51:lj_ir.obj
 0001:0015a7c0       _lj_ir_kvalue              1015b7c0 f   lua51:lj_ir.obj
 0001:0015a890       _lj_ir_numcmp              1015b890 f   lua51:lj_ir.obj
 0001:0015a960       _lj_ir_rollback            1015b960 f   lua51:lj_ir.obj
 0001:0015a9a0       _lj_ir_strcmp              1015b9a0 f   lua51:lj_ir.obj
 0001:0015aa00       _lj_lib_checkany           1015ba00 f   lua51:lj_lib.obj
 0001:0015aa30       _lj_lib_checkbit           1015ba30 f   lua51:lj_lib.obj
 0001:0015aa30       _lj_lib_checkint           1015ba30 f   lua51:lj_lib.obj
 0001:0015aa90       _lj_lib_checkfunc          1015ba90 f   lua51:lj_lib.obj
 0001:0015aac0       _lj_lib_checknum           1015bac0 f   lua51:lj_lib.obj
 0001:0015ab10       _lj_lib_checkopt           1015bb10 f   lua51:lj_lib.obj
 0001:0015ac30       _lj_lib_checkstr           1015bc30 f   lua51:lj_lib.obj
 0001:0015ac80       _lj_lib_checktab           1015bc80 f   lua51:lj_lib.obj
 0001:0015acb0       _lj_lib_checktabornil      1015bcb0 f   lua51:lj_lib.obj
 0001:0015acf0       _lj_lib_optint             1015bcf0 f   lua51:lj_lib.obj
 0001:0015ad60       _lj_lib_optstr             1015bd60 f   lua51:lj_lib.obj
 0001:0015adb0       _lj_lib_register           1015bdb0 f   lua51:lj_lib.obj
 0001:0015f100       _lj_cparse                 10160100 f   lua51:lj_cparse.obj
 0001:0015f190       @lj_cdata_free@8           10160190 f   lua51:lj_cdata.obj
 0001:0015f270       @lj_cdata_setfin@8         10160270 f   lua51:lj_cdata.obj
 0001:0015f2e0       _lj_cdata_get              101602e0 f   lua51:lj_cdata.obj
 0001:0015f3d0       _lj_cdata_index            101603d0 f   lua51:lj_cdata.obj
 0001:0015f780       _lj_cdata_newref           10160780 f   lua51:lj_cdata.obj
 0001:0015f7c0       _lj_cdata_newv             101607c0 f   lua51:lj_cdata.obj
 0001:0015f860       _lj_cdata_set              10160860 f   lua51:lj_cdata.obj
 0001:0015fd90       _lj_cconv_bf_tv            10160d90 f   lua51:lj_cconv.obj
 0001:0015fe90       _lj_cconv_compatptr        10160e90 f   lua51:lj_cconv.obj
 0001:0015ffb0       _lj_cconv_ct_ct            10160fb0 f   lua51:lj_cconv.obj
 0001:001606c0       _lj_cconv_ct_init          101616c0 f   lua51:lj_cconv.obj
 0001:00160860       _lj_cconv_ct_tv            10161860 f   lua51:lj_cconv.obj
 0001:00160c20       _lj_cconv_multi_init       10161c20 f   lua51:lj_cconv.obj
 0001:00160c80       _lj_cconv_tv_bf            10161c80 f   lua51:lj_cconv.obj
 0001:00160d70       _lj_cconv_tv_ct            10161d70 f   lua51:lj_cconv.obj
 0001:00161780       _lj_carith_divi64          10162780 f   lua51:lj_carith.obj
 0001:001617c0       _lj_carith_divu64          101627c0 f   lua51:lj_carith.obj
 0001:00161a10       _lj_carith_modi64          10162a10 f   lua51:lj_carith.obj
 0001:00161a60       _lj_carith_modu64          10162a60 f   lua51:lj_carith.obj
 0001:00161a90       _lj_carith_mul64           10162a90 f   lua51:lj_carith.obj
 0001:00161ab0       _lj_carith_op              10162ab0 f   lua51:lj_carith.obj
 0001:00161b40       _lj_carith_powi64          10162b40 f   lua51:lj_carith.obj
 0001:00161bc0       _lj_carith_powu64          10162bc0 f   lua51:lj_carith.obj
 0001:001620b0       _lj_ccall_ctid_vararg      101630b0 f   lua51:lj_ccall.obj
 0001:00162180       _lj_ccall_func             10163180 f   lua51:lj_ccall.obj
 0001:00162400       @lj_ccallback_enter@8      10163400 f   lua51:lj_ccallback.obj
 0001:00162480       @lj_ccallback_leave@8      10163480 f   lua51:lj_ccallback.obj
 0001:00162980       _lj_ccallback_mcode_free   10163980 f   lua51:lj_ccallback.obj
 0001:001629a0       _lj_ccallback_new          101639a0 f   lua51:lj_ccallback.obj
 0001:00162b00       _lj_ccallback_ptr2slot     10163b00 f   lua51:lj_ccallback.obj
 0001:00162cc0       _lj_clib_default           10163cc0 f   lua51:lj_clib.obj
 0001:00162d10       _lj_clib_index             10163d10 f   lua51:lj_clib.obj
 0001:00162f50       _lj_clib_load              10163f50 f   lua51:lj_clib.obj
 0001:00163000       _lj_clib_unload            10164000 f   lua51:lj_clib.obj
 0001:00163bf0       _lj_bcwrite                10164bf0 f   lua51:lj_bcwrite.obj
 0001:00164890       _lj_bcread                 10165890 f   lua51:lj_bcread.obj
 0001:00168360       _lj_parse                  10169360 f   lua51:lj_parse.obj
 0001:00168480       _lj_parse_keepcdata        10169480 f   lua51:lj_parse.obj
 0001:001684b0       _lj_parse_keepstr          101694b0 f   lua51:lj_parse.obj
 0001:0016a870       _lj_opt_dce                1016b870 f   lua51:lj_opt_dce.obj
 0001:0016a910       _lj_opt_loop               1016b910 f   lua51:lj_opt_loop.obj
 0001:0016b2b0       _lj_opt_split              1016c2b0 f   lua51:lj_opt_split.obj
 0001:0016bf30       _lj_opt_sink               1016cf30 f   lua51:lj_opt_sink.obj
 0001:0016c520       _lj_mcode_abort            1016d520 f   lua51:lj_mcode.obj
 0001:0016c570       _lj_mcode_commit           1016d570 f   lua51:lj_mcode.obj
 0001:0016c5c0       _lj_mcode_free             1016d5c0 f   lua51:lj_mcode.obj
 0001:0016c610       _lj_mcode_limiterr         1016d610 f   lua51:lj_mcode.obj
 0001:0016c6b0       _lj_mcode_patch            1016d6b0 f   lua51:lj_mcode.obj
 0001:0016c7b0       _lj_mcode_reserve          1016d7b0 f   lua51:lj_mcode.obj
 0001:0016c8f0       _lj_snap_add               1016d8f0 f   lua51:lj_snap.obj
 0001:0016c9d0       _lj_snap_grow_buf_         1016d9d0 f   lua51:lj_snap.obj
 0001:0016ca10       _lj_snap_grow_map_         1016da10 f   lua51:lj_snap.obj
 0001:0016ca70       _lj_snap_purge             1016da70 f   lua51:lj_snap.obj
 0001:0016cae0       _lj_snap_regspmap          1016dae0 f   lua51:lj_snap.obj
 0001:0016cbd0       _lj_snap_replay            1016dbd0 f   lua51:lj_snap.obj
 0001:0016d4e0       _lj_snap_restore           1016e4e0 f   lua51:lj_snap.obj
 0001:0016d790       _lj_snap_shrink            1016e790 f   lua51:lj_snap.obj
 0001:0016ea60       _lj_record_call            1016fa60 f   lua51:lj_record.obj
 0001:0016eaa0       _lj_record_constify        1016faa0 f   lua51:lj_record.obj
 0001:0016eb20       _lj_record_idx             1016fb20 f   lua51:lj_record.obj
 0001:0016f170       _lj_record_ins             10170170 f   lua51:lj_record.obj
 0001:00170490       _lj_record_mm_lookup       10171490 f   lua51:lj_record.obj
 0001:00170750       _lj_record_objcmp          10171750 f   lua51:lj_record.obj
 0001:00170840       _lj_record_ret             10171840 f   lua51:lj_record.obj
 0001:00170da0       _lj_record_setup           10171da0 f   lua51:lj_record.obj
 0001:001710c0       _lj_record_tailcall        101720c0 f   lua51:lj_record.obj
 0001:0017b880       _lj_asm_patchexit          1017c880 f   lua51:lj_asm.obj
 0001:0017b980       _lj_asm_trace              1017c980 f   lua51:lj_asm.obj
 0001:0017cc90       _lj_vmevent_call           1017dc90 f   lua51:lj_vmevent.obj
 0001:0017cd50       _lj_vmevent_prepare        1017dd50 f   lua51:lj_vmevent.obj
 0001:0017ce00       @lj_vm_modi@8              1017de00 f   lua51:lj_vmmath.obj
 0001:0017ce30       _lj_vm_cosh                1017de30 f   lua51:lj_vmmath.obj
 0001:0017ce40       _lj_vm_errno               1017de40 f   lua51:lj_vmmath.obj
 0001:0017ce50       _lj_vm_sinh                1017de50 f   lua51:lj_vmmath.obj
 0001:0017ce60       _lj_vm_tanh                1017de60 f   lua51:lj_vmmath.obj
 0001:0017d710       @lj_opt_cse@4              1017e710 f   lua51:lj_opt_fold.obj
 0001:0017f4c0       @lj_opt_cselim@8           101804c0 f   lua51:lj_opt_fold.obj
 0001:0017f510       @lj_opt_fold@4             10180510 f   lua51:lj_opt_fold.obj
 0001:0017f9c0       @lj_opt_dse_ahstore@4      101809c0 f   lua51:lj_opt_mem.obj
 0001:0017faa0       @lj_opt_dse_fstore@4       10180aa0 f   lua51:lj_opt_mem.obj
 0001:0017fbd0       @lj_opt_dse_ustore@4       10180bd0 f   lua51:lj_opt_mem.obj
 0001:0017fd40       @lj_opt_dse_xstore@4       10180d40 f   lua51:lj_opt_mem.obj
 0001:0017fe40       @lj_opt_fwd_aload@4        10180e40 f   lua51:lj_opt_mem.obj
 0001:0017ff10       @lj_opt_fwd_fload@4        10180f10 f   lua51:lj_opt_mem.obj
 0001:0017ffd0       @lj_opt_fwd_hload@4        10180fd0 f   lua51:lj_opt_mem.obj
 0001:0017fff0       @lj_opt_fwd_href_nokey@4   10180ff0 f   lua51:lj_opt_mem.obj
 0001:001801e0       @lj_opt_fwd_hrefk@4        101811e0 f   lua51:lj_opt_mem.obj
 0001:00180300       @lj_opt_fwd_tab_len@4      10181300 f   lua51:lj_opt_mem.obj
 0001:00180370       @lj_opt_fwd_tptr@8         10181370 f   lua51:lj_opt_mem.obj
 0001:00180430       @lj_opt_fwd_uload@4        10181430 f   lua51:lj_opt_mem.obj
 0001:00180520       @lj_opt_fwd_xload@4        10181520 f   lua51:lj_opt_mem.obj
 0001:00180df0       _lj_opt_fwd_wasnonnil      10181df0 f   lua51:lj_opt_mem.obj
 0001:00181060       @lj_opt_narrow_cindex@8    10182060 f   lua51:lj_opt_narrow.obj
 0001:001810a0       @lj_opt_narrow_convert@4   101820a0 f   lua51:lj_opt_narrow.obj
 0001:00181150       @lj_opt_narrow_index@8     10182150 f   lua51:lj_opt_narrow.obj
 0001:001811f0       @lj_opt_narrow_tobit@8     101821f0 f   lua51:lj_opt_narrow.obj
 0001:001812b0       @lj_opt_narrow_toint@8     101822b0 f   lua51:lj_opt_narrow.obj
 0001:00181330       _lj_opt_narrow_arith       10182330 f   lua51:lj_opt_narrow.obj
 0001:00181520       _lj_opt_narrow_forl        10182520 f   lua51:lj_opt_narrow.obj
 0001:00181630       _lj_opt_narrow_mod         10182630 f   lua51:lj_opt_narrow.obj
 0001:00181810       _lj_opt_narrow_pow         10182810 f   lua51:lj_opt_narrow.obj
 0001:00181b70       _lj_opt_narrow_unm         10182b70 f   lua51:lj_opt_narrow.obj
 0001:00183dc0       _lj_ffrecord_func          10184dc0 f   lua51:lj_ffrecord.obj
 0001:00183e50       _lj_ffrecord_select_mode   10184e50 f   lua51:lj_ffrecord.obj
 0001:00184170       @lj_crecord_tonumber@8     10185170 f   lua51:lj_crecord.obj
 0001:00184220       @recff_cdata_arith@8       10185220 f   lua51:lj_crecord.obj
 0001:00184710       @recff_cdata_call@8        10185710 f   lua51:lj_crecord.obj
 0001:00184840       @recff_cdata_index@8       10185840 f   lua51:lj_crecord.obj
 0001:00185100       @recff_clib_index@8        10186100 f   lua51:lj_crecord.obj
 0001:00185320       @recff_ffi_abi@8           10186320 f   lua51:lj_crecord.obj
 0001:00185390       @recff_ffi_copy@8          10186390 f   lua51:lj_crecord.obj
 0001:001854a0       @recff_ffi_errno@8         101864a0 f   lua51:lj_crecord.obj
 0001:001854d0       @recff_ffi_fill@8          101864d0 f   lua51:lj_crecord.obj
 0001:00185640       @recff_ffi_gc@8            10186640 f   lua51:lj_crecord.obj
 0001:00185670       @recff_ffi_istype@8        10186670 f   lua51:lj_crecord.obj
 0001:001856d0       @recff_ffi_new@8           101866d0 f   lua51:lj_crecord.obj
 0001:00185700       @recff_ffi_string@8        10186700 f   lua51:lj_crecord.obj
 0001:001857b0       @recff_ffi_typeof@8        101867b0 f   lua51:lj_crecord.obj
 0001:00185830       @recff_ffi_xof@8           10186830 f   lua51:lj_crecord.obj
 0001:00188460       _FT_Add_Default_Modules    10189460 f   freetype:ftinit.obj
 0001:00188790       _FT_Activate_Size          10189790 f   freetype:ftbase.obj
 0001:001887c0       _FT_Add_Module             101897c0 f   freetype:ftbase.obj
 0001:00188a50       _FT_CMap_New               10189a50 f   freetype:ftbase.obj
 0001:00188b40       _FT_DivFix                 10189b40 f   freetype:ftbase.obj
 0001:00188be0       _FT_Done_Face              10189be0 f   freetype:ftbase.obj
 0001:00188c60       _FT_Done_GlyphSlot         10189c60 f   freetype:ftbase.obj
 0001:00188cc0       _FT_Done_Library           10189cc0 f   freetype:ftbase.obj
 0001:00188dd0       _FT_Done_Size              10189dd0 f   freetype:ftbase.obj
 0001:00188e80       _FT_Get_Advance            10189e80 f   freetype:ftbase.obj
 0001:00188ff0       _FT_Get_CMap_Format        10189ff0 f   freetype:ftbase.obj
 0001:00189040       _FT_Get_Char_Index         1018a040 f   freetype:ftbase.obj
 0001:00189070       _FT_Get_Glyph_Name         1018a070 f   freetype:ftbase.obj
 0001:00189120       _FT_Get_Module             1018a120 f   freetype:ftbase.obj
 0001:00189190       _FT_Get_Module_Interface   1018a190 f   freetype:ftbase.obj
 0001:001891b0       _FT_Get_Next_Char          1018a1b0 f   freetype:ftbase.obj
 0001:00189210       _FT_GlyphLoader_Add        1018a210 f   freetype:ftbase.obj
 0001:001893a0       _FT_GlyphLoader_CheckPoints 1018a3a0 f   freetype:ftbase.obj
 0001:00189520       _FT_GlyphLoader_CheckSubGlyphs 1018a520 f   freetype:ftbase.obj
 0001:00189580       _FT_GlyphLoader_CreateExtra 1018a580 f   freetype:ftbase.obj
 0001:00189620       _FT_GlyphLoader_Prepare    1018a620 f   freetype:ftbase.obj
 0001:00189680       _FT_GlyphLoader_Reset      1018a680 f   freetype:ftbase.obj
 0001:00189740       _FT_GlyphLoader_Rewind     1018a740 f   freetype:ftbase.obj
 0001:00189770       _FT_Hypot                  1018a770 f   freetype:ftbase.obj
 0001:001897e0       _FT_List_Add               1018a7e0 f   freetype:ftbase.obj
 0001:00189810       _FT_List_Finalize          1018a810 f   freetype:ftbase.obj
 0001:00189870       _FT_List_Find              1018a870 f   freetype:ftbase.obj
 0001:001898a0       _FT_List_Iterate           1018a8a0 f   freetype:ftbase.obj
 0001:001898f0       _FT_List_Remove            1018a8f0 f   freetype:ftbase.obj
 0001:00189920       _FT_Load_Glyph             1018a920 f   freetype:ftbase.obj
 0001:0018a000       _FT_MSB                    1018b000 f   freetype:ftbase.obj
 0001:0018a070       _FT_Match_Size             1018b070 f   freetype:ftbase.obj
 0001:0018a160       _FT_Matrix_Invert          1018b160 f   freetype:ftbase.obj
 0001:0018a230       _FT_Matrix_Multiply_Scaled 1018b230 f   freetype:ftbase.obj
 0001:0018a320       _FT_MulDiv                 1018b320 f   freetype:ftbase.obj
 0001:0018a3f0       _FT_MulDiv_No_Round        1018b3f0 f   freetype:ftbase.obj
 0001:0018a4b0       _FT_New_GlyphSlot          1018b4b0 f   freetype:ftbase.obj
 0001:0018a600       _FT_New_Library            1018b600 f   freetype:ftbase.obj
 0001:0018a680       _FT_New_Memory_Face        1018b680 f   freetype:ftbase.obj
 0001:0018a6d0       _FT_New_Size               1018b6d0 f   freetype:ftbase.obj
 0001:0018a7f0       _FT_Open_Face              1018b7f0 f   freetype:ftbase.obj
 0001:0018a810       _FT_Outline_Decompose      1018b810 f   freetype:ftbase.obj
 0001:0018ac00       _FT_Outline_EmboldenXY     1018bc00 f   freetype:ftbase.obj
 0001:0018b030       _FT_Outline_Get_CBox       1018c030 f   freetype:ftbase.obj
 0001:0018b0e0       _FT_Outline_Get_Orientation 1018c0e0 f   freetype:ftbase.obj
 0001:0018b300       _FT_Outline_Transform      1018c300 f   freetype:ftbase.obj
 0001:0018b440       _FT_Outline_Translate      1018c440 f   freetype:ftbase.obj
 0001:0018b480       _FT_Raccess_Get_DataOffsets 1018c480 f   freetype:ftbase.obj
 0001:0018b7d0       _FT_Raccess_Get_HeaderInfo 1018c7d0 f   freetype:ftbase.obj
 0001:0018baa0       _FT_Remove_Module          1018caa0 f   freetype:ftbase.obj
 0001:0018bc00       _FT_Render_Glyph           1018cc00 f   freetype:ftbase.obj
 0001:0018bcf0       _FT_Request_Metrics        1018ccf0 f   freetype:ftbase.obj
 0001:0018bf80       _FT_Request_Size           1018cf80 f   freetype:ftbase.obj
 0001:0018c190       _FT_RoundFix               1018d190 f   freetype:ftbase.obj
 0001:0018c1b0       _FT_Select_Charmap         1018d1b0 f   freetype:ftbase.obj
 0001:0018c210       _FT_Select_Metrics         1018d210 f   freetype:ftbase.obj
 0001:0018c2b0       _FT_Select_Size            1018d2b0 f   freetype:ftbase.obj
 0001:0018c3a0       _FT_Set_Charmap            1018d3a0 f   freetype:ftbase.obj
 0001:0018c400       _FT_Stream_Close           1018d400 f   freetype:ftbase.obj
 0001:0018c420       _FT_Stream_EnterFrame      1018d420 f   freetype:ftbase.obj
 0001:0018c4e0       _FT_Stream_ExitFrame       1018d4e0 f   freetype:ftbase.obj
 0001:0018c520       _FT_Stream_ExtractFrame    1018d520 f   freetype:ftbase.obj
 0001:0018c550       _FT_Stream_Free            1018d550 f   freetype:ftbase.obj
 0001:0018c580       _FT_Stream_GetChar         1018d580 f   freetype:ftbase.obj
 0001:0018c5a0       _FT_Stream_GetULong        1018d5a0 f   freetype:ftbase.obj
 0001:0018c5e0       _FT_Stream_GetULongLE      1018d5e0 f   freetype:ftbase.obj
 0001:0018c620       _FT_Stream_GetUShort       1018d620 f   freetype:ftbase.obj
 0001:0018c660       _FT_Stream_GetUShortLE     1018d660 f   freetype:ftbase.obj
 0001:0018c6a0       _FT_Stream_New             1018d6a0 f   freetype:ftbase.obj
 0001:0018c780       _FT_Stream_OpenMemory      1018d780 f   freetype:ftbase.obj
 0001:0018c7b0       _FT_Stream_Pos             1018d7b0 f   freetype:ftbase.obj
 0001:0018c7c0       _FT_Stream_Read            1018d7c0 f   freetype:ftbase.obj
 0001:0018c840       _FT_Stream_ReadAt          1018d840 f   freetype:ftbase.obj
 0001:0018c8c0       _FT_Stream_ReadChar        1018d8c0 f   freetype:ftbase.obj
 0001:0018c920       _FT_Stream_ReadFields      1018d920 f   freetype:ftbase.obj
 0001:0018cb50       _FT_Stream_ReadULong       1018db50 f   freetype:ftbase.obj
 0001:0018cbd0       _FT_Stream_ReadULongLE     1018dbd0 f   freetype:ftbase.obj
 0001:0018cc50       _FT_Stream_ReadUOffset     1018dc50 f   freetype:ftbase.obj
 0001:0018ccc0       _FT_Stream_ReadUShort      1018dcc0 f   freetype:ftbase.obj
 0001:0018cd30       _FT_Stream_ReadUShortLE    1018dd30 f   freetype:ftbase.obj
 0001:0018cda0       _FT_Stream_ReleaseFrame    1018dda0 f   freetype:ftbase.obj
 0001:0018cde0       _FT_Stream_Seek            1018dde0 f   freetype:ftbase.obj
 0001:0018ce20       _FT_Stream_Skip            1018de20 f   freetype:ftbase.obj
 0001:0018ce70       _FT_Stream_TryRead         1018de70 f   freetype:ftbase.obj
 0001:0018ced0       _FT_Vector_NormLen         1018ded0 f   freetype:ftbase.obj
 0001:0018d060       _FT_Vector_Transform       1018e060 f   freetype:ftbase.obj
 0001:0018d170       _FT_Vector_Transform_Scaled 1018e170 f   freetype:ftbase.obj
 0001:0018dbd0       _ft_corner_is_flat         1018ebd0 f   freetype:ftbase.obj
 0001:0018dc90       _ft_corner_orientation     1018ec90 f   freetype:ftbase.obj
 0001:0018de40       _ft_glyphslot_alloc_bitmap 1018ee40 f   freetype:ftbase.obj
 0001:0018df60       _ft_glyphslot_free_bitmap  1018ef60 f   freetype:ftbase.obj
 0001:0018dfb0       _ft_glyphslot_preset_bitmap 1018efb0 f   freetype:ftbase.obj
 0001:0018e120       _ft_glyphslot_set_bitmap   1018f120 f   freetype:ftbase.obj
 0001:0018e180       _ft_hash_num_init          1018f180 f   freetype:ftbase.obj
 0001:0018e1f0       _ft_hash_num_insert        1018f1f0 f   freetype:ftbase.obj
 0001:0018e1f0       _ft_hash_str_insert        1018f1f0 f   freetype:ftbase.obj
 0001:0018e200       _ft_hash_num_lookup        1018f200 f   freetype:ftbase.obj
 0001:0018e200       _ft_hash_str_lookup        1018f200 f   freetype:ftbase.obj
 0001:0018e220       _ft_hash_str_free          1018f220 f   freetype:ftbase.obj
 0001:0018e280       _ft_hash_str_init          1018f280 f   freetype:ftbase.obj
 0001:0018e4e0       _ft_mem_alloc              1018f4e0 f   freetype:ftbase.obj
 0001:0018e540       _ft_mem_free               1018f540 f   freetype:ftbase.obj
 0001:0018e560       _ft_mem_qalloc             1018f560 f   freetype:ftbase.obj
 0001:0018e5b0       _ft_mem_qrealloc           1018f5b0 f   freetype:ftbase.obj
 0001:0018e6a0       _ft_mem_realloc            1018f6a0 f   freetype:ftbase.obj
 0001:0018e7a0       _ft_mem_strcpyn            1018f7a0 f   freetype:ftbase.obj
 0001:0018e7d0       _ft_mem_strdup             1018f7d0 f   freetype:ftbase.obj
 0001:0018e850       _ft_module_get_service     1018f850 f   freetype:ftbase.obj
 0001:0018f0e0       _ft_service_list_lookup    101900e0 f   freetype:ftbase.obj
 0001:0018f1a0       _ft_synthesize_vertical_metrics 101901a0 f   freetype:ftbase.obj
 0001:0018f3b0       _ft_validator_error        101903b0 f   freetype:ftbase.obj
 0001:0018f3d0       _ft_validator_init         101903d0 f   freetype:ftbase.obj
 0001:0018fe30       _ps_property_get           10190e30 f   freetype:ftbase.obj
 0001:0018ff30       _ps_property_set           10190f30 f   freetype:ftbase.obj
 0001:00190580       _FT_GlyphSlot_Embolden     10191580 f   freetype:ftsynth.obj
 0001:00190680       _FT_GlyphSlot_Oblique      10191680 f   freetype:ftsynth.obj
 0001:00198040       _af_shaper_get_cluster     10199040 f   freetype:autofit.obj
 0001:0019de90       _TT_RunIns                 1019ee90 f   freetype:truetype.obj
 0001:001c6630       _ps_hints_apply            101c7630 f   freetype:pshinter.obj
 0001:001d9bf0       _FT_Stream_Open            101dabf0 f   freetype:ftsystem.obj
 0001:001d9d10       _FT_Bitmap_Convert         101dad10 f   freetype:ftbitmap.obj
 0001:001da1a0       _FT_Bitmap_Copy            101db1a0 f   freetype:ftbitmap.obj
 0001:001da300       _FT_Bitmap_Done            101db300 f   freetype:ftbitmap.obj
 0001:001da350       _FT_Bitmap_Embolden        101db350 f   freetype:ftbitmap.obj
 0001:001da630       _FT_Bitmap_Init            101db630 f   freetype:ftbitmap.obj
 0001:001da650       _FT_GlyphSlot_Own_Bitmap   101db650 f   freetype:ftbitmap.obj
 0001:001da920       _FT_Gzip_Uncompress        101db920 f   freetype:ftgzip.obj
 0001:001daa10       _FT_Stream_OpenGzip        101dba10 f   freetype:ftgzip.obj
 0001:001dd370       _FT_Stream_OpenLZW         101de370 f   freetype:ftlzw.obj
 0001:001ddca0       _ft_lzwstate_io            101deca0 f   freetype:ftlzw.obj
 0001:001de05d       ?_Xbad_alloc@std@@YAXXZ    101df05d f   msvcprt:MSVCP140.dll
 0001:001de063       ??1_Fac_node@std@@QAE@XZ   101df063 f i msvcprt:locale0_implib.obj
 0001:001de094       ??1_Fac_tidy_reg_t@std@@QAE@XZ 101df094 f i msvcprt:locale0_implib.obj
 0001:001de0af       ??_G_Fac_node@std@@QAEPAXI@Z 101df0af f i msvcprt:locale0_implib.obj
 0001:001de0e0       ?_Facet_Register@std@@YAXPAV_Facet_base@1@@Z 101df0e0 f   msvcprt:locale0_implib.obj
 0001:001de10e       __Thrd_sleep_for@4         101df10e f   msvcprt:sharedmutex.obj
 0001:001de114       ?_Lock@?$basic_streambuf@DU?$char_traits@D@std@@@std@@UAEXXZ 101df114 f   msvcprt:MSVCP140.dll
 0001:001de11a       ?_Unlock@?$basic_streambuf@DU?$char_traits@D@std@@@std@@UAEXXZ 101df11a f   msvcprt:MSVCP140.dll
 0001:001de120       ?showmanyc@?$basic_streambuf@DU?$char_traits@D@std@@@std@@MAE_JXZ 101df120 f   msvcprt:MSVCP140.dll
 0001:001de126       ?uflow@?$basic_streambuf@DU?$char_traits@D@std@@@std@@MAEHXZ 101df126 f   msvcprt:MSVCP140.dll
 0001:001de12c       ?xsgetn@?$basic_streambuf@DU?$char_traits@D@std@@@std@@MAE_JPAD_J@Z 101df12c f   msvcprt:MSVCP140.dll
 0001:001de132       ?xsputn@?$basic_streambuf@DU?$char_traits@D@std@@@std@@MAE_JPBD_J@Z 101df132 f   msvcprt:MSVCP140.dll
 0001:001de138       ?setbuf@?$basic_streambuf@DU?$char_traits@D@std@@@std@@MAEPAV12@PAD_J@Z 101df138 f   msvcprt:MSVCP140.dll
 0001:001de13e       ?sync@?$basic_streambuf@DU?$char_traits@D@std@@@std@@MAEHXZ 101df13e f   msvcprt:MSVCP140.dll
 0001:001de144       ?imbue@?$basic_streambuf@DU?$char_traits@D@std@@@std@@MAEXABVlocale@2@@Z 101df144 f   msvcprt:MSVCP140.dll
 0001:001de14a       ___std_get_string_size_without_trailing_whitespace@8 101df14a f   msvcprt:syserror_import_lib.obj
 0001:001de16e       ___std_system_error_allocate_message@8 101df16e f   msvcprt:syserror_import_lib.obj
 0001:001de1e8       ___std_system_error_deallocate_message@4 101df1e8 f   msvcprt:syserror_import_lib.obj
 0001:001de1ee       ___std_fs_close_handle@4   101df1ee f   msvcprt:filesystem.obj
 0001:001de20e       ___std_fs_code_page@0      101df20e f   msvcprt:filesystem.obj
 0001:001de22c       ___std_fs_convert_narrow_to_wide@20 101df22c f   msvcprt:filesystem.obj
 0001:001de260       ___std_fs_convert_wide_to_narrow@20 101df260 f   msvcprt:filesystem.obj
 0001:001de313       ___std_fs_convert_wide_to_narrow_replace_chars@20 101df313 f   msvcprt:filesystem.obj
 0001:001de382       ___std_fs_create_directory@4 101df382 f   msvcprt:filesystem.obj
 0001:001de3e0       ___std_fs_directory_iterator_advance@8 101df3e0 f   msvcprt:filesystem.obj
 0001:001de401       ___std_fs_directory_iterator_close@4 101df401 f   msvcprt:filesystem.obj
 0001:001de421       ___std_fs_directory_iterator_open@12 101df421 f   msvcprt:filesystem.obj
 0001:001de458       ___std_fs_get_stats@16     101df458 f   msvcprt:filesystem.obj
 0001:001de6e2       ___std_fs_open_handle@16   101df6e2 f   msvcprt:filesystem.obj
 0001:001defc0       ___std_find_end_1@16       101dffc0 f   msvcprt:vector_algorithms.obj
 0001:001defd0       ___std_find_last_trivial_1@12 101dffd0 f   msvcprt:vector_algorithms.obj
 0001:001defe0       ___std_find_trivial_1@12   101dffe0 f   msvcprt:vector_algorithms.obj
 0001:001deff0       ___std_search_1@16         101dfff0 f   msvcprt:vector_algorithms.obj
 0001:001df000       ___std_swap_ranges_trivially_swappable_noalias 101e0000 f   msvcprt:vector_algorithms.obj
 0001:001df0c4       ?_Decref@facet@locale@std@@UAEPAV_Facet_base@3@XZ 101e00c4 f   msvcprt:MSVCP140.dll
 0001:001df0ca       ?_Incref@facet@locale@std@@UAEXXZ 101e00ca f   msvcprt:MSVCP140.dll
 0001:001df0d0       ??2@YAPAXI@Z               101e00d0 f   MSVCRT:new_scalar.obj
 0001:001df100       ??3@YAXPAX@Z               101e0100 f   MSVCRT:delete_scalar.obj
 0001:001df105       ??3@YAXPAXI@Z              101e0105 f   MSVCRT:delete_scalar_size.obj
 0001:001df113       __except_handler4          101e0113 f   MSVCRT:chandler4gs.obj
 0001:001df142       ??_M@YGXPAXIIP6EX0@Z@Z     101e0142 f   MSVCRT:ehvecdtr.obj
 0001:001df1ca       ?__ArrayUnwind@@YGXPAXIIP6EX0@Z@Z 101e01ca f   MSVCRT:ehvecdtr.obj
 0001:001df29c       ___scrt_acquire_startup_lock 101e029c f   MSVCRT:utility.obj
 0001:001df2ce       ___scrt_dllmain_after_initialize_c 101e02ce f   MSVCRT:utility.obj
 0001:001df2f9       ___scrt_dllmain_before_initialize_c 101e02f9 f   MSVCRT:utility.obj
 0001:001df307       ___scrt_dllmain_crt_thread_attach 101e0307 f   MSVCRT:utility.obj
 0001:001df326       ___scrt_dllmain_crt_thread_detach 101e0326 f   MSVCRT:utility.obj
 0001:001df333       ___scrt_dllmain_exception_filter 101e0333 f   MSVCRT:utility.obj
 0001:001df367       ___scrt_dllmain_uninitialize_c 101e0367 f   MSVCRT:utility.obj
 0001:001df38a       ___scrt_dllmain_uninitialize_critical 101e038a f   MSVCRT:utility.obj
 0001:001df397       ___scrt_initialize_crt     101e0397 f   MSVCRT:utility.obj
 0001:001df3d0       ___scrt_initialize_onexit_tables 101e03d0 f   MSVCRT:utility.obj
 0001:001df457       ___scrt_is_nonwritable_in_current_image 101e0457 f   MSVCRT:utility.obj
 0001:001df4ee       ___scrt_release_startup_lock 101e04ee f   MSVCRT:utility.obj
 0001:001df50b       ___scrt_uninitialize_crt   101e050b f   MSVCRT:utility.obj
 0001:001df533       __onexit                   101e0533 f   MSVCRT:utility.obj
 0001:001df561       _atexit                    101e0561 f   MSVCRT:utility.obj
 0001:001df576       ??_U@YAPAXI@Z              101e0576 f   MSVCRT:new_array.obj
 0001:001df57f       ??_Etype_info@@UAEPAXI@Z   101e057f f i MSVCRT:std_type_info_static.obj
 0001:001df57f       ??_Gtype_info@@UAEPAXI@Z   101e057f f i MSVCRT:std_type_info_static.obj
 0001:001df5a2       ??_L@YGXPAXIIP6EX0@Z1@Z    101e05a2 f   MSVCRT:ehvecctr.obj
 0001:001df616       ??_V@YAXPAX@Z              101e0616 f   MSVCRT:delete_array.obj
 0001:001df968       __DllMainCRTStartup@12     101e0968 f   MSVCRT:dll_dllmain.obj
 0001:001df98b       @__security_check_cookie@4 101e098b f   MSVCRT:secchk.obj
 0001:001df9a0       __ftol2                    101e09a0 f   MSVCRT:ftol2.obj
